ARM GAS  /var/folders/5c/srt4fy4j1pd641bjfx75k5000000gn/T//ccRMn8Dl.s 			page 1


   1              		.cpu cortex-m4
   2              		.arch armv7e-m
   3              		.fpu fpv4-sp-d16
   4              		.eabi_attribute 27, 1
   5              		.eabi_attribute 28, 1
   6              		.eabi_attribute 20, 1
   7              		.eabi_attribute 21, 1
   8              		.eabi_attribute 23, 3
   9              		.eabi_attribute 24, 1
  10              		.eabi_attribute 25, 1
  11              		.eabi_attribute 26, 1
  12              		.eabi_attribute 30, 1
  13              		.eabi_attribute 34, 1
  14              		.eabi_attribute 18, 4
  15              		.file	"adc.c"
  16              		.text
  17              	.Ltext0:
  18              		.cfi_sections	.debug_frame
  19              		.file 1 "Core/Src/adc.c"
  20              		.section	.text.MX_ADC1_Init,"ax",%progbits
  21              		.align	1
  22              		.global	MX_ADC1_Init
  23              		.syntax unified
  24              		.thumb
  25              		.thumb_func
  27              	MX_ADC1_Init:
  28              	.LFB239:
   1:Core/Src/adc.c **** /* USER CODE BEGIN Header */
   2:Core/Src/adc.c **** /**
   3:Core/Src/adc.c ****   ******************************************************************************
   4:Core/Src/adc.c ****   * @file    adc.c
   5:Core/Src/adc.c ****   * @brief   This file provides code for the configuration
   6:Core/Src/adc.c ****   *          of the ADC instances.
   7:Core/Src/adc.c ****   ******************************************************************************
   8:Core/Src/adc.c ****   * @attention
   9:Core/Src/adc.c ****   *
  10:Core/Src/adc.c ****   * Copyright (c) 2024 STMicroelectronics.
  11:Core/Src/adc.c ****   * All rights reserved.
  12:Core/Src/adc.c ****   *
  13:Core/Src/adc.c ****   * This software is licensed under terms that can be found in the LICENSE file
  14:Core/Src/adc.c ****   * in the root directory of this software component.
  15:Core/Src/adc.c ****   * If no LICENSE file comes with this software, it is provided AS-IS.
  16:Core/Src/adc.c ****   *
  17:Core/Src/adc.c ****   ******************************************************************************
  18:Core/Src/adc.c ****   */
  19:Core/Src/adc.c **** /* USER CODE END Header */
  20:Core/Src/adc.c **** /* Includes ------------------------------------------------------------------*/
  21:Core/Src/adc.c **** #include "adc.h"
  22:Core/Src/adc.c **** 
  23:Core/Src/adc.c **** /* USER CODE BEGIN 0 */
  24:Core/Src/adc.c **** 
  25:Core/Src/adc.c **** /* USER CODE END 0 */
  26:Core/Src/adc.c **** 
  27:Core/Src/adc.c **** ADC_HandleTypeDef hadc1;
  28:Core/Src/adc.c **** 
  29:Core/Src/adc.c **** /* ADC1 init function */
  30:Core/Src/adc.c **** void MX_ADC1_Init(void)
ARM GAS  /var/folders/5c/srt4fy4j1pd641bjfx75k5000000gn/T//ccRMn8Dl.s 			page 2


  31:Core/Src/adc.c **** {
  29              		.loc 1 31 1 view -0
  30              		.cfi_startproc
  31              		@ args = 0, pretend = 0, frame = 16
  32              		@ frame_needed = 0, uses_anonymous_args = 0
  33 0000 00B5     		push	{lr}
  34              	.LCFI0:
  35              		.cfi_def_cfa_offset 4
  36              		.cfi_offset 14, -4
  37 0002 85B0     		sub	sp, sp, #20
  38              	.LCFI1:
  39              		.cfi_def_cfa_offset 24
  32:Core/Src/adc.c **** 
  33:Core/Src/adc.c ****   /* USER CODE BEGIN ADC1_Init 0 */
  34:Core/Src/adc.c **** 
  35:Core/Src/adc.c ****   /* USER CODE END ADC1_Init 0 */
  36:Core/Src/adc.c **** 
  37:Core/Src/adc.c ****   ADC_ChannelConfTypeDef sConfig = {0};
  40              		.loc 1 37 3 view .LVU1
  41              		.loc 1 37 26 is_stmt 0 view .LVU2
  42 0004 0023     		movs	r3, #0
  43 0006 0093     		str	r3, [sp]
  44 0008 0193     		str	r3, [sp, #4]
  45 000a 0293     		str	r3, [sp, #8]
  46 000c 0393     		str	r3, [sp, #12]
  38:Core/Src/adc.c **** 
  39:Core/Src/adc.c ****   /* USER CODE BEGIN ADC1_Init 1 */
  40:Core/Src/adc.c **** 
  41:Core/Src/adc.c ****   /* USER CODE END ADC1_Init 1 */
  42:Core/Src/adc.c **** 
  43:Core/Src/adc.c ****   /** Configure the global features of the ADC (Clock, Resolution, Data Alignment and number of con
  44:Core/Src/adc.c ****   */
  45:Core/Src/adc.c ****   hadc1.Instance = ADC1;
  47              		.loc 1 45 3 is_stmt 1 view .LVU3
  48              		.loc 1 45 18 is_stmt 0 view .LVU4
  49 000e 1448     		ldr	r0, .L7
  50 0010 144A     		ldr	r2, .L7+4
  51 0012 0260     		str	r2, [r0]
  46:Core/Src/adc.c ****   hadc1.Init.ClockPrescaler = ADC_CLOCK_SYNC_PCLK_DIV2;
  52              		.loc 1 46 3 is_stmt 1 view .LVU5
  53              		.loc 1 46 29 is_stmt 0 view .LVU6
  54 0014 4360     		str	r3, [r0, #4]
  47:Core/Src/adc.c ****   hadc1.Init.Resolution = ADC_RESOLUTION_12B;
  55              		.loc 1 47 3 is_stmt 1 view .LVU7
  56              		.loc 1 47 25 is_stmt 0 view .LVU8
  57 0016 8360     		str	r3, [r0, #8]
  48:Core/Src/adc.c ****   hadc1.Init.ScanConvMode = DISABLE;
  58              		.loc 1 48 3 is_stmt 1 view .LVU9
  59              		.loc 1 48 27 is_stmt 0 view .LVU10
  60 0018 0361     		str	r3, [r0, #16]
  49:Core/Src/adc.c ****   hadc1.Init.ContinuousConvMode = DISABLE;
  61              		.loc 1 49 3 is_stmt 1 view .LVU11
  62              		.loc 1 49 33 is_stmt 0 view .LVU12
  63 001a 0376     		strb	r3, [r0, #24]
  50:Core/Src/adc.c ****   hadc1.Init.DiscontinuousConvMode = DISABLE;
  64              		.loc 1 50 3 is_stmt 1 view .LVU13
  65              		.loc 1 50 36 is_stmt 0 view .LVU14
ARM GAS  /var/folders/5c/srt4fy4j1pd641bjfx75k5000000gn/T//ccRMn8Dl.s 			page 3


  66 001c 80F82030 		strb	r3, [r0, #32]
  51:Core/Src/adc.c ****   hadc1.Init.ExternalTrigConvEdge = ADC_EXTERNALTRIGCONVEDGE_NONE;
  67              		.loc 1 51 3 is_stmt 1 view .LVU15
  68              		.loc 1 51 35 is_stmt 0 view .LVU16
  69 0020 C362     		str	r3, [r0, #44]
  52:Core/Src/adc.c ****   hadc1.Init.ExternalTrigConv = ADC_SOFTWARE_START;
  70              		.loc 1 52 3 is_stmt 1 view .LVU17
  71              		.loc 1 52 31 is_stmt 0 view .LVU18
  72 0022 114A     		ldr	r2, .L7+8
  73 0024 8262     		str	r2, [r0, #40]
  53:Core/Src/adc.c ****   hadc1.Init.DataAlign = ADC_DATAALIGN_RIGHT;
  74              		.loc 1 53 3 is_stmt 1 view .LVU19
  75              		.loc 1 53 24 is_stmt 0 view .LVU20
  76 0026 C360     		str	r3, [r0, #12]
  54:Core/Src/adc.c ****   hadc1.Init.NbrOfConversion = 1;
  77              		.loc 1 54 3 is_stmt 1 view .LVU21
  78              		.loc 1 54 30 is_stmt 0 view .LVU22
  79 0028 0122     		movs	r2, #1
  80 002a C261     		str	r2, [r0, #28]
  55:Core/Src/adc.c ****   hadc1.Init.DMAContinuousRequests = DISABLE;
  81              		.loc 1 55 3 is_stmt 1 view .LVU23
  82              		.loc 1 55 36 is_stmt 0 view .LVU24
  83 002c 80F83030 		strb	r3, [r0, #48]
  56:Core/Src/adc.c ****   hadc1.Init.EOCSelection = ADC_EOC_SINGLE_CONV;
  84              		.loc 1 56 3 is_stmt 1 view .LVU25
  85              		.loc 1 56 27 is_stmt 0 view .LVU26
  86 0030 4261     		str	r2, [r0, #20]
  57:Core/Src/adc.c ****   if (HAL_ADC_Init(&hadc1) != HAL_OK)
  87              		.loc 1 57 3 is_stmt 1 view .LVU27
  88              		.loc 1 57 7 is_stmt 0 view .LVU28
  89 0032 FFF7FEFF 		bl	HAL_ADC_Init
  90              	.LVL0:
  91              		.loc 1 57 6 view .LVU29
  92 0036 60B9     		cbnz	r0, .L5
  93              	.L2:
  58:Core/Src/adc.c ****   {
  59:Core/Src/adc.c ****     Error_Handler();
  60:Core/Src/adc.c ****   }
  61:Core/Src/adc.c **** 
  62:Core/Src/adc.c ****   /** Configure for the selected ADC regular channel its corresponding rank in the sequencer and it
  63:Core/Src/adc.c ****   */
  64:Core/Src/adc.c ****   sConfig.Channel = ADC_CHANNEL_0;
  94              		.loc 1 64 3 is_stmt 1 view .LVU30
  95              		.loc 1 64 19 is_stmt 0 view .LVU31
  96 0038 0023     		movs	r3, #0
  97 003a 0093     		str	r3, [sp]
  65:Core/Src/adc.c ****   sConfig.Rank = 1;
  98              		.loc 1 65 3 is_stmt 1 view .LVU32
  99              		.loc 1 65 16 is_stmt 0 view .LVU33
 100 003c 0122     		movs	r2, #1
 101 003e 0192     		str	r2, [sp, #4]
  66:Core/Src/adc.c ****   sConfig.SamplingTime = ADC_SAMPLETIME_3CYCLES;
 102              		.loc 1 66 3 is_stmt 1 view .LVU34
 103              		.loc 1 66 24 is_stmt 0 view .LVU35
 104 0040 0293     		str	r3, [sp, #8]
  67:Core/Src/adc.c ****   if (HAL_ADC_ConfigChannel(&hadc1, &sConfig) != HAL_OK)
 105              		.loc 1 67 3 is_stmt 1 view .LVU36
ARM GAS  /var/folders/5c/srt4fy4j1pd641bjfx75k5000000gn/T//ccRMn8Dl.s 			page 4


 106              		.loc 1 67 7 is_stmt 0 view .LVU37
 107 0042 6946     		mov	r1, sp
 108 0044 0648     		ldr	r0, .L7
 109 0046 FFF7FEFF 		bl	HAL_ADC_ConfigChannel
 110              	.LVL1:
 111              		.loc 1 67 6 view .LVU38
 112 004a 28B9     		cbnz	r0, .L6
 113              	.L1:
  68:Core/Src/adc.c ****   {
  69:Core/Src/adc.c ****     Error_Handler();
  70:Core/Src/adc.c ****   }
  71:Core/Src/adc.c ****   /* USER CODE BEGIN ADC1_Init 2 */
  72:Core/Src/adc.c **** 
  73:Core/Src/adc.c ****   /* USER CODE END ADC1_Init 2 */
  74:Core/Src/adc.c **** 
  75:Core/Src/adc.c **** }
 114              		.loc 1 75 1 view .LVU39
 115 004c 05B0     		add	sp, sp, #20
 116              	.LCFI2:
 117              		.cfi_remember_state
 118              		.cfi_def_cfa_offset 4
 119              		@ sp needed
 120 004e 5DF804FB 		ldr	pc, [sp], #4
 121              	.L5:
 122              	.LCFI3:
 123              		.cfi_restore_state
  59:Core/Src/adc.c ****   }
 124              		.loc 1 59 5 is_stmt 1 view .LVU40
 125 0052 FFF7FEFF 		bl	Error_Handler
 126              	.LVL2:
 127 0056 EFE7     		b	.L2
 128              	.L6:
  69:Core/Src/adc.c ****   }
 129              		.loc 1 69 5 view .LVU41
 130 0058 FFF7FEFF 		bl	Error_Handler
 131              	.LVL3:
 132              		.loc 1 75 1 is_stmt 0 view .LVU42
 133 005c F6E7     		b	.L1
 134              	.L8:
 135 005e 00BF     		.align	2
 136              	.L7:
 137 0060 00000000 		.word	hadc1
 138 0064 00200140 		.word	1073815552
 139 0068 0100000F 		.word	251658241
 140              		.cfi_endproc
 141              	.LFE239:
 143              		.section	.text.HAL_ADC_MspInit,"ax",%progbits
 144              		.align	1
 145              		.global	HAL_ADC_MspInit
 146              		.syntax unified
 147              		.thumb
 148              		.thumb_func
 150              	HAL_ADC_MspInit:
 151              	.LVL4:
 152              	.LFB240:
  76:Core/Src/adc.c **** 
  77:Core/Src/adc.c **** void HAL_ADC_MspInit(ADC_HandleTypeDef* adcHandle)
ARM GAS  /var/folders/5c/srt4fy4j1pd641bjfx75k5000000gn/T//ccRMn8Dl.s 			page 5


  78:Core/Src/adc.c **** {
 153              		.loc 1 78 1 is_stmt 1 view -0
 154              		.cfi_startproc
 155              		@ args = 0, pretend = 0, frame = 40
 156              		@ frame_needed = 0, uses_anonymous_args = 0
 157              		.loc 1 78 1 is_stmt 0 view .LVU44
 158 0000 30B5     		push	{r4, r5, lr}
 159              	.LCFI4:
 160              		.cfi_def_cfa_offset 12
 161              		.cfi_offset 4, -12
 162              		.cfi_offset 5, -8
 163              		.cfi_offset 14, -4
 164 0002 8BB0     		sub	sp, sp, #44
 165              	.LCFI5:
 166              		.cfi_def_cfa_offset 56
  79:Core/Src/adc.c **** 
  80:Core/Src/adc.c ****   GPIO_InitTypeDef GPIO_InitStruct = {0};
 167              		.loc 1 80 3 is_stmt 1 view .LVU45
 168              		.loc 1 80 20 is_stmt 0 view .LVU46
 169 0004 0023     		movs	r3, #0
 170 0006 0593     		str	r3, [sp, #20]
 171 0008 0693     		str	r3, [sp, #24]
 172 000a 0793     		str	r3, [sp, #28]
 173 000c 0893     		str	r3, [sp, #32]
 174 000e 0993     		str	r3, [sp, #36]
  81:Core/Src/adc.c ****   if(adcHandle->Instance==ADC1)
 175              		.loc 1 81 3 is_stmt 1 view .LVU47
 176              		.loc 1 81 15 is_stmt 0 view .LVU48
 177 0010 0268     		ldr	r2, [r0]
 178              		.loc 1 81 5 view .LVU49
 179 0012 03F18043 		add	r3, r3, #1073741824
 180 0016 03F59033 		add	r3, r3, #73728
 181 001a 9A42     		cmp	r2, r3
 182 001c 01D0     		beq	.L12
 183              	.LVL5:
 184              	.L9:
  82:Core/Src/adc.c ****   {
  83:Core/Src/adc.c ****   /* USER CODE BEGIN ADC1_MspInit 0 */
  84:Core/Src/adc.c **** 
  85:Core/Src/adc.c ****   /* USER CODE END ADC1_MspInit 0 */
  86:Core/Src/adc.c ****     /* ADC1 clock enable */
  87:Core/Src/adc.c ****     __HAL_RCC_ADC1_CLK_ENABLE();
  88:Core/Src/adc.c **** 
  89:Core/Src/adc.c ****     __HAL_RCC_GPIOC_CLK_ENABLE();
  90:Core/Src/adc.c ****     __HAL_RCC_GPIOA_CLK_ENABLE();
  91:Core/Src/adc.c ****     __HAL_RCC_GPIOB_CLK_ENABLE();
  92:Core/Src/adc.c ****     /**ADC1 GPIO Configuration
  93:Core/Src/adc.c ****     PC0     ------> ADC1_IN10
  94:Core/Src/adc.c ****     PC1     ------> ADC1_IN11
  95:Core/Src/adc.c ****     PC2     ------> ADC1_IN12
  96:Core/Src/adc.c ****     PC3     ------> ADC1_IN13
  97:Core/Src/adc.c ****     PA0-WKUP     ------> ADC1_IN0
  98:Core/Src/adc.c ****     PA1     ------> ADC1_IN1
  99:Core/Src/adc.c ****     PA2     ------> ADC1_IN2
 100:Core/Src/adc.c ****     PA3     ------> ADC1_IN3
 101:Core/Src/adc.c ****     PA4     ------> ADC1_IN4
 102:Core/Src/adc.c ****     PA5     ------> ADC1_IN5
ARM GAS  /var/folders/5c/srt4fy4j1pd641bjfx75k5000000gn/T//ccRMn8Dl.s 			page 6


 103:Core/Src/adc.c ****     PA6     ------> ADC1_IN6
 104:Core/Src/adc.c ****     PA7     ------> ADC1_IN7
 105:Core/Src/adc.c ****     PB0     ------> ADC1_IN8
 106:Core/Src/adc.c ****     PB1     ------> ADC1_IN9
 107:Core/Src/adc.c ****     */
 108:Core/Src/adc.c ****     GPIO_InitStruct.Pin = LINE_R_Pin|LINE1_Pin|LINE2_Pin|LINE3_Pin;
 109:Core/Src/adc.c ****     GPIO_InitStruct.Mode = GPIO_MODE_ANALOG;
 110:Core/Src/adc.c ****     GPIO_InitStruct.Pull = GPIO_NOPULL;
 111:Core/Src/adc.c ****     HAL_GPIO_Init(GPIOC, &GPIO_InitStruct);
 112:Core/Src/adc.c **** 
 113:Core/Src/adc.c ****     GPIO_InitStruct.Pin = LINE4_Pin|LINE5_Pin|LINE6_Pin|LINE7_Pin
 114:Core/Src/adc.c ****                           |LINE8_Pin|LINE9_Pin|LINE10_Pin|LINE_L_Pin;
 115:Core/Src/adc.c ****     GPIO_InitStruct.Mode = GPIO_MODE_ANALOG;
 116:Core/Src/adc.c ****     GPIO_InitStruct.Pull = GPIO_NOPULL;
 117:Core/Src/adc.c ****     HAL_GPIO_Init(GPIOA, &GPIO_InitStruct);
 118:Core/Src/adc.c **** 
 119:Core/Src/adc.c ****     GPIO_InitStruct.Pin = ENCODER_L_Pin|ENCODER_R_Pin;
 120:Core/Src/adc.c ****     GPIO_InitStruct.Mode = GPIO_MODE_ANALOG;
 121:Core/Src/adc.c ****     GPIO_InitStruct.Pull = GPIO_NOPULL;
 122:Core/Src/adc.c ****     HAL_GPIO_Init(GPIOB, &GPIO_InitStruct);
 123:Core/Src/adc.c **** 
 124:Core/Src/adc.c ****   /* USER CODE BEGIN ADC1_MspInit 1 */
 125:Core/Src/adc.c **** 
 126:Core/Src/adc.c ****   /* USER CODE END ADC1_MspInit 1 */
 127:Core/Src/adc.c ****   }
 128:Core/Src/adc.c **** }
 185              		.loc 1 128 1 view .LVU50
 186 001e 0BB0     		add	sp, sp, #44
 187              	.LCFI6:
 188              		.cfi_remember_state
 189              		.cfi_def_cfa_offset 12
 190              		@ sp needed
 191 0020 30BD     		pop	{r4, r5, pc}
 192              	.LVL6:
 193              	.L12:
 194              	.LCFI7:
 195              		.cfi_restore_state
  87:Core/Src/adc.c **** 
 196              		.loc 1 87 5 is_stmt 1 view .LVU51
 197              	.LBB2:
  87:Core/Src/adc.c **** 
 198              		.loc 1 87 5 view .LVU52
 199 0022 0024     		movs	r4, #0
 200 0024 0194     		str	r4, [sp, #4]
  87:Core/Src/adc.c **** 
 201              		.loc 1 87 5 view .LVU53
 202 0026 03F58C33 		add	r3, r3, #71680
 203 002a 5A6C     		ldr	r2, [r3, #68]
 204 002c 42F48072 		orr	r2, r2, #256
 205 0030 5A64     		str	r2, [r3, #68]
  87:Core/Src/adc.c **** 
 206              		.loc 1 87 5 view .LVU54
 207 0032 5A6C     		ldr	r2, [r3, #68]
 208 0034 02F48072 		and	r2, r2, #256
 209 0038 0192     		str	r2, [sp, #4]
  87:Core/Src/adc.c **** 
 210              		.loc 1 87 5 view .LVU55
ARM GAS  /var/folders/5c/srt4fy4j1pd641bjfx75k5000000gn/T//ccRMn8Dl.s 			page 7


 211 003a 019A     		ldr	r2, [sp, #4]
 212              	.LBE2:
  87:Core/Src/adc.c **** 
 213              		.loc 1 87 5 view .LVU56
  89:Core/Src/adc.c ****     __HAL_RCC_GPIOA_CLK_ENABLE();
 214              		.loc 1 89 5 view .LVU57
 215              	.LBB3:
  89:Core/Src/adc.c ****     __HAL_RCC_GPIOA_CLK_ENABLE();
 216              		.loc 1 89 5 view .LVU58
 217 003c 0294     		str	r4, [sp, #8]
  89:Core/Src/adc.c ****     __HAL_RCC_GPIOA_CLK_ENABLE();
 218              		.loc 1 89 5 view .LVU59
 219 003e 1A6B     		ldr	r2, [r3, #48]
 220 0040 42F00402 		orr	r2, r2, #4
 221 0044 1A63     		str	r2, [r3, #48]
  89:Core/Src/adc.c ****     __HAL_RCC_GPIOA_CLK_ENABLE();
 222              		.loc 1 89 5 view .LVU60
 223 0046 1A6B     		ldr	r2, [r3, #48]
 224 0048 02F00402 		and	r2, r2, #4
 225 004c 0292     		str	r2, [sp, #8]
  89:Core/Src/adc.c ****     __HAL_RCC_GPIOA_CLK_ENABLE();
 226              		.loc 1 89 5 view .LVU61
 227 004e 029A     		ldr	r2, [sp, #8]
 228              	.LBE3:
  89:Core/Src/adc.c ****     __HAL_RCC_GPIOA_CLK_ENABLE();
 229              		.loc 1 89 5 view .LVU62
  90:Core/Src/adc.c ****     __HAL_RCC_GPIOB_CLK_ENABLE();
 230              		.loc 1 90 5 view .LVU63
 231              	.LBB4:
  90:Core/Src/adc.c ****     __HAL_RCC_GPIOB_CLK_ENABLE();
 232              		.loc 1 90 5 view .LVU64
 233 0050 0394     		str	r4, [sp, #12]
  90:Core/Src/adc.c ****     __HAL_RCC_GPIOB_CLK_ENABLE();
 234              		.loc 1 90 5 view .LVU65
 235 0052 1A6B     		ldr	r2, [r3, #48]
 236 0054 42F00102 		orr	r2, r2, #1
 237 0058 1A63     		str	r2, [r3, #48]
  90:Core/Src/adc.c ****     __HAL_RCC_GPIOB_CLK_ENABLE();
 238              		.loc 1 90 5 view .LVU66
 239 005a 1A6B     		ldr	r2, [r3, #48]
 240 005c 02F00102 		and	r2, r2, #1
 241 0060 0392     		str	r2, [sp, #12]
  90:Core/Src/adc.c ****     __HAL_RCC_GPIOB_CLK_ENABLE();
 242              		.loc 1 90 5 view .LVU67
 243 0062 039A     		ldr	r2, [sp, #12]
 244              	.LBE4:
  90:Core/Src/adc.c ****     __HAL_RCC_GPIOB_CLK_ENABLE();
 245              		.loc 1 90 5 view .LVU68
  91:Core/Src/adc.c ****     /**ADC1 GPIO Configuration
 246              		.loc 1 91 5 view .LVU69
 247              	.LBB5:
  91:Core/Src/adc.c ****     /**ADC1 GPIO Configuration
 248              		.loc 1 91 5 view .LVU70
 249 0064 0494     		str	r4, [sp, #16]
  91:Core/Src/adc.c ****     /**ADC1 GPIO Configuration
 250              		.loc 1 91 5 view .LVU71
 251 0066 1A6B     		ldr	r2, [r3, #48]
ARM GAS  /var/folders/5c/srt4fy4j1pd641bjfx75k5000000gn/T//ccRMn8Dl.s 			page 8


 252 0068 42F00202 		orr	r2, r2, #2
 253 006c 1A63     		str	r2, [r3, #48]
  91:Core/Src/adc.c ****     /**ADC1 GPIO Configuration
 254              		.loc 1 91 5 view .LVU72
 255 006e 1B6B     		ldr	r3, [r3, #48]
 256 0070 03F00203 		and	r3, r3, #2
 257 0074 0493     		str	r3, [sp, #16]
  91:Core/Src/adc.c ****     /**ADC1 GPIO Configuration
 258              		.loc 1 91 5 view .LVU73
 259 0076 049B     		ldr	r3, [sp, #16]
 260              	.LBE5:
  91:Core/Src/adc.c ****     /**ADC1 GPIO Configuration
 261              		.loc 1 91 5 view .LVU74
 108:Core/Src/adc.c ****     GPIO_InitStruct.Mode = GPIO_MODE_ANALOG;
 262              		.loc 1 108 5 view .LVU75
 108:Core/Src/adc.c ****     GPIO_InitStruct.Mode = GPIO_MODE_ANALOG;
 263              		.loc 1 108 25 is_stmt 0 view .LVU76
 264 0078 0F23     		movs	r3, #15
 265 007a 0593     		str	r3, [sp, #20]
 109:Core/Src/adc.c ****     GPIO_InitStruct.Pull = GPIO_NOPULL;
 266              		.loc 1 109 5 is_stmt 1 view .LVU77
 109:Core/Src/adc.c ****     GPIO_InitStruct.Pull = GPIO_NOPULL;
 267              		.loc 1 109 26 is_stmt 0 view .LVU78
 268 007c 0325     		movs	r5, #3
 269 007e 0695     		str	r5, [sp, #24]
 110:Core/Src/adc.c ****     HAL_GPIO_Init(GPIOC, &GPIO_InitStruct);
 270              		.loc 1 110 5 is_stmt 1 view .LVU79
 111:Core/Src/adc.c **** 
 271              		.loc 1 111 5 view .LVU80
 272 0080 05A9     		add	r1, sp, #20
 273 0082 0948     		ldr	r0, .L13
 274              	.LVL7:
 111:Core/Src/adc.c **** 
 275              		.loc 1 111 5 is_stmt 0 view .LVU81
 276 0084 FFF7FEFF 		bl	HAL_GPIO_Init
 277              	.LVL8:
 113:Core/Src/adc.c ****                           |LINE8_Pin|LINE9_Pin|LINE10_Pin|LINE_L_Pin;
 278              		.loc 1 113 5 is_stmt 1 view .LVU82
 113:Core/Src/adc.c ****                           |LINE8_Pin|LINE9_Pin|LINE10_Pin|LINE_L_Pin;
 279              		.loc 1 113 25 is_stmt 0 view .LVU83
 280 0088 FF23     		movs	r3, #255
 281 008a 0593     		str	r3, [sp, #20]
 115:Core/Src/adc.c ****     GPIO_InitStruct.Pull = GPIO_NOPULL;
 282              		.loc 1 115 5 is_stmt 1 view .LVU84
 115:Core/Src/adc.c ****     GPIO_InitStruct.Pull = GPIO_NOPULL;
 283              		.loc 1 115 26 is_stmt 0 view .LVU85
 284 008c 0695     		str	r5, [sp, #24]
 116:Core/Src/adc.c ****     HAL_GPIO_Init(GPIOA, &GPIO_InitStruct);
 285              		.loc 1 116 5 is_stmt 1 view .LVU86
 116:Core/Src/adc.c ****     HAL_GPIO_Init(GPIOA, &GPIO_InitStruct);
 286              		.loc 1 116 26 is_stmt 0 view .LVU87
 287 008e 0794     		str	r4, [sp, #28]
 117:Core/Src/adc.c **** 
 288              		.loc 1 117 5 is_stmt 1 view .LVU88
 289 0090 05A9     		add	r1, sp, #20
 290 0092 0648     		ldr	r0, .L13+4
 291 0094 FFF7FEFF 		bl	HAL_GPIO_Init
ARM GAS  /var/folders/5c/srt4fy4j1pd641bjfx75k5000000gn/T//ccRMn8Dl.s 			page 9


 292              	.LVL9:
 119:Core/Src/adc.c ****     GPIO_InitStruct.Mode = GPIO_MODE_ANALOG;
 293              		.loc 1 119 5 view .LVU89
 119:Core/Src/adc.c ****     GPIO_InitStruct.Mode = GPIO_MODE_ANALOG;
 294              		.loc 1 119 25 is_stmt 0 view .LVU90
 295 0098 0595     		str	r5, [sp, #20]
 120:Core/Src/adc.c ****     GPIO_InitStruct.Pull = GPIO_NOPULL;
 296              		.loc 1 120 5 is_stmt 1 view .LVU91
 120:Core/Src/adc.c ****     GPIO_InitStruct.Pull = GPIO_NOPULL;
 297              		.loc 1 120 26 is_stmt 0 view .LVU92
 298 009a 0695     		str	r5, [sp, #24]
 121:Core/Src/adc.c ****     HAL_GPIO_Init(GPIOB, &GPIO_InitStruct);
 299              		.loc 1 121 5 is_stmt 1 view .LVU93
 121:Core/Src/adc.c ****     HAL_GPIO_Init(GPIOB, &GPIO_InitStruct);
 300              		.loc 1 121 26 is_stmt 0 view .LVU94
 301 009c 0794     		str	r4, [sp, #28]
 122:Core/Src/adc.c **** 
 302              		.loc 1 122 5 is_stmt 1 view .LVU95
 303 009e 05A9     		add	r1, sp, #20
 304 00a0 0348     		ldr	r0, .L13+8
 305 00a2 FFF7FEFF 		bl	HAL_GPIO_Init
 306              	.LVL10:
 307              		.loc 1 128 1 is_stmt 0 view .LVU96
 308 00a6 BAE7     		b	.L9
 309              	.L14:
 310              		.align	2
 311              	.L13:
 312 00a8 00080240 		.word	1073874944
 313 00ac 00000240 		.word	1073872896
 314 00b0 00040240 		.word	1073873920
 315              		.cfi_endproc
 316              	.LFE240:
 318              		.section	.text.HAL_ADC_MspDeInit,"ax",%progbits
 319              		.align	1
 320              		.global	HAL_ADC_MspDeInit
 321              		.syntax unified
 322              		.thumb
 323              		.thumb_func
 325              	HAL_ADC_MspDeInit:
 326              	.LVL11:
 327              	.LFB241:
 129:Core/Src/adc.c **** 
 130:Core/Src/adc.c **** void HAL_ADC_MspDeInit(ADC_HandleTypeDef* adcHandle)
 131:Core/Src/adc.c **** {
 328              		.loc 1 131 1 is_stmt 1 view -0
 329              		.cfi_startproc
 330              		@ args = 0, pretend = 0, frame = 0
 331              		@ frame_needed = 0, uses_anonymous_args = 0
 332              		.loc 1 131 1 is_stmt 0 view .LVU98
 333 0000 08B5     		push	{r3, lr}
 334              	.LCFI8:
 335              		.cfi_def_cfa_offset 8
 336              		.cfi_offset 3, -8
 337              		.cfi_offset 14, -4
 132:Core/Src/adc.c **** 
 133:Core/Src/adc.c ****   if(adcHandle->Instance==ADC1)
 338              		.loc 1 133 3 is_stmt 1 view .LVU99
ARM GAS  /var/folders/5c/srt4fy4j1pd641bjfx75k5000000gn/T//ccRMn8Dl.s 			page 10


 339              		.loc 1 133 15 is_stmt 0 view .LVU100
 340 0002 0268     		ldr	r2, [r0]
 341              		.loc 1 133 5 view .LVU101
 342 0004 0A4B     		ldr	r3, .L19
 343 0006 9A42     		cmp	r2, r3
 344 0008 00D0     		beq	.L18
 345              	.LVL12:
 346              	.L15:
 134:Core/Src/adc.c ****   {
 135:Core/Src/adc.c ****   /* USER CODE BEGIN ADC1_MspDeInit 0 */
 136:Core/Src/adc.c **** 
 137:Core/Src/adc.c ****   /* USER CODE END ADC1_MspDeInit 0 */
 138:Core/Src/adc.c ****     /* Peripheral clock disable */
 139:Core/Src/adc.c ****     __HAL_RCC_ADC1_CLK_DISABLE();
 140:Core/Src/adc.c **** 
 141:Core/Src/adc.c ****     /**ADC1 GPIO Configuration
 142:Core/Src/adc.c ****     PC0     ------> ADC1_IN10
 143:Core/Src/adc.c ****     PC1     ------> ADC1_IN11
 144:Core/Src/adc.c ****     PC2     ------> ADC1_IN12
 145:Core/Src/adc.c ****     PC3     ------> ADC1_IN13
 146:Core/Src/adc.c ****     PA0-WKUP     ------> ADC1_IN0
 147:Core/Src/adc.c ****     PA1     ------> ADC1_IN1
 148:Core/Src/adc.c ****     PA2     ------> ADC1_IN2
 149:Core/Src/adc.c ****     PA3     ------> ADC1_IN3
 150:Core/Src/adc.c ****     PA4     ------> ADC1_IN4
 151:Core/Src/adc.c ****     PA5     ------> ADC1_IN5
 152:Core/Src/adc.c ****     PA6     ------> ADC1_IN6
 153:Core/Src/adc.c ****     PA7     ------> ADC1_IN7
 154:Core/Src/adc.c ****     PB0     ------> ADC1_IN8
 155:Core/Src/adc.c ****     PB1     ------> ADC1_IN9
 156:Core/Src/adc.c ****     */
 157:Core/Src/adc.c ****     HAL_GPIO_DeInit(GPIOC, LINE_R_Pin|LINE1_Pin|LINE2_Pin|LINE3_Pin);
 158:Core/Src/adc.c **** 
 159:Core/Src/adc.c ****     HAL_GPIO_DeInit(GPIOA, LINE4_Pin|LINE5_Pin|LINE6_Pin|LINE7_Pin
 160:Core/Src/adc.c ****                           |LINE8_Pin|LINE9_Pin|LINE10_Pin|LINE_L_Pin);
 161:Core/Src/adc.c **** 
 162:Core/Src/adc.c ****     HAL_GPIO_DeInit(GPIOB, ENCODER_L_Pin|ENCODER_R_Pin);
 163:Core/Src/adc.c **** 
 164:Core/Src/adc.c ****   /* USER CODE BEGIN ADC1_MspDeInit 1 */
 165:Core/Src/adc.c **** 
 166:Core/Src/adc.c ****   /* USER CODE END ADC1_MspDeInit 1 */
 167:Core/Src/adc.c ****   }
 168:Core/Src/adc.c **** }
 347              		.loc 1 168 1 view .LVU102
 348 000a 08BD     		pop	{r3, pc}
 349              	.LVL13:
 350              	.L18:
 139:Core/Src/adc.c **** 
 351              		.loc 1 139 5 is_stmt 1 view .LVU103
 352 000c 094A     		ldr	r2, .L19+4
 353 000e 536C     		ldr	r3, [r2, #68]
 354 0010 23F48073 		bic	r3, r3, #256
 355 0014 5364     		str	r3, [r2, #68]
 157:Core/Src/adc.c **** 
 356              		.loc 1 157 5 view .LVU104
 357 0016 0F21     		movs	r1, #15
 358 0018 0748     		ldr	r0, .L19+8
ARM GAS  /var/folders/5c/srt4fy4j1pd641bjfx75k5000000gn/T//ccRMn8Dl.s 			page 11


 359              	.LVL14:
 157:Core/Src/adc.c **** 
 360              		.loc 1 157 5 is_stmt 0 view .LVU105
 361 001a FFF7FEFF 		bl	HAL_GPIO_DeInit
 362              	.LVL15:
 159:Core/Src/adc.c ****                           |LINE8_Pin|LINE9_Pin|LINE10_Pin|LINE_L_Pin);
 363              		.loc 1 159 5 is_stmt 1 view .LVU106
 364 001e FF21     		movs	r1, #255
 365 0020 0648     		ldr	r0, .L19+12
 366 0022 FFF7FEFF 		bl	HAL_GPIO_DeInit
 367              	.LVL16:
 162:Core/Src/adc.c **** 
 368              		.loc 1 162 5 view .LVU107
 369 0026 0321     		movs	r1, #3
 370 0028 0548     		ldr	r0, .L19+16
 371 002a FFF7FEFF 		bl	HAL_GPIO_DeInit
 372              	.LVL17:
 373              		.loc 1 168 1 is_stmt 0 view .LVU108
 374 002e ECE7     		b	.L15
 375              	.L20:
 376              		.align	2
 377              	.L19:
 378 0030 00200140 		.word	1073815552
 379 0034 00380240 		.word	1073887232
 380 0038 00080240 		.word	1073874944
 381 003c 00000240 		.word	1073872896
 382 0040 00040240 		.word	1073873920
 383              		.cfi_endproc
 384              	.LFE241:
 386              		.global	hadc1
 387              		.section	.bss.hadc1,"aw",%nobits
 388              		.align	2
 391              	hadc1:
 392 0000 00000000 		.space	72
 392      00000000 
 392      00000000 
 392      00000000 
 392      00000000 
 393              		.text
 394              	.Letext0:
 395              		.file 2 "/opt/ST/STM32CubeCLT_1.16.0/GNU-tools-for-STM32/arm-none-eabi/include/machine/_default_ty
 396              		.file 3 "/opt/ST/STM32CubeCLT_1.16.0/GNU-tools-for-STM32/arm-none-eabi/include/sys/_stdint.h"
 397              		.file 4 "Drivers/CMSIS/Device/ST/STM32F4xx/Include/stm32f446xx.h"
 398              		.file 5 "Drivers/CMSIS/Device/ST/STM32F4xx/Include/stm32f4xx.h"
 399              		.file 6 "Drivers/STM32F4xx_HAL_Driver/Inc/stm32f4xx_hal_def.h"
 400              		.file 7 "Drivers/STM32F4xx_HAL_Driver/Inc/stm32f4xx_hal_gpio.h"
 401              		.file 8 "Drivers/STM32F4xx_HAL_Driver/Inc/stm32f4xx_hal_dma.h"
 402              		.file 9 "Drivers/STM32F4xx_HAL_Driver/Inc/stm32f4xx_hal_adc.h"
 403              		.file 10 "Core/Inc/adc.h"
 404              		.file 11 "Core/Inc/main.h"
ARM GAS  /var/folders/5c/srt4fy4j1pd641bjfx75k5000000gn/T//ccRMn8Dl.s 			page 12

