ARM GAS  /var/folders/5c/srt4fy4j1pd641bjfx75k5000000gn/T//ccIB3Md2.s 			page 1


   1              		.cpu cortex-m4
   2              		.arch armv7e-m
   3              		.fpu fpv4-sp-d16
   4              		.eabi_attribute 27, 1
   5              		.eabi_attribute 28, 1
   6              		.eabi_attribute 20, 1
   7              		.eabi_attribute 21, 1
   8              		.eabi_attribute 23, 3
   9              		.eabi_attribute 24, 1
  10              		.eabi_attribute 25, 1
  11              		.eabi_attribute 26, 1
  12              		.eabi_attribute 30, 1
  13              		.eabi_attribute 34, 1
  14              		.eabi_attribute 18, 4
  15              		.file	"main_mode.cpp"
  16              		.text
  17              	.Ltext0:
  18              		.cfi_sections	.debug_frame
  19              		.file 1 "src/mode/main_mode.cpp"
  20              		.section	.text._ZN8MainModeC2Ev,"ax",%progbits
  21              		.align	1
  22              		.global	_ZN8MainModeC2Ev
  23              		.syntax unified
  24              		.thumb
  25              		.thumb_func
  27              	_ZN8MainModeC2Ev:
  28              		.fnstart
  29              	.LVL0:
  30              	.LFB276:
   1:src/mode/main_mode.cpp **** #include "main_mode.hpp"
   2:src/mode/main_mode.cpp **** 
   3:src/mode/main_mode.cpp **** // #define DEBUG
   4:src/mode/main_mode.cpp **** 
   5:src/mode/main_mode.cpp **** MainMode::MainMode() {
  31              		.loc 1 5 1 view -0
  32              		.cfi_startproc
  33              		@ args = 0, pretend = 0, frame = 0
  34              		@ frame_needed = 0, uses_anonymous_args = 0
  35              		.loc 1 5 1 is_stmt 0 view .LVU1
  36 0000 10B5     		push	{r4, lr}
  37              		.save {r4, lr}
  38              	.LCFI0:
  39              		.cfi_def_cfa_offset 8
  40              		.cfi_offset 4, -8
  41              		.cfi_offset 14, -4
  42 0002 0446     		mov	r4, r0
  43              	.LBB2:
  44              		.loc 1 5 20 view .LVU2
  45 0004 FFF7FEFF 		bl	_ZN5TimerC1Ev
  46              	.LVL1:
  47              		.loc 1 5 20 view .LVU3
  48 0008 04F10800 		add	r0, r4, #8
  49 000c FFF7FEFF 		bl	_ZN5RobotC1Ev
  50              	.LVL2:
  51              	.LBE2:
   6:src/mode/main_mode.cpp **** }
  52              		.loc 1 6 1 view .LVU4
ARM GAS  /var/folders/5c/srt4fy4j1pd641bjfx75k5000000gn/T//ccIB3Md2.s 			page 2


  53 0010 2046     		mov	r0, r4
  54 0012 10BD     		pop	{r4, pc}
  55              		.loc 1 6 1 view .LVU5
  56              		.cfi_endproc
  57              	.LFE276:
  58              		.fnend
  60              		.global	_ZN8MainModeC1Ev
  61              		.thumb_set _ZN8MainModeC1Ev,_ZN8MainModeC2Ev
  62              		.global	__aeabi_d2f
  63              		.global	__aeabi_dcmpgt
  64              		.section	.rodata._ZN8MainMode4loopEv.str1.4,"aMS",%progbits,1
  65              		.align	2
  66              	.LC0:
  67 0000 4F766572 		.ascii	"OverProcess! \000"
  67      50726F63 
  67      65737321 
  67      2000
  68              		.section	.text._ZN8MainMode4loopEv,"ax",%progbits
  69              		.align	1
  70              		.global	_ZN8MainMode4loopEv
  71              		.syntax unified
  72              		.thumb
  73              		.thumb_func
  75              	_ZN8MainMode4loopEv:
  76              		.fnstart
  77              	.LVL3:
  78              	.LFB278:
   7:src/mode/main_mode.cpp **** float p, i, d, pid, pre_p;
   8:src/mode/main_mode.cpp **** 
   9:src/mode/main_mode.cpp **** void MainMode::loop() {
  79              		.loc 1 9 23 is_stmt 1 view -0
  80              		.cfi_startproc
  81              		@ args = 0, pretend = 0, frame = 0
  82              		@ frame_needed = 0, uses_anonymous_args = 0
  83              		.loc 1 9 23 is_stmt 0 view .LVU7
  84 0000 D0B5     		push	{r4, r6, r7, lr}
  85              		.save {r4, r6, r7, lr}
  86              	.LCFI1:
  87              		.cfi_def_cfa_offset 16
  88              		.cfi_offset 4, -16
  89              		.cfi_offset 6, -12
  90              		.cfi_offset 7, -8
  91              		.cfi_offset 14, -4
  92 0002 0446     		mov	r4, r0
  10:src/mode/main_mode.cpp ****       processTimer.reset();
  93              		.loc 1 10 7 is_stmt 1 view .LVU8
  94              		.loc 1 10 25 is_stmt 0 view .LVU9
  95 0004 FFF7FEFF 		bl	_ZN5Timer5resetEv
  96              	.LVL4:
  11:src/mode/main_mode.cpp ****       robot.motor.EncoderCompute();
  97              		.loc 1 11 7 is_stmt 1 view .LVU10
  98              		.loc 1 11 33 is_stmt 0 view .LVU11
  99 0008 04F58C60 		add	r0, r4, #1120
 100 000c FFF7FEFF 		bl	_ZN10MotorDrive14EncoderComputeEv
 101              	.LVL5:
  12:src/mode/main_mode.cpp ****       robot.getSensors();
 102              		.loc 1 12 7 is_stmt 1 view .LVU12
ARM GAS  /var/folders/5c/srt4fy4j1pd641bjfx75k5000000gn/T//ccIB3Md2.s 			page 3


 103              		.loc 1 12 23 is_stmt 0 view .LVU13
 104 0010 04F10800 		add	r0, r4, #8
 105 0014 FFF7FEFF 		bl	_ZN5Robot10getSensorsEv
 106              	.LVL6:
  13:src/mode/main_mode.cpp **** 
  14:src/mode/main_mode.cpp ****       const float Kp = 2.5, Ki = 1, Kd = 0.02;
 107              		.loc 1 14 7 is_stmt 1 view .LVU14
  15:src/mode/main_mode.cpp ****       int16_t left, right;
 108              		.loc 1 15 7 view .LVU15
  16:src/mode/main_mode.cpp ****       p = robot.line.position - 0;
 109              		.loc 1 16 7 view .LVU16
 110              		.loc 1 16 22 is_stmt 0 view .LVU17
 111 0018 D4E90867 		ldrd	r6, [r4, #32]
 112              		.loc 1 16 31 view .LVU18
 113 001c 3046     		mov	r0, r6
 114 001e 3946     		mov	r1, r7
 115 0020 FFF7FEFF 		bl	__aeabi_d2f
 116              	.LVL7:
 117 0024 07EE100A 		vmov	s14, r0
 118              		.loc 1 16 9 view .LVU19
 119 0028 2C4B     		ldr	r3, .L15
 120 002a 1860     		str	r0, [r3]	@ float
  17:src/mode/main_mode.cpp ****       i += p * processTime * 0.000001f;
 121              		.loc 1 17 7 is_stmt 1 view .LVU20
 122              		.loc 1 17 16 is_stmt 0 view .LVU21
 123 002c B4F82035 		ldrh	r3, [r4, #1312]
 124 0030 06EE903A 		vmov	s13, r3	@ int
 125              		.loc 1 17 14 view .LVU22
 126 0034 F8EEE66A 		vcvt.f32.s32	s13, s13
 127 0038 67EE267A 		vmul.f32	s15, s14, s13
 128              		.loc 1 17 28 view .LVU23
 129 003c 9FED286A 		vldr.32	s12, .L15+4
 130 0040 67EE867A 		vmul.f32	s15, s15, s12
 131              		.loc 1 17 9 view .LVU24
 132 0044 274B     		ldr	r3, .L15+8
 133 0046 D3ED005A 		vldr.32	s11, [r3]
 134 004a 77EEA57A 		vadd.f32	s15, s15, s11
 135 004e C3ED007A 		vstr.32	s15, [r3]
  18:src/mode/main_mode.cpp ****       d = (p - pre_p) / (processTime * 0.000001f);
 136              		.loc 1 18 7 is_stmt 1 view .LVU25
 137              		.loc 1 18 14 is_stmt 0 view .LVU26
 138 0052 254B     		ldr	r3, .L15+12
 139 0054 D3ED005A 		vldr.32	s11, [r3]
 140 0058 77EE655A 		vsub.f32	s11, s14, s11
 141              		.loc 1 18 38 view .LVU27
 142 005c 66EE866A 		vmul.f32	s13, s13, s12
 143              		.loc 1 18 23 view .LVU28
 144 0060 85EEA66A 		vdiv.f32	s12, s11, s13
 145              		.loc 1 18 9 view .LVU29
 146 0064 214A     		ldr	r2, .L15+16
 147 0066 82ED006A 		vstr.32	s12, [r2]
  19:src/mode/main_mode.cpp ****       pre_p = p;
 148              		.loc 1 19 7 is_stmt 1 view .LVU30
 149              		.loc 1 19 13 is_stmt 0 view .LVU31
 150 006a 1860     		str	r0, [r3]	@ float
  20:src/mode/main_mode.cpp ****       pid = p * Kp + i * Ki + d * Kd;
 151              		.loc 1 20 7 is_stmt 1 view .LVU32
ARM GAS  /var/folders/5c/srt4fy4j1pd641bjfx75k5000000gn/T//ccIB3Md2.s 			page 4


 152              		.loc 1 20 15 is_stmt 0 view .LVU33
 153 006c F0EE046A 		vmov.f32	s13, #2.5e+0
 154 0070 67EE266A 		vmul.f32	s13, s14, s13
 155              		.loc 1 20 20 view .LVU34
 156 0074 77EEA67A 		vadd.f32	s15, s15, s13
 157              		.loc 1 20 33 view .LVU35
 158 0078 DFED1D6A 		vldr.32	s13, .L15+20
 159 007c 26EE266A 		vmul.f32	s12, s12, s13
 160              		.loc 1 20 29 view .LVU36
 161 0080 77EE867A 		vadd.f32	s15, s15, s12
 162              		.loc 1 20 11 view .LVU37
 163 0084 1B4B     		ldr	r3, .L15+24
 164 0086 C3ED007A 		vstr.32	s15, [r3]
  21:src/mode/main_mode.cpp ****       if (abs(p) < 1) i = 0.5;
 165              		.loc 1 21 7 is_stmt 1 view .LVU38
 166              		.loc 1 21 11 is_stmt 0 view .LVU39
 167 008a B5EEC07A 		vcmpe.f32	s14, #0
 168 008e F1EE10FA 		vmrs	APSR_nzcv, FPSCR
 169 0092 16DD     		ble	.L13
 170              	.L4:
 171              		.loc 1 21 7 discriminator 4 view .LVU40
 172 0094 F7EE007A 		vmov.f32	s15, #1.0e+0
 173 0098 B4EEE77A 		vcmpe.f32	s14, s15
 174 009c F1EE10FA 		vmrs	APSR_nzcv, FPSCR
 175 00a0 12D4     		bmi	.L14
 176              	.L5:
  22:src/mode/main_mode.cpp ****       left = pid * 2;
 177              		.loc 1 22 7 is_stmt 1 view .LVU41
 178              	.LVL8:
  23:src/mode/main_mode.cpp ****       right = pid * -2;
 179              		.loc 1 23 7 view .LVU42
  24:src/mode/main_mode.cpp ****       if (abs(left) > 200) left = 200 * (abs(left) / left);
 180              		.loc 1 24 7 view .LVU43
  25:src/mode/main_mode.cpp ****       if (abs(right) > 200) right = 200 * (abs(right) / right);
 181              		.loc 1 25 7 view .LVU44
  26:src/mode/main_mode.cpp ****       if (abs(robot.line.position) < 5) {
 182              		.loc 1 26 7 view .LVU45
  27:src/mode/main_mode.cpp ****             left += 120;
  28:src/mode/main_mode.cpp ****             right += 120;
  29:src/mode/main_mode.cpp ****       } else {
  30:src/mode/main_mode.cpp ****             left += 60;
  31:src/mode/main_mode.cpp ****             right += 60;
  32:src/mode/main_mode.cpp ****       }
  33:src/mode/main_mode.cpp ****       if (abs(left) > 300) left = 300 * (abs(left) / left);
 183              		.loc 1 33 7 view .LVU46
  34:src/mode/main_mode.cpp ****       if (abs(right) > 300) right = 300 * (abs(right) / right);
 184              		.loc 1 34 7 view .LVU47
  35:src/mode/main_mode.cpp ****       // robot.motor.Drive(20, 20);
  36:src/mode/main_mode.cpp ****       // printf("left = %d, right = %d\n", left, right);
  37:src/mode/main_mode.cpp **** 
  38:src/mode/main_mode.cpp ****       //  定周期処理
  39:src/mode/main_mode.cpp ****       processTime = processTimer.read_us();
 185              		.loc 1 39 7 view .LVU48
 186              		.loc 1 39 41 is_stmt 0 view .LVU49
 187 00a2 2046     		mov	r0, r4
 188 00a4 FFF7FEFF 		bl	_ZN5Timer7read_usEv
 189              	.LVL9:
ARM GAS  /var/folders/5c/srt4fy4j1pd641bjfx75k5000000gn/T//ccIB3Md2.s 			page 5


 190              		.loc 1 39 19 view .LVU50
 191 00a8 80B2     		uxth	r0, r0
 192 00aa A4F82005 		strh	r0, [r4, #1312]	@ movhi
  40:src/mode/main_mode.cpp ****       if (processTime < PERIOD_US) {
 193              		.loc 1 40 7 is_stmt 1 view .LVU51
 194 00ae B0F5FA7F 		cmp	r0, #500
 195 00b2 0ED2     		bcs	.L8
 196              	.L9:
  41:src/mode/main_mode.cpp ****             while (processTimer.read_us() < PERIOD_US);
 197              		.loc 1 41 43 discriminator 1 view .LVU52
 198              		.loc 1 41 40 is_stmt 0 discriminator 1 view .LVU53
 199 00b4 2046     		mov	r0, r4
 200 00b6 FFF7FEFF 		bl	_ZN5Timer7read_usEv
 201              	.LVL10:
 202              		.loc 1 41 43 discriminator 1 view .LVU54
 203 00ba B0F5FA7F 		cmp	r0, #500
 204 00be F9D3     		bcc	.L9
 205              	.L3:
  42:src/mode/main_mode.cpp ****       } else {
  43:src/mode/main_mode.cpp ****             printf("OverProcess! ");
  44:src/mode/main_mode.cpp ****       }
  45:src/mode/main_mode.cpp **** #ifdef DEBUG
  46:src/mode/main_mode.cpp ****       printf("ProcessTime = %d, LinePosition = %.2lf, MotorL = %.2lf, MotorR = %.2lf\n", processTim
  47:src/mode/main_mode.cpp **** #endif
  48:src/mode/main_mode.cpp **** }...
 206              		.loc 1 48 1 view .LVU55
 207 00c0 D0BD     		pop	{r4, r6, r7, pc}
 208              	.LVL11:
 209              	.L13:
  21:src/mode/main_mode.cpp ****       if (abs(p) < 1) i = 0.5;
 210              		.loc 1 21 11 discriminator 2 view .LVU56
 211 00c2 B1EE477A 		vneg.f32	s14, s14
 212 00c6 E5E7     		b	.L4
 213              	.L14:
  21:src/mode/main_mode.cpp ****       if (abs(p) < 1) i = 0.5;
 214              		.loc 1 21 23 is_stmt 1 discriminator 5 view .LVU57
  21:src/mode/main_mode.cpp ****       if (abs(p) < 1) i = 0.5;
 215              		.loc 1 21 25 is_stmt 0 discriminator 5 view .LVU58
 216 00c8 064B     		ldr	r3, .L15+8
 217 00ca 4FF07C52 		mov	r2, #1056964608
 218 00ce 1A60     		str	r2, [r3]	@ float
 219 00d0 E7E7     		b	.L5
 220              	.L8:
  43:src/mode/main_mode.cpp ****             printf("OverProcess! ");
 221              		.loc 1 43 13 is_stmt 1 view .LVU59
  43:src/mode/main_mode.cpp ****             printf("OverProcess! ");
 222              		.loc 1 43 19 is_stmt 0 view .LVU60
 223 00d2 0948     		ldr	r0, .L15+28
 224 00d4 FFF7FEFF 		bl	printf
 225              	.LVL12:
 226              		.loc 1 48 1 view .LVU61
 227 00d8 F2E7     		b	.L3
 228              	.L16:
 229 00da 00BF     		.align	2
 230              	.L15:
 231 00dc 00000000 		.word	p
 232 00e0 BD378635 		.word	897988541
ARM GAS  /var/folders/5c/srt4fy4j1pd641bjfx75k5000000gn/T//ccIB3Md2.s 			page 6


 233 00e4 00000000 		.word	i
 234 00e8 00000000 		.word	pre_p
 235 00ec 00000000 		.word	d
 236 00f0 0AD7A33C 		.word	1017370378
 237 00f4 00000000 		.word	pid
 238 00f8 00000000 		.word	.LC0
 239              		.cfi_endproc
 240              	.LFE278:
 241              		.fnend
 243              		.global	pre_p
 244              		.section	.bss.pre_p,"aw",%nobits
 245              		.align	2
 248              	pre_p:
 249 0000 00000000 		.space	4
 250              		.global	pid
 251              		.section	.bss.pid,"aw",%nobits
 252              		.align	2
 255              	pid:
 256 0000 00000000 		.space	4
 257              		.global	d
 258              		.section	.bss.d,"aw",%nobits
 259              		.align	2
 262              	d:
 263 0000 00000000 		.space	4
 264              		.global	i
 265              		.section	.bss.i,"aw",%nobits
 266              		.align	2
 269              	i:
 270 0000 00000000 		.space	4
 271              		.global	p
 272              		.section	.bss.p,"aw",%nobits
 273              		.align	2
 276              	p:
 277 0000 00000000 		.space	4
 278              		.text
 279              	.Letext0:
 280              		.file 2 "/opt/ST/STM32CubeCLT_1.16.0/GNU-tools-for-STM32/arm-none-eabi/include/machine/_default_ty
 281              		.file 3 "/opt/ST/STM32CubeCLT_1.16.0/GNU-tools-for-STM32/lib/gcc/arm-none-eabi/12.3.1/include/stdd
 282              		.file 4 "/opt/ST/STM32CubeCLT_1.16.0/GNU-tools-for-STM32/arm-none-eabi/include/sys/_types.h"
 283              		.file 5 "/opt/ST/STM32CubeCLT_1.16.0/GNU-tools-for-STM32/arm-none-eabi/include/sys/reent.h"
 284              		.file 6 "/opt/ST/STM32CubeCLT_1.16.0/GNU-tools-for-STM32/arm-none-eabi/include/sys/lock.h"
 285              		.file 7 "/opt/ST/STM32CubeCLT_1.16.0/GNU-tools-for-STM32/arm-none-eabi/include/stdio.h"
 286              		.file 8 "/opt/ST/STM32CubeCLT_1.16.0/GNU-tools-for-STM32/arm-none-eabi/include/sys/_stdint.h"
 287              		.file 9 "Drivers/CMSIS/Device/ST/STM32F4xx/Include/stm32f446xx.h"
 288              		.file 10 "Drivers/CMSIS/Device/ST/STM32F4xx/Include/stm32f4xx.h"
 289              		.file 11 "Drivers/STM32F4xx_HAL_Driver/Inc/stm32f4xx_hal_def.h"
 290              		.file 12 "Drivers/STM32F4xx_HAL_Driver/Inc/stm32f4xx_hal_dma.h"
 291              		.file 13 "Drivers/STM32F4xx_HAL_Driver/Inc/stm32f4xx_hal_tim.h"
 292              		.file 14 "Drivers/STM32F4xx_HAL_Driver/Inc/stm32f4xx_hal_uart.h"
 293              		.file 15 "Drivers/STM32F4xx_HAL_Driver/Inc/stm32f4xx_hal.h"
 294              		.file 16 "Lib/BufferedSerial/BufferedSerial.hpp"
 295              		.file 17 "Lib/DigitalInOut/DigitalInOut.hpp"
 296              		.file 18 "Lib/Timer/Timer.hpp"
 297              		.file 19 "Lib/Button/Button.hpp"
 298              		.file 20 "Lib/Buzzer/Buzzer.hpp"
 299              		.file 21 "Lib/MovingAve/MovingAve.hpp"
 300              		.file 22 "/opt/ST/STM32CubeCLT_1.16.0/GNU-tools-for-STM32/arm-none-eabi/include/c++/12.3.1/cstdio"
ARM GAS  /var/folders/5c/srt4fy4j1pd641bjfx75k5000000gn/T//ccIB3Md2.s 			page 7


 301              		.file 23 "/opt/ST/STM32CubeCLT_1.16.0/GNU-tools-for-STM32/arm-none-eabi/include/c++/12.3.1/arm-non
 302              		.file 24 "Lib/PWMSingle/PWMSingle.hpp"
 303              		.file 25 "src/unit/motor_drive.hpp"
 304              		.file 26 "src/unit/robot.hpp"
 305              		.file 27 "src/mode/main_mode.hpp"
ARM GAS  /var/folders/5c/srt4fy4j1pd641bjfx75k5000000gn/T//ccIB3Md2.s 			page 8


DEFINED SYMBOLS
                            *ABS*:00000000 main_mode.cpp
/var/folders/5c/srt4fy4j1pd641bjfx75k5000000gn/T//ccIB3Md2.s:21     .text._ZN8MainModeC2Ev:00000000 $t
/var/folders/5c/srt4fy4j1pd641bjfx75k5000000gn/T//ccIB3Md2.s:27     .text._ZN8MainModeC2Ev:00000000 _ZN8MainModeC2Ev
 .ARM.exidx.text._ZN8MainModeC2Ev:00000000 $d
/var/folders/5c/srt4fy4j1pd641bjfx75k5000000gn/T//ccIB3Md2.s:27     .text._ZN8MainModeC2Ev:00000000 _ZN8MainModeC1Ev
/var/folders/5c/srt4fy4j1pd641bjfx75k5000000gn/T//ccIB3Md2.s:65     .rodata._ZN8MainMode4loopEv.str1.4:00000000 $d
/var/folders/5c/srt4fy4j1pd641bjfx75k5000000gn/T//ccIB3Md2.s:69     .text._ZN8MainMode4loopEv:00000000 $t
/var/folders/5c/srt4fy4j1pd641bjfx75k5000000gn/T//ccIB3Md2.s:75     .text._ZN8MainMode4loopEv:00000000 _ZN8MainMode4loopEv
/var/folders/5c/srt4fy4j1pd641bjfx75k5000000gn/T//ccIB3Md2.s:231    .text._ZN8MainMode4loopEv:000000dc $d
/var/folders/5c/srt4fy4j1pd641bjfx75k5000000gn/T//ccIB3Md2.s:276    .bss.p:00000000 p
/var/folders/5c/srt4fy4j1pd641bjfx75k5000000gn/T//ccIB3Md2.s:269    .bss.i:00000000 i
/var/folders/5c/srt4fy4j1pd641bjfx75k5000000gn/T//ccIB3Md2.s:248    .bss.pre_p:00000000 pre_p
/var/folders/5c/srt4fy4j1pd641bjfx75k5000000gn/T//ccIB3Md2.s:262    .bss.d:00000000 d
/var/folders/5c/srt4fy4j1pd641bjfx75k5000000gn/T//ccIB3Md2.s:255    .bss.pid:00000000 pid
.ARM.exidx.text._ZN8MainMode4loopEv:00000000 $d
/var/folders/5c/srt4fy4j1pd641bjfx75k5000000gn/T//ccIB3Md2.s:245    .bss.pre_p:00000000 $d
/var/folders/5c/srt4fy4j1pd641bjfx75k5000000gn/T//ccIB3Md2.s:252    .bss.pid:00000000 $d
/var/folders/5c/srt4fy4j1pd641bjfx75k5000000gn/T//ccIB3Md2.s:259    .bss.d:00000000 $d
/var/folders/5c/srt4fy4j1pd641bjfx75k5000000gn/T//ccIB3Md2.s:266    .bss.i:00000000 $d
/var/folders/5c/srt4fy4j1pd641bjfx75k5000000gn/T//ccIB3Md2.s:273    .bss.p:00000000 $d

UNDEFINED SYMBOLS
_ZN5TimerC1Ev
_ZN5RobotC1Ev
__aeabi_unwind_cpp_pr0
__aeabi_d2f
__aeabi_dcmpgt
_ZN5Timer5resetEv
_ZN10MotorDrive14EncoderComputeEv
_ZN5Robot10getSensorsEv
_ZN5Timer7read_usEv
printf
