ARM GAS  /var/folders/5c/srt4fy4j1pd641bjfx75k5000000gn/T//ccUnEql8.s 			page 1


   1              		.cpu cortex-m4
   2              		.arch armv7e-m
   3              		.fpu fpv4-sp-d16
   4              		.eabi_attribute 27, 1
   5              		.eabi_attribute 28, 1
   6              		.eabi_attribute 20, 1
   7              		.eabi_attribute 21, 1
   8              		.eabi_attribute 23, 3
   9              		.eabi_attribute 24, 1
  10              		.eabi_attribute 25, 1
  11              		.eabi_attribute 26, 1
  12              		.eabi_attribute 30, 1
  13              		.eabi_attribute 34, 1
  14              		.eabi_attribute 18, 4
  15              		.file	"mainMode.cpp"
  16              		.text
  17              	.Ltext0:
  18              		.cfi_sections	.debug_frame
  19              		.file 1 "src/mode/mainMode.cpp"
  20              		.section	.text._ZN8MainModeC2Ev,"ax",%progbits
  21              		.align	1
  22              		.global	_ZN8MainModeC2Ev
  23              		.syntax unified
  24              		.thumb
  25              		.thumb_func
  27              	_ZN8MainModeC2Ev:
  28              		.fnstart
  29              	.LVL0:
  30              	.LFB267:
   1:src/mode/mainMode.cpp **** #include "mainMode.hpp"
   2:src/mode/mainMode.cpp **** 
   3:src/mode/mainMode.cpp **** MainMode::MainMode() {
  31              		.loc 1 3 1 view -0
  32              		.cfi_startproc
  33              		@ args = 0, pretend = 0, frame = 0
  34              		@ frame_needed = 0, uses_anonymous_args = 0
  35              		.loc 1 3 1 is_stmt 0 view .LVU1
  36 0000 10B5     		push	{r4, lr}
  37              		.save {r4, lr}
  38              	.LCFI0:
  39              		.cfi_def_cfa_offset 8
  40              		.cfi_offset 4, -8
  41              		.cfi_offset 14, -4
  42 0002 0446     		mov	r4, r0
  43              	.LBB2:
  44              		.loc 1 3 20 view .LVU2
  45 0004 FFF7FEFF 		bl	_ZN5TimerC1Ev
  46              	.LVL1:
  47              		.loc 1 3 20 view .LVU3
  48 0008 201D     		adds	r0, r4, #4
  49 000a FFF7FEFF 		bl	_ZN5RobotC1Ev
  50              	.LVL2:
  51              	.LBE2:
   4:src/mode/mainMode.cpp **** }
  52              		.loc 1 4 1 view .LVU4
  53 000e 2046     		mov	r0, r4
  54 0010 10BD     		pop	{r4, pc}
ARM GAS  /var/folders/5c/srt4fy4j1pd641bjfx75k5000000gn/T//ccUnEql8.s 			page 2


  55              		.loc 1 4 1 view .LVU5
  56              		.cfi_endproc
  57              	.LFE267:
  58              		.fnend
  60              		.global	_ZN8MainModeC1Ev
  61              		.thumb_set _ZN8MainModeC1Ev,_ZN8MainModeC2Ev
  62              		.section	.rodata._ZN8MainMode4loopEv.str1.4,"aMS",%progbits,1
  63              		.align	2
  64              	.LC0:
  65 0000 25640A00 		.ascii	"%d\012\000"
  66              		.section	.text._ZN8MainMode4loopEv,"ax",%progbits
  67              		.align	1
  68              		.global	_ZN8MainMode4loopEv
  69              		.syntax unified
  70              		.thumb
  71              		.thumb_func
  73              	_ZN8MainMode4loopEv:
  74              		.fnstart
  75              	.LVL3:
  76              	.LFB269:
   5:src/mode/mainMode.cpp **** 
   6:src/mode/mainMode.cpp **** void MainMode::loop() {
  77              		.loc 1 6 23 is_stmt 1 view -0
  78              		.cfi_startproc
  79              		@ args = 0, pretend = 0, frame = 0
  80              		@ frame_needed = 0, uses_anonymous_args = 0
  81              		.loc 1 6 23 is_stmt 0 view .LVU7
  82 0000 38B5     		push	{r3, r4, r5, lr}
  83              		.save {r3, r4, r5, lr}
  84              	.LCFI1:
  85              		.cfi_def_cfa_offset 16
  86              		.cfi_offset 3, -16
  87              		.cfi_offset 4, -12
  88              		.cfi_offset 5, -8
  89              		.cfi_offset 14, -4
  90 0002 0446     		mov	r4, r0
   7:src/mode/mainMode.cpp ****       timer.reset();
  91              		.loc 1 7 7 is_stmt 1 view .LVU8
  92              		.loc 1 7 18 is_stmt 0 view .LVU9
  93 0004 FFF7FEFF 		bl	_ZN5Timer5resetEv
  94              	.LVL4:
   8:src/mode/mainMode.cpp ****       robot.motor.encoderCompute();
  95              		.loc 1 8 7 is_stmt 1 view .LVU10
  96              		.loc 1 8 33 is_stmt 0 view .LVU11
  97 0008 04F58475 		add	r5, r4, #264
  98 000c 2846     		mov	r0, r5
  99 000e FFF7FEFF 		bl	_ZN10MotorDrive14encoderComputeEv
 100              	.LVL5:
   9:src/mode/mainMode.cpp ****       robot.getSensors();
 101              		.loc 1 9 7 is_stmt 1 view .LVU12
 102              		.loc 1 9 23 is_stmt 0 view .LVU13
 103 0012 201D     		adds	r0, r4, #4
 104 0014 FFF7FEFF 		bl	_ZN5Robot10getSensorsEv
 105              	.LVL6:
  10:src/mode/mainMode.cpp ****       // printf("LinePosition = %d\n", robot.line.position);
  11:src/mode/mainMode.cpp ****       robot.motor.drive(30, 0);
 106              		.loc 1 11 7 is_stmt 1 view .LVU14
ARM GAS  /var/folders/5c/srt4fy4j1pd641bjfx75k5000000gn/T//ccUnEql8.s 			page 3


 107              		.loc 1 11 24 is_stmt 0 view .LVU15
 108 0018 0022     		movs	r2, #0
 109 001a 1E21     		movs	r1, #30
 110 001c 2846     		mov	r0, r5
 111 001e FFF7FEFF 		bl	_ZN10MotorDrive5driveEaa
 112              	.LVL7:
  12:src/mode/mainMode.cpp ****       printf("%d\n", timer.read_us());
 113              		.loc 1 12 7 is_stmt 1 view .LVU16
 114              		.loc 1 12 13 is_stmt 0 view .LVU17
 115 0022 2046     		mov	r0, r4
 116 0024 FFF7FEFF 		bl	_ZN5Timer7read_usEv
 117              	.LVL8:
 118 0028 0146     		mov	r1, r0
 119 002a 0848     		ldr	r0, .L7
 120 002c FFF7FEFF 		bl	printf
 121              	.LVL9:
  13:src/mode/mainMode.cpp ****       if (timer.read_us() < 100) HAL_Delay(100 - timer.read_us());  // 1ms time control
 122              		.loc 1 13 7 is_stmt 1 view .LVU18
 123              		.loc 1 13 24 is_stmt 0 view .LVU19
 124 0030 2046     		mov	r0, r4
 125 0032 FFF7FEFF 		bl	_ZN5Timer7read_usEv
 126              	.LVL10:
 127              		.loc 1 13 7 view .LVU20
 128 0036 6328     		cmp	r0, #99
 129 0038 00D9     		bls	.L6
 130              	.L3:
  14:src/mode/mainMode.cpp **** }...
 131              		.loc 1 14 1 view .LVU21
 132 003a 38BD     		pop	{r3, r4, r5, pc}
 133              	.LVL11:
 134              	.L6:
  13:src/mode/mainMode.cpp ****       if (timer.read_us() < 100) HAL_Delay(100 - timer.read_us());  // 1ms time control
 135              		.loc 1 13 34 is_stmt 1 discriminator 1 view .LVU22
  13:src/mode/mainMode.cpp ****       if (timer.read_us() < 100) HAL_Delay(100 - timer.read_us());  // 1ms time control
 136              		.loc 1 13 63 is_stmt 0 discriminator 1 view .LVU23
 137 003c 2046     		mov	r0, r4
 138 003e FFF7FEFF 		bl	_ZN5Timer7read_usEv
 139              	.LVL12:
  13:src/mode/mainMode.cpp ****       if (timer.read_us() < 100) HAL_Delay(100 - timer.read_us());  // 1ms time control
 140              		.loc 1 13 43 discriminator 1 view .LVU24
 141 0042 C0F16400 		rsb	r0, r0, #100
 142 0046 FFF7FEFF 		bl	HAL_Delay
 143              	.LVL13:
 144              		.loc 1 14 1 discriminator 1 view .LVU25
 145 004a F6E7     		b	.L3
 146              	.L8:
 147              		.align	2
 148              	.L7:
 149 004c 00000000 		.word	.LC0
 150              		.cfi_endproc
 151              	.LFE269:
 152              		.fnend
 154              		.text
 155              	.Letext0:
 156              		.file 2 "/opt/ST/STM32CubeCLT_1.16.0/GNU-tools-for-STM32/arm-none-eabi/include/machine/_default_ty
 157              		.file 3 "/opt/ST/STM32CubeCLT_1.16.0/GNU-tools-for-STM32/arm-none-eabi/include/sys/_stdint.h"
 158              		.file 4 "Drivers/CMSIS/Device/ST/STM32F4xx/Include/stm32f446xx.h"
ARM GAS  /var/folders/5c/srt4fy4j1pd641bjfx75k5000000gn/T//ccUnEql8.s 			page 4


 159              		.file 5 "/opt/ST/STM32CubeCLT_1.16.0/GNU-tools-for-STM32/lib/gcc/arm-none-eabi/12.3.1/include/stdd
 160              		.file 6 "Drivers/STM32F4xx_HAL_Driver/Inc/stm32f4xx_hal_def.h"
 161              		.file 7 "Drivers/STM32F4xx_HAL_Driver/Inc/stm32f4xx_hal_dma.h"
 162              		.file 8 "Drivers/STM32F4xx_HAL_Driver/Inc/stm32f4xx_hal_tim.h"
 163              		.file 9 "Lib/DigitalInOut/DigitalInOut.hpp"
 164              		.file 10 "Lib/Timer/Timer.hpp"
 165              		.file 11 "Lib/Button/Button.hpp"
 166              		.file 12 "Lib/Buzzer/Buzzer.hpp"
 167              		.file 13 "/opt/ST/STM32CubeCLT_1.16.0/GNU-tools-for-STM32/arm-none-eabi/include/c++/12.3.1/cstdio"
 168              		.file 14 "/opt/ST/STM32CubeCLT_1.16.0/GNU-tools-for-STM32/arm-none-eabi/include/c++/12.3.1/arm-non
 169              		.file 15 "/opt/ST/STM32CubeCLT_1.16.0/GNU-tools-for-STM32/arm-none-eabi/include/sys/_types.h"
 170              		.file 16 "/opt/ST/STM32CubeCLT_1.16.0/GNU-tools-for-STM32/arm-none-eabi/include/sys/reent.h"
 171              		.file 17 "/opt/ST/STM32CubeCLT_1.16.0/GNU-tools-for-STM32/arm-none-eabi/include/sys/lock.h"
 172              		.file 18 "/opt/ST/STM32CubeCLT_1.16.0/GNU-tools-for-STM32/arm-none-eabi/include/stdio.h"
 173              		.file 19 "Lib/PWMSingle/PWMSingle.hpp"
 174              		.file 20 "src/unit/motorDrive.hpp"
 175              		.file 21 "src/unit/robot.hpp"
 176              		.file 22 "src/mode/mainMode.hpp"
 177              		.file 23 "Drivers/STM32F4xx_HAL_Driver/Inc/stm32f4xx_hal.h"
ARM GAS  /var/folders/5c/srt4fy4j1pd641bjfx75k5000000gn/T//ccUnEql8.s 			page 5


DEFINED SYMBOLS
                            *ABS*:00000000 mainMode.cpp
/var/folders/5c/srt4fy4j1pd641bjfx75k5000000gn/T//ccUnEql8.s:21     .text._ZN8MainModeC2Ev:00000000 $t
/var/folders/5c/srt4fy4j1pd641bjfx75k5000000gn/T//ccUnEql8.s:27     .text._ZN8MainModeC2Ev:00000000 _ZN8MainModeC2Ev
 .ARM.exidx.text._ZN8MainModeC2Ev:00000000 $d
/var/folders/5c/srt4fy4j1pd641bjfx75k5000000gn/T//ccUnEql8.s:27     .text._ZN8MainModeC2Ev:00000000 _ZN8MainModeC1Ev
/var/folders/5c/srt4fy4j1pd641bjfx75k5000000gn/T//ccUnEql8.s:63     .rodata._ZN8MainMode4loopEv.str1.4:00000000 $d
/var/folders/5c/srt4fy4j1pd641bjfx75k5000000gn/T//ccUnEql8.s:67     .text._ZN8MainMode4loopEv:00000000 $t
/var/folders/5c/srt4fy4j1pd641bjfx75k5000000gn/T//ccUnEql8.s:73     .text._ZN8MainMode4loopEv:00000000 _ZN8MainMode4loopEv
/var/folders/5c/srt4fy4j1pd641bjfx75k5000000gn/T//ccUnEql8.s:149    .text._ZN8MainMode4loopEv:0000004c $d
.ARM.exidx.text._ZN8MainMode4loopEv:00000000 $d

UNDEFINED SYMBOLS
_ZN5TimerC1Ev
_ZN5RobotC1Ev
__aeabi_unwind_cpp_pr0
_ZN5Timer5resetEv
_ZN10MotorDrive14encoderComputeEv
_ZN5Robot10getSensorsEv
_ZN10MotorDrive5driveEaa
_ZN5Timer7read_usEv
printf
HAL_Delay
