ARM GAS  /var/folders/5c/srt4fy4j1pd641bjfx75k5000000gn/T//ccXBtsOw.s 			page 1


   1              		.cpu cortex-m4
   2              		.arch armv7e-m
   3              		.fpu fpv4-sp-d16
   4              		.eabi_attribute 27, 1
   5              		.eabi_attribute 28, 1
   6              		.eabi_attribute 20, 1
   7              		.eabi_attribute 21, 1
   8              		.eabi_attribute 23, 3
   9              		.eabi_attribute 24, 1
  10              		.eabi_attribute 25, 1
  11              		.eabi_attribute 26, 1
  12              		.eabi_attribute 30, 1
  13              		.eabi_attribute 34, 1
  14              		.eabi_attribute 18, 4
  15              		.file	"mainMode.cpp"
  16              		.text
  17              	.Ltext0:
  18              		.cfi_sections	.debug_frame
  19              		.file 1 "src/mode/mainMode.cpp"
  20              		.section	.text._ZN8MainModeC2Ev,"ax",%progbits
  21              		.align	1
  22              		.global	_ZN8MainModeC2Ev
  23              		.syntax unified
  24              		.thumb
  25              		.thumb_func
  27              	_ZN8MainModeC2Ev:
  28              		.fnstart
  29              	.LVL0:
  30              	.LFB267:
   1:src/mode/mainMode.cpp **** #include "mainMode.hpp"
   2:src/mode/mainMode.cpp **** 
   3:src/mode/mainMode.cpp **** // #define DEBUG
   4:src/mode/mainMode.cpp **** 
   5:src/mode/mainMode.cpp **** MainMode::MainMode() {
  31              		.loc 1 5 1 view -0
  32              		.cfi_startproc
  33              		@ args = 0, pretend = 0, frame = 0
  34              		@ frame_needed = 0, uses_anonymous_args = 0
  35              		.loc 1 5 1 is_stmt 0 view .LVU1
  36 0000 10B5     		push	{r4, lr}
  37              		.save {r4, lr}
  38              	.LCFI0:
  39              		.cfi_def_cfa_offset 8
  40              		.cfi_offset 4, -8
  41              		.cfi_offset 14, -4
  42 0002 0446     		mov	r4, r0
  43              	.LBB2:
  44              		.loc 1 5 20 view .LVU2
  45 0004 FFF7FEFF 		bl	_ZN5TimerC1Ev
  46              	.LVL1:
  47              		.loc 1 5 20 view .LVU3
  48 0008 04F10800 		add	r0, r4, #8
  49 000c FFF7FEFF 		bl	_ZN5RobotC1Ev
  50              	.LVL2:
  51              	.LBE2:
   6:src/mode/mainMode.cpp **** }
  52              		.loc 1 6 1 view .LVU4
ARM GAS  /var/folders/5c/srt4fy4j1pd641bjfx75k5000000gn/T//ccXBtsOw.s 			page 2


  53 0010 2046     		mov	r0, r4
  54 0012 10BD     		pop	{r4, pc}
  55              		.loc 1 6 1 view .LVU5
  56              		.cfi_endproc
  57              	.LFE267:
  58              		.fnend
  60              		.global	_ZN8MainModeC1Ev
  61              		.thumb_set _ZN8MainModeC1Ev,_ZN8MainModeC2Ev
  62              		.section	.rodata._ZN8MainMode4loopEv.str1.4,"aMS",%progbits,1
  63              		.align	2
  64              	.LC0:
  65 0000 4F766572 		.ascii	"OverProcess! \000"
  65      50726F63 
  65      65737321 
  65      2000
  66              		.section	.text._ZN8MainMode4loopEv,"ax",%progbits
  67              		.align	1
  68              		.global	_ZN8MainMode4loopEv
  69              		.syntax unified
  70              		.thumb
  71              		.thumb_func
  73              	_ZN8MainMode4loopEv:
  74              		.fnstart
  75              	.LVL3:
  76              	.LFB269:
   7:src/mode/mainMode.cpp **** 
   8:src/mode/mainMode.cpp **** void MainMode::loop() {
  77              		.loc 1 8 23 is_stmt 1 view -0
  78              		.cfi_startproc
  79              		@ args = 0, pretend = 0, frame = 0
  80              		@ frame_needed = 0, uses_anonymous_args = 0
  81              		.loc 1 8 23 is_stmt 0 view .LVU7
  82 0000 38B5     		push	{r3, r4, r5, lr}
  83              		.save {r3, r4, r5, lr}
  84              	.LCFI1:
  85              		.cfi_def_cfa_offset 16
  86              		.cfi_offset 3, -16
  87              		.cfi_offset 4, -12
  88              		.cfi_offset 5, -8
  89              		.cfi_offset 14, -4
  90 0002 0446     		mov	r4, r0
   9:src/mode/mainMode.cpp ****       processTimer.reset();
  91              		.loc 1 9 7 is_stmt 1 view .LVU8
  92              		.loc 1 9 25 is_stmt 0 view .LVU9
  93 0004 FFF7FEFF 		bl	_ZN5Timer5resetEv
  94              	.LVL4:
  10:src/mode/mainMode.cpp ****       robot.motor.encoderCompute();
  95              		.loc 1 10 7 is_stmt 1 view .LVU10
  96              		.loc 1 10 33 is_stmt 0 view .LVU11
  97 0008 04F58875 		add	r5, r4, #272
  98 000c 2846     		mov	r0, r5
  99 000e FFF7FEFF 		bl	_ZN10MotorDrive14encoderComputeEv
 100              	.LVL5:
  11:src/mode/mainMode.cpp ****       robot.getSensors();
 101              		.loc 1 11 7 is_stmt 1 view .LVU12
 102              		.loc 1 11 23 is_stmt 0 view .LVU13
 103 0012 04F10800 		add	r0, r4, #8
ARM GAS  /var/folders/5c/srt4fy4j1pd641bjfx75k5000000gn/T//ccXBtsOw.s 			page 3


 104 0016 FFF7FEFF 		bl	_ZN5Robot10getSensorsEv
 105              	.LVL6:
  12:src/mode/mainMode.cpp ****       robot.motor.drive(150, 150);
 106              		.loc 1 12 7 is_stmt 1 view .LVU14
 107              		.loc 1 12 24 is_stmt 0 view .LVU15
 108 001a 9622     		movs	r2, #150
 109 001c 1146     		mov	r1, r2
 110 001e 2846     		mov	r0, r5
 111 0020 FFF7FEFF 		bl	_ZN10MotorDrive5driveEss
 112              	.LVL7:
  13:src/mode/mainMode.cpp **** 
  14:src/mode/mainMode.cpp ****       // 定周期処理
  15:src/mode/mainMode.cpp ****       processTime = processTimer.read_us();
 113              		.loc 1 15 7 is_stmt 1 view .LVU16
 114              		.loc 1 15 41 is_stmt 0 view .LVU17
 115 0024 2046     		mov	r0, r4
 116 0026 FFF7FEFF 		bl	_ZN5Timer7read_usEv
 117              	.LVL8:
 118              		.loc 1 15 19 view .LVU18
 119 002a 80B2     		uxth	r0, r0
 120 002c A4F8B801 		strh	r0, [r4, #440]	@ movhi
  16:src/mode/mainMode.cpp ****       if (processTime < PERIOD_US) {
 121              		.loc 1 16 7 is_stmt 1 view .LVU19
 122 0030 C728     		cmp	r0, #199
 123 0032 05D8     		bhi	.L4
 124              	.L5:
  17:src/mode/mainMode.cpp ****             while (processTimer.read_us() < PERIOD_US);
 125              		.loc 1 17 43 discriminator 1 view .LVU20
 126              		.loc 1 17 40 is_stmt 0 discriminator 1 view .LVU21
 127 0034 2046     		mov	r0, r4
 128 0036 FFF7FEFF 		bl	_ZN5Timer7read_usEv
 129              	.LVL9:
 130              		.loc 1 17 43 discriminator 1 view .LVU22
 131 003a C728     		cmp	r0, #199
 132 003c FAD9     		bls	.L5
 133              	.L3:
  18:src/mode/mainMode.cpp ****       } else {
  19:src/mode/mainMode.cpp ****             printf("OverProcess! ");
  20:src/mode/mainMode.cpp ****       }
  21:src/mode/mainMode.cpp **** }...
 134              		.loc 1 21 1 view .LVU23
 135 003e 38BD     		pop	{r3, r4, r5, pc}
 136              	.LVL10:
 137              	.L4:
  19:src/mode/mainMode.cpp ****             printf("OverProcess! ");
 138              		.loc 1 19 13 is_stmt 1 view .LVU24
  19:src/mode/mainMode.cpp ****             printf("OverProcess! ");
 139              		.loc 1 19 19 is_stmt 0 view .LVU25
 140 0040 0148     		ldr	r0, .L8
 141 0042 FFF7FEFF 		bl	printf
 142              	.LVL11:
 143              		.loc 1 21 1 view .LVU26
 144 0046 FAE7     		b	.L3
 145              	.L9:
 146              		.align	2
 147              	.L8:
 148 0048 00000000 		.word	.LC0
ARM GAS  /var/folders/5c/srt4fy4j1pd641bjfx75k5000000gn/T//ccXBtsOw.s 			page 4


 149              		.cfi_endproc
 150              	.LFE269:
 151              		.fnend
 153              		.text
 154              	.Letext0:
 155              		.file 2 "/opt/ST/STM32CubeCLT_1.16.0/GNU-tools-for-STM32/arm-none-eabi/include/machine/_default_ty
 156              		.file 3 "/opt/ST/STM32CubeCLT_1.16.0/GNU-tools-for-STM32/arm-none-eabi/include/sys/_stdint.h"
 157              		.file 4 "Drivers/CMSIS/Device/ST/STM32F4xx/Include/stm32f446xx.h"
 158              		.file 5 "/opt/ST/STM32CubeCLT_1.16.0/GNU-tools-for-STM32/lib/gcc/arm-none-eabi/12.3.1/include/stdd
 159              		.file 6 "Drivers/STM32F4xx_HAL_Driver/Inc/stm32f4xx_hal_def.h"
 160              		.file 7 "Drivers/STM32F4xx_HAL_Driver/Inc/stm32f4xx_hal_dma.h"
 161              		.file 8 "Drivers/STM32F4xx_HAL_Driver/Inc/stm32f4xx_hal_tim.h"
 162              		.file 9 "Lib/DigitalInOut/DigitalInOut.hpp"
 163              		.file 10 "Lib/Timer/Timer.hpp"
 164              		.file 11 "Lib/Button/Button.hpp"
 165              		.file 12 "Lib/Buzzer/Buzzer.hpp"
 166              		.file 13 "/opt/ST/STM32CubeCLT_1.16.0/GNU-tools-for-STM32/arm-none-eabi/include/c++/12.3.1/cstdio"
 167              		.file 14 "/opt/ST/STM32CubeCLT_1.16.0/GNU-tools-for-STM32/arm-none-eabi/include/c++/12.3.1/arm-non
 168              		.file 15 "/opt/ST/STM32CubeCLT_1.16.0/GNU-tools-for-STM32/arm-none-eabi/include/sys/_types.h"
 169              		.file 16 "/opt/ST/STM32CubeCLT_1.16.0/GNU-tools-for-STM32/arm-none-eabi/include/sys/reent.h"
 170              		.file 17 "/opt/ST/STM32CubeCLT_1.16.0/GNU-tools-for-STM32/arm-none-eabi/include/sys/lock.h"
 171              		.file 18 "/opt/ST/STM32CubeCLT_1.16.0/GNU-tools-for-STM32/arm-none-eabi/include/stdio.h"
 172              		.file 19 "Lib/PWMSingle/PWMSingle.hpp"
 173              		.file 20 "src/unit/motorDrive.hpp"
 174              		.file 21 "src/unit/robot.hpp"
 175              		.file 22 "src/mode/mainMode.hpp"
ARM GAS  /var/folders/5c/srt4fy4j1pd641bjfx75k5000000gn/T//ccXBtsOw.s 			page 5


DEFINED SYMBOLS
                            *ABS*:00000000 mainMode.cpp
/var/folders/5c/srt4fy4j1pd641bjfx75k5000000gn/T//ccXBtsOw.s:21     .text._ZN8MainModeC2Ev:00000000 $t
/var/folders/5c/srt4fy4j1pd641bjfx75k5000000gn/T//ccXBtsOw.s:27     .text._ZN8MainModeC2Ev:00000000 _ZN8MainModeC2Ev
 .ARM.exidx.text._ZN8MainModeC2Ev:00000000 $d
/var/folders/5c/srt4fy4j1pd641bjfx75k5000000gn/T//ccXBtsOw.s:27     .text._ZN8MainModeC2Ev:00000000 _ZN8MainModeC1Ev
/var/folders/5c/srt4fy4j1pd641bjfx75k5000000gn/T//ccXBtsOw.s:63     .rodata._ZN8MainMode4loopEv.str1.4:00000000 $d
/var/folders/5c/srt4fy4j1pd641bjfx75k5000000gn/T//ccXBtsOw.s:67     .text._ZN8MainMode4loopEv:00000000 $t
/var/folders/5c/srt4fy4j1pd641bjfx75k5000000gn/T//ccXBtsOw.s:73     .text._ZN8MainMode4loopEv:00000000 _ZN8MainMode4loopEv
/var/folders/5c/srt4fy4j1pd641bjfx75k5000000gn/T//ccXBtsOw.s:148    .text._ZN8MainMode4loopEv:00000048 $d
.ARM.exidx.text._ZN8MainMode4loopEv:00000000 $d

UNDEFINED SYMBOLS
_ZN5TimerC1Ev
_ZN5RobotC1Ev
__aeabi_unwind_cpp_pr0
_ZN5Timer5resetEv
_ZN10MotorDrive14encoderComputeEv
_ZN5Robot10getSensorsEv
_ZN10MotorDrive5driveEss
_ZN5Timer7read_usEv
printf
