ARM GAS  /var/folders/5c/srt4fy4j1pd641bjfx75k5000000gn/T//ccRLCbNs.s 			page 1


   1              		.cpu cortex-m4
   2              		.arch armv7e-m
   3              		.fpu fpv4-sp-d16
   4              		.eabi_attribute 27, 1
   5              		.eabi_attribute 28, 1
   6              		.eabi_attribute 20, 1
   7              		.eabi_attribute 21, 1
   8              		.eabi_attribute 23, 3
   9              		.eabi_attribute 24, 1
  10              		.eabi_attribute 25, 1
  11              		.eabi_attribute 26, 1
  12              		.eabi_attribute 30, 1
  13              		.eabi_attribute 34, 1
  14              		.eabi_attribute 18, 4
  15              		.file	"mainMode.cpp"
  16              		.text
  17              	.Ltext0:
  18              		.cfi_sections	.debug_frame
  19              		.file 1 "src/mode/mainMode.cpp"
  20              		.section	.text._ZN8MainModeC2Ev,"ax",%progbits
  21              		.align	1
  22              		.global	_ZN8MainModeC2Ev
  23              		.syntax unified
  24              		.thumb
  25              		.thumb_func
  27              	_ZN8MainModeC2Ev:
  28              		.fnstart
  29              	.LVL0:
  30              	.LFB267:
   1:src/mode/mainMode.cpp **** #include "mainMode.hpp"
   2:src/mode/mainMode.cpp **** 
   3:src/mode/mainMode.cpp **** // #define DEBUG
   4:src/mode/mainMode.cpp **** 
   5:src/mode/mainMode.cpp **** MainMode::MainMode() {
  31              		.loc 1 5 1 view -0
  32              		.cfi_startproc
  33              		@ args = 0, pretend = 0, frame = 0
  34              		@ frame_needed = 0, uses_anonymous_args = 0
  35              		.loc 1 5 1 is_stmt 0 view .LVU1
  36 0000 10B5     		push	{r4, lr}
  37              		.save {r4, lr}
  38              	.LCFI0:
  39              		.cfi_def_cfa_offset 8
  40              		.cfi_offset 4, -8
  41              		.cfi_offset 14, -4
  42 0002 0446     		mov	r4, r0
  43              	.LBB2:
  44              		.loc 1 5 20 view .LVU2
  45 0004 FFF7FEFF 		bl	_ZN5TimerC1Ev
  46              	.LVL1:
  47              		.loc 1 5 20 view .LVU3
  48 0008 04F10800 		add	r0, r4, #8
  49 000c FFF7FEFF 		bl	_ZN5RobotC1Ev
  50              	.LVL2:
  51              	.LBE2:
   6:src/mode/mainMode.cpp **** }
  52              		.loc 1 6 1 view .LVU4
ARM GAS  /var/folders/5c/srt4fy4j1pd641bjfx75k5000000gn/T//ccRLCbNs.s 			page 2


  53 0010 2046     		mov	r0, r4
  54 0012 10BD     		pop	{r4, pc}
  55              		.loc 1 6 1 view .LVU5
  56              		.cfi_endproc
  57              	.LFE267:
  58              		.fnend
  60              		.global	_ZN8MainModeC1Ev
  61              		.thumb_set _ZN8MainModeC1Ev,_ZN8MainModeC2Ev
  62              		.section	.rodata._ZN8MainMode4loopEv.str1.4,"aMS",%progbits,1
  63              		.align	2
  64              	.LC0:
  65 0000 4F766572 		.ascii	"OverProcess! \000"
  65      50726F63 
  65      65737321 
  65      2000
  66              		.section	.text._ZN8MainMode4loopEv,"ax",%progbits
  67              		.align	1
  68              		.global	_ZN8MainMode4loopEv
  69              		.syntax unified
  70              		.thumb
  71              		.thumb_func
  73              	_ZN8MainMode4loopEv:
  74              		.fnstart
  75              	.LVL3:
  76              	.LFB269:
   7:src/mode/mainMode.cpp **** float p, i, d, pid, pre_p;
   8:src/mode/mainMode.cpp **** void MainMode::loop() {
  77              		.loc 1 8 23 is_stmt 1 view -0
  78              		.cfi_startproc
  79              		@ args = 0, pretend = 0, frame = 0
  80              		@ frame_needed = 0, uses_anonymous_args = 0
  81              		.loc 1 8 23 is_stmt 0 view .LVU7
  82 0000 38B5     		push	{r3, r4, r5, lr}
  83              		.save {r3, r4, r5, lr}
  84              	.LCFI1:
  85              		.cfi_def_cfa_offset 16
  86              		.cfi_offset 3, -16
  87              		.cfi_offset 4, -12
  88              		.cfi_offset 5, -8
  89              		.cfi_offset 14, -4
  90 0002 0446     		mov	r4, r0
   9:src/mode/mainMode.cpp ****       processTimer.reset();
  91              		.loc 1 9 7 is_stmt 1 view .LVU8
  92              		.loc 1 9 25 is_stmt 0 view .LVU9
  93 0004 FFF7FEFF 		bl	_ZN5Timer5resetEv
  94              	.LVL4:
  10:src/mode/mainMode.cpp ****       robot.motor.EncoderCompute();
  95              		.loc 1 10 7 is_stmt 1 view .LVU10
  96              		.loc 1 10 33 is_stmt 0 view .LVU11
  97 0008 04F58875 		add	r5, r4, #272
  98 000c 2846     		mov	r0, r5
  99 000e FFF7FEFF 		bl	_ZN10MotorDrive14EncoderComputeEv
 100              	.LVL5:
  11:src/mode/mainMode.cpp ****       robot.getSensors();
 101              		.loc 1 11 7 is_stmt 1 view .LVU12
 102              		.loc 1 11 23 is_stmt 0 view .LVU13
 103 0012 04F10800 		add	r0, r4, #8
ARM GAS  /var/folders/5c/srt4fy4j1pd641bjfx75k5000000gn/T//ccRLCbNs.s 			page 3


 104 0016 FFF7FEFF 		bl	_ZN5Robot10getSensorsEv
 105              	.LVL6:
  12:src/mode/mainMode.cpp **** 
  13:src/mode/mainMode.cpp ****       const float Kp = 2.5, Ki = 1, Kd = 0.05;
 106              		.loc 1 13 7 is_stmt 1 view .LVU14
  14:src/mode/mainMode.cpp ****       int16_t left, right;
 107              		.loc 1 14 7 view .LVU15
  15:src/mode/mainMode.cpp ****       p = robot.line.position - 0;
 108              		.loc 1 15 7 view .LVU16
 109              		.loc 1 15 22 is_stmt 0 view .LVU17
 110 001a 94ED087A 		vldr.32	s14, [r4, #32]
 111              		.loc 1 15 9 view .LVU18
 112 001e 5C4B     		ldr	r3, .L23
 113 0020 83ED007A 		vstr.32	s14, [r3]
  16:src/mode/mainMode.cpp ****       i += p * processTime * 0.000001f;
 114              		.loc 1 16 7 is_stmt 1 view .LVU19
 115              		.loc 1 16 16 is_stmt 0 view .LVU20
 116 0024 B4F8D831 		ldrh	r3, [r4, #472]
 117 0028 06EE903A 		vmov	s13, r3	@ int
 118              		.loc 1 16 14 view .LVU21
 119 002c F8EEE66A 		vcvt.f32.s32	s13, s13
 120 0030 67EE267A 		vmul.f32	s15, s14, s13
 121              		.loc 1 16 28 view .LVU22
 122 0034 9FED576A 		vldr.32	s12, .L23+4
 123 0038 67EE867A 		vmul.f32	s15, s15, s12
 124              		.loc 1 16 9 view .LVU23
 125 003c 564B     		ldr	r3, .L23+8
 126 003e D3ED005A 		vldr.32	s11, [r3]
 127 0042 77EEA57A 		vadd.f32	s15, s15, s11
 128 0046 C3ED007A 		vstr.32	s15, [r3]
  17:src/mode/mainMode.cpp ****       d = (p - pre_p) / (processTime * 0.000001f);
 129              		.loc 1 17 7 is_stmt 1 view .LVU24
 130              		.loc 1 17 14 is_stmt 0 view .LVU25
 131 004a 544B     		ldr	r3, .L23+12
 132 004c D3ED005A 		vldr.32	s11, [r3]
 133 0050 77EE655A 		vsub.f32	s11, s14, s11
 134              		.loc 1 17 38 view .LVU26
 135 0054 66EE866A 		vmul.f32	s13, s13, s12
 136              		.loc 1 17 23 view .LVU27
 137 0058 85EEA66A 		vdiv.f32	s12, s11, s13
 138              		.loc 1 17 9 view .LVU28
 139 005c 504A     		ldr	r2, .L23+16
 140 005e 82ED006A 		vstr.32	s12, [r2]
  18:src/mode/mainMode.cpp ****       pre_p = p;
 141              		.loc 1 18 7 is_stmt 1 view .LVU29
 142              		.loc 1 18 13 is_stmt 0 view .LVU30
 143 0062 83ED007A 		vstr.32	s14, [r3]
  19:src/mode/mainMode.cpp ****       pid = p * Kp + i * Ki + d * Kd;
 144              		.loc 1 19 7 is_stmt 1 view .LVU31
 145              		.loc 1 19 15 is_stmt 0 view .LVU32
 146 0066 F0EE046A 		vmov.f32	s13, #2.5e+0
 147 006a 67EE266A 		vmul.f32	s13, s14, s13
 148              		.loc 1 19 20 view .LVU33
 149 006e 77EEA67A 		vadd.f32	s15, s15, s13
 150              		.loc 1 19 33 view .LVU34
 151 0072 DFED4C6A 		vldr.32	s13, .L23+20
 152 0076 26EE266A 		vmul.f32	s12, s12, s13
ARM GAS  /var/folders/5c/srt4fy4j1pd641bjfx75k5000000gn/T//ccRLCbNs.s 			page 4


 153              		.loc 1 19 29 view .LVU35
 154 007a 77EE867A 		vadd.f32	s15, s15, s12
 155              		.loc 1 19 11 view .LVU36
 156 007e 4A4B     		ldr	r3, .L23+24
 157 0080 C3ED007A 		vstr.32	s15, [r3]
  20:src/mode/mainMode.cpp ****       if (abs(p) < 1) i = 0.5;
 158              		.loc 1 20 7 is_stmt 1 view .LVU37
 159              		.loc 1 20 11 is_stmt 0 view .LVU38
 160 0084 B5EEC07A 		vcmpe.f32	s14, #0
 161 0088 F1EE10FA 		vmrs	APSR_nzcv, FPSCR
 162 008c 6EDD     		ble	.L21
 163              	.L4:
 164              		.loc 1 20 7 discriminator 4 view .LVU39
 165 008e F7EE006A 		vmov.f32	s13, #1.0e+0
 166 0092 B4EEE67A 		vcmpe.f32	s14, s13
 167 0096 F1EE10FA 		vmrs	APSR_nzcv, FPSCR
 168 009a 6AD4     		bmi	.L22
 169              	.L5:
  21:src/mode/mainMode.cpp ****       left = pid * 2;
 170              		.loc 1 21 7 is_stmt 1 view .LVU40
 171              		.loc 1 21 18 is_stmt 0 view .LVU41
 172 009c 77EEA77A 		vadd.f32	s15, s15, s15
 173              		.loc 1 21 12 view .LVU42
 174 00a0 FDEEE76A 		vcvt.s32.f32	s13, s15
 175 00a4 16EE903A 		vmov	r3, s13	@ int
 176 00a8 19B2     		sxth	r1, r3
 177              	.LVL7:
  22:src/mode/mainMode.cpp ****       right = pid * -2;
 178              		.loc 1 22 7 is_stmt 1 view .LVU43
 179              		.loc 1 22 13 is_stmt 0 view .LVU44
 180 00aa F1EE677A 		vneg.f32	s15, s15
 181 00ae FDEEE77A 		vcvt.s32.f32	s15, s15
 182 00b2 17EE903A 		vmov	r3, s15	@ int
 183 00b6 1AB2     		sxth	r2, r3
 184              	.LVL8:
  23:src/mode/mainMode.cpp ****       if (abs(left) > 250) left = 250 * (abs(left) / left);
 185              		.loc 1 23 7 is_stmt 1 view .LVU45
 186              		.loc 1 23 11 is_stmt 0 view .LVU46
 187 00b8 81EAE173 		eor	r3, r1, r1, asr #31
 188 00bc A3EBE173 		sub	r3, r3, r1, asr #31
 189 00c0 9BB2     		uxth	r3, r3
 190              		.loc 1 23 7 view .LVU47
 191 00c2 FA2B     		cmp	r3, #250
 192 00c4 07D9     		bls	.L7
 193              		.loc 1 23 28 is_stmt 1 discriminator 1 view .LVU48
 194              		.loc 1 23 52 is_stmt 0 discriminator 1 view .LVU49
 195 00c6 93FBF1F3 		sdiv	r3, r3, r1
 196              		.loc 1 23 33 discriminator 1 view .LVU50
 197 00ca C3EB4311 		rsb	r1, r3, r3, lsl #5
 198              	.LVL9:
 199              		.loc 1 23 33 discriminator 1 view .LVU51
 200 00ce 03EB8103 		add	r3, r3, r1, lsl #2
 201 00d2 5B00     		lsls	r3, r3, #1
 202 00d4 19B2     		sxth	r1, r3
 203              	.LVL10:
 204              	.L7:
  24:src/mode/mainMode.cpp ****       if (abs(right) > 250) right = 250 * (abs(right) / right);
ARM GAS  /var/folders/5c/srt4fy4j1pd641bjfx75k5000000gn/T//ccRLCbNs.s 			page 5


 205              		.loc 1 24 7 is_stmt 1 view .LVU52
 206              		.loc 1 24 11 is_stmt 0 view .LVU53
 207 00d6 82EAE273 		eor	r3, r2, r2, asr #31
 208 00da A3EBE273 		sub	r3, r3, r2, asr #31
 209 00de 9BB2     		uxth	r3, r3
 210              		.loc 1 24 7 view .LVU54
 211 00e0 FA2B     		cmp	r3, #250
 212 00e2 07D9     		bls	.L8
 213              		.loc 1 24 29 is_stmt 1 discriminator 1 view .LVU55
 214              		.loc 1 24 55 is_stmt 0 discriminator 1 view .LVU56
 215 00e4 93FBF2F3 		sdiv	r3, r3, r2
 216              		.loc 1 24 35 discriminator 1 view .LVU57
 217 00e8 C3EB4312 		rsb	r2, r3, r3, lsl #5
 218              	.LVL11:
 219              		.loc 1 24 35 discriminator 1 view .LVU58
 220 00ec 03EB8203 		add	r3, r3, r2, lsl #2
 221 00f0 5B00     		lsls	r3, r3, #1
 222 00f2 1AB2     		sxth	r2, r3
 223              	.LVL12:
 224              	.L8:
  25:src/mode/mainMode.cpp ****       if (abs(robot.line.position) < 5) {
 225              		.loc 1 25 7 is_stmt 1 view .LVU59
 226 00f4 F1EE047A 		vmov.f32	s15, #5.0e+0
 227 00f8 B4EEE77A 		vcmpe.f32	s14, s15
 228 00fc F1EE10FA 		vmrs	APSR_nzcv, FPSCR
 229 0100 3CD5     		bpl	.L19
  26:src/mode/mainMode.cpp ****             left += 150;
 230              		.loc 1 26 13 view .LVU60
 231              		.loc 1 26 18 is_stmt 0 view .LVU61
 232 0102 9631     		adds	r1, r1, #150
 233              	.LVL13:
 234              		.loc 1 26 18 view .LVU62
 235 0104 09B2     		sxth	r1, r1
 236              	.LVL14:
  27:src/mode/mainMode.cpp ****             right += 150;
 237              		.loc 1 27 13 is_stmt 1 view .LVU63
 238              		.loc 1 27 19 is_stmt 0 view .LVU64
 239 0106 9632     		adds	r2, r2, #150
 240              	.LVL15:
 241              		.loc 1 27 19 view .LVU65
 242 0108 12B2     		sxth	r2, r2
 243              	.LVL16:
 244              	.L11:
  28:src/mode/mainMode.cpp ****       } else {
  29:src/mode/mainMode.cpp ****             left += 100;
  30:src/mode/mainMode.cpp ****             right += 100;
  31:src/mode/mainMode.cpp ****       }
  32:src/mode/mainMode.cpp ****       if (abs(left) > 500) left = 500 * (abs(left) / left);
 245              		.loc 1 32 7 is_stmt 1 view .LVU66
 246              		.loc 1 32 11 is_stmt 0 view .LVU67
 247 010a 81EAE173 		eor	r3, r1, r1, asr #31
 248 010e A3EBE173 		sub	r3, r3, r1, asr #31
 249 0112 9BB2     		uxth	r3, r3
 250              		.loc 1 32 7 view .LVU68
 251 0114 B3F5FA7F 		cmp	r3, #500
 252 0118 07D9     		bls	.L12
 253              		.loc 1 32 28 is_stmt 1 discriminator 1 view .LVU69
ARM GAS  /var/folders/5c/srt4fy4j1pd641bjfx75k5000000gn/T//ccRLCbNs.s 			page 6


 254              		.loc 1 32 52 is_stmt 0 discriminator 1 view .LVU70
 255 011a 93FBF1F3 		sdiv	r3, r3, r1
 256              		.loc 1 32 33 discriminator 1 view .LVU71
 257 011e C3EB4311 		rsb	r1, r3, r3, lsl #5
 258              	.LVL17:
 259              		.loc 1 32 33 discriminator 1 view .LVU72
 260 0122 03EB8103 		add	r3, r3, r1, lsl #2
 261 0126 9B00     		lsls	r3, r3, #2
 262 0128 19B2     		sxth	r1, r3
 263              	.LVL18:
 264              	.L12:
  33:src/mode/mainMode.cpp ****       if (abs(right) > 500) right = 500 * (abs(right) / right);
 265              		.loc 1 33 7 is_stmt 1 view .LVU73
 266              		.loc 1 33 11 is_stmt 0 view .LVU74
 267 012a 82EAE273 		eor	r3, r2, r2, asr #31
 268 012e A3EBE273 		sub	r3, r3, r2, asr #31
 269 0132 9BB2     		uxth	r3, r3
 270              		.loc 1 33 7 view .LVU75
 271 0134 B3F5FA7F 		cmp	r3, #500
 272 0138 07D9     		bls	.L13
 273              		.loc 1 33 29 is_stmt 1 discriminator 1 view .LVU76
 274              		.loc 1 33 55 is_stmt 0 discriminator 1 view .LVU77
 275 013a 93FBF2F3 		sdiv	r3, r3, r2
 276              		.loc 1 33 35 discriminator 1 view .LVU78
 277 013e C3EB4312 		rsb	r2, r3, r3, lsl #5
 278              	.LVL19:
 279              		.loc 1 33 35 discriminator 1 view .LVU79
 280 0142 03EB8203 		add	r3, r3, r2, lsl #2
 281 0146 9B00     		lsls	r3, r3, #2
 282 0148 1AB2     		sxth	r2, r3
 283              	.LVL20:
 284              	.L13:
  34:src/mode/mainMode.cpp ****       robot.motor.Drive(left, right);
 285              		.loc 1 34 7 is_stmt 1 view .LVU80
 286              		.loc 1 34 24 is_stmt 0 view .LVU81
 287 014a 2846     		mov	r0, r5
 288 014c FFF7FEFF 		bl	_ZN10MotorDrive5DriveEss
 289              	.LVL21:
  35:src/mode/mainMode.cpp ****       // for (uint8_t i = 0; i < 10; i++) printf("%d, ", robot.line.mainVal[i]);
  36:src/mode/mainMode.cpp ****       // printf("\n");
  37:src/mode/mainMode.cpp ****       // 定周期処理
  38:src/mode/mainMode.cpp ****       processTime = processTimer.read_us();
 290              		.loc 1 38 7 is_stmt 1 view .LVU82
 291              		.loc 1 38 41 is_stmt 0 view .LVU83
 292 0150 2046     		mov	r0, r4
 293 0152 FFF7FEFF 		bl	_ZN5Timer7read_usEv
 294              	.LVL22:
 295              		.loc 1 38 19 view .LVU84
 296 0156 80B2     		uxth	r0, r0
 297 0158 A4F8D801 		strh	r0, [r4, #472]	@ movhi
  39:src/mode/mainMode.cpp ****       if (processTime < PERIOD_US) {
 298              		.loc 1 39 7 is_stmt 1 view .LVU85
 299 015c C728     		cmp	r0, #199
 300 015e 12D8     		bhi	.L14
 301              	.L15:
  40:src/mode/mainMode.cpp ****             while (processTimer.read_us() < PERIOD_US);
 302              		.loc 1 40 43 discriminator 1 view .LVU86
ARM GAS  /var/folders/5c/srt4fy4j1pd641bjfx75k5000000gn/T//ccRLCbNs.s 			page 7


 303              		.loc 1 40 40 is_stmt 0 discriminator 1 view .LVU87
 304 0160 2046     		mov	r0, r4
 305 0162 FFF7FEFF 		bl	_ZN5Timer7read_usEv
 306              	.LVL23:
 307              		.loc 1 40 43 discriminator 1 view .LVU88
 308 0166 C728     		cmp	r0, #199
 309 0168 FAD9     		bls	.L15
 310              	.L3:
  41:src/mode/mainMode.cpp **** #ifdef DEBUG
  42:src/mode/mainMode.cpp ****             printf("ProcessTime = %d, LinePosition = %f\n", processTime, robot.line.position);
  43:src/mode/mainMode.cpp **** #endif
  44:src/mode/mainMode.cpp ****       } else {
  45:src/mode/mainMode.cpp ****             printf("OverProcess! ");
  46:src/mode/mainMode.cpp ****       }
  47:src/mode/mainMode.cpp **** }...
 311              		.loc 1 47 1 view .LVU89
 312 016a 38BD     		pop	{r3, r4, r5, pc}
 313              	.LVL24:
 314              	.L21:
  20:src/mode/mainMode.cpp ****       if (abs(p) < 1) i = 0.5;
 315              		.loc 1 20 11 discriminator 2 view .LVU90
 316 016c B1EE477A 		vneg.f32	s14, s14
 317 0170 8DE7     		b	.L4
 318              	.L22:
  20:src/mode/mainMode.cpp ****       if (abs(p) < 1) i = 0.5;
 319              		.loc 1 20 23 is_stmt 1 discriminator 5 view .LVU91
  20:src/mode/mainMode.cpp ****       if (abs(p) < 1) i = 0.5;
 320              		.loc 1 20 25 is_stmt 0 discriminator 5 view .LVU92
 321 0172 094B     		ldr	r3, .L23+8
 322 0174 4FF07C52 		mov	r2, #1056964608
 323 0178 1A60     		str	r2, [r3]	@ float
 324 017a 8FE7     		b	.L5
 325              	.LVL25:
 326              	.L19:
  29:src/mode/mainMode.cpp ****             left += 100;
 327              		.loc 1 29 13 is_stmt 1 view .LVU93
  29:src/mode/mainMode.cpp ****             left += 100;
 328              		.loc 1 29 18 is_stmt 0 view .LVU94
 329 017c 6431     		adds	r1, r1, #100
 330              	.LVL26:
  29:src/mode/mainMode.cpp ****             left += 100;
 331              		.loc 1 29 18 view .LVU95
 332 017e 09B2     		sxth	r1, r1
 333              	.LVL27:
  30:src/mode/mainMode.cpp ****             right += 100;
 334              		.loc 1 30 13 is_stmt 1 view .LVU96
  30:src/mode/mainMode.cpp ****             right += 100;
 335              		.loc 1 30 19 is_stmt 0 view .LVU97
 336 0180 6432     		adds	r2, r2, #100
 337              	.LVL28:
  30:src/mode/mainMode.cpp ****             right += 100;
 338              		.loc 1 30 19 view .LVU98
 339 0182 12B2     		sxth	r2, r2
 340              	.LVL29:
  30:src/mode/mainMode.cpp ****             right += 100;
 341              		.loc 1 30 19 view .LVU99
 342 0184 C1E7     		b	.L11
ARM GAS  /var/folders/5c/srt4fy4j1pd641bjfx75k5000000gn/T//ccRLCbNs.s 			page 8


 343              	.LVL30:
 344              	.L14:
  45:src/mode/mainMode.cpp ****             printf("OverProcess! ");
 345              		.loc 1 45 13 is_stmt 1 view .LVU100
  45:src/mode/mainMode.cpp ****             printf("OverProcess! ");
 346              		.loc 1 45 19 is_stmt 0 view .LVU101
 347 0186 0948     		ldr	r0, .L23+28
 348 0188 FFF7FEFF 		bl	printf
 349              	.LVL31:
 350              		.loc 1 47 1 view .LVU102
 351 018c EDE7     		b	.L3
 352              	.L24:
 353 018e 00BF     		.align	2
 354              	.L23:
 355 0190 00000000 		.word	p
 356 0194 BD378635 		.word	897988541
 357 0198 00000000 		.word	i
 358 019c 00000000 		.word	pre_p
 359 01a0 00000000 		.word	d
 360 01a4 CDCC4C3D 		.word	1028443341
 361 01a8 00000000 		.word	pid
 362 01ac 00000000 		.word	.LC0
 363              		.cfi_endproc
 364              	.LFE269:
 365              		.fnend
 367              		.global	pre_p
 368              		.section	.bss.pre_p,"aw",%nobits
 369              		.align	2
 372              	pre_p:
 373 0000 00000000 		.space	4
 374              		.global	pid
 375              		.section	.bss.pid,"aw",%nobits
 376              		.align	2
 379              	pid:
 380 0000 00000000 		.space	4
 381              		.global	d
 382              		.section	.bss.d,"aw",%nobits
 383              		.align	2
 386              	d:
 387 0000 00000000 		.space	4
 388              		.global	i
 389              		.section	.bss.i,"aw",%nobits
 390              		.align	2
 393              	i:
 394 0000 00000000 		.space	4
 395              		.global	p
 396              		.section	.bss.p,"aw",%nobits
 397              		.align	2
 400              	p:
 401 0000 00000000 		.space	4
 402              		.text
 403              	.Letext0:
 404              		.file 2 "/opt/ST/STM32CubeCLT_1.16.0/GNU-tools-for-STM32/arm-none-eabi/include/machine/_default_ty
 405              		.file 3 "/opt/ST/STM32CubeCLT_1.16.0/GNU-tools-for-STM32/arm-none-eabi/include/sys/_stdint.h"
 406              		.file 4 "Drivers/CMSIS/Device/ST/STM32F4xx/Include/stm32f446xx.h"
 407              		.file 5 "Drivers/CMSIS/Device/ST/STM32F4xx/Include/stm32f4xx.h"
 408              		.file 6 "/opt/ST/STM32CubeCLT_1.16.0/GNU-tools-for-STM32/lib/gcc/arm-none-eabi/12.3.1/include/stdd
ARM GAS  /var/folders/5c/srt4fy4j1pd641bjfx75k5000000gn/T//ccRLCbNs.s 			page 9


 409              		.file 7 "Drivers/STM32F4xx_HAL_Driver/Inc/stm32f4xx_hal_def.h"
 410              		.file 8 "Drivers/STM32F4xx_HAL_Driver/Inc/stm32f4xx_hal_dma.h"
 411              		.file 9 "Drivers/STM32F4xx_HAL_Driver/Inc/stm32f4xx_hal_tim.h"
 412              		.file 10 "Drivers/STM32F4xx_HAL_Driver/Inc/stm32f4xx_hal.h"
 413              		.file 11 "Lib/DigitalInOut/DigitalInOut.hpp"
 414              		.file 12 "Lib/Timer/Timer.hpp"
 415              		.file 13 "Lib/Button/Button.hpp"
 416              		.file 14 "Lib/Buzzer/Buzzer.hpp"
 417              		.file 15 "/opt/ST/STM32CubeCLT_1.16.0/GNU-tools-for-STM32/arm-none-eabi/include/c++/12.3.1/cstdio"
 418              		.file 16 "/opt/ST/STM32CubeCLT_1.16.0/GNU-tools-for-STM32/arm-none-eabi/include/c++/12.3.1/arm-non
 419              		.file 17 "/opt/ST/STM32CubeCLT_1.16.0/GNU-tools-for-STM32/arm-none-eabi/include/sys/_types.h"
 420              		.file 18 "/opt/ST/STM32CubeCLT_1.16.0/GNU-tools-for-STM32/arm-none-eabi/include/sys/reent.h"
 421              		.file 19 "/opt/ST/STM32CubeCLT_1.16.0/GNU-tools-for-STM32/arm-none-eabi/include/sys/lock.h"
 422              		.file 20 "/opt/ST/STM32CubeCLT_1.16.0/GNU-tools-for-STM32/arm-none-eabi/include/stdio.h"
 423              		.file 21 "Lib/PWMSingle/PWMSingle.hpp"
 424              		.file 22 "src/unit/motorDrive.hpp"
 425              		.file 23 "src/unit/robot.hpp"
 426              		.file 24 "src/mode/mainMode.hpp"
ARM GAS  /var/folders/5c/srt4fy4j1pd641bjfx75k5000000gn/T//ccRLCbNs.s 			page 10


DEFINED SYMBOLS
                            *ABS*:00000000 mainMode.cpp
/var/folders/5c/srt4fy4j1pd641bjfx75k5000000gn/T//ccRLCbNs.s:21     .text._ZN8MainModeC2Ev:00000000 $t
/var/folders/5c/srt4fy4j1pd641bjfx75k5000000gn/T//ccRLCbNs.s:27     .text._ZN8MainModeC2Ev:00000000 _ZN8MainModeC2Ev
 .ARM.exidx.text._ZN8MainModeC2Ev:00000000 $d
/var/folders/5c/srt4fy4j1pd641bjfx75k5000000gn/T//ccRLCbNs.s:27     .text._ZN8MainModeC2Ev:00000000 _ZN8MainModeC1Ev
/var/folders/5c/srt4fy4j1pd641bjfx75k5000000gn/T//ccRLCbNs.s:63     .rodata._ZN8MainMode4loopEv.str1.4:00000000 $d
/var/folders/5c/srt4fy4j1pd641bjfx75k5000000gn/T//ccRLCbNs.s:67     .text._ZN8MainMode4loopEv:00000000 $t
/var/folders/5c/srt4fy4j1pd641bjfx75k5000000gn/T//ccRLCbNs.s:73     .text._ZN8MainMode4loopEv:00000000 _ZN8MainMode4loopEv
/var/folders/5c/srt4fy4j1pd641bjfx75k5000000gn/T//ccRLCbNs.s:355    .text._ZN8MainMode4loopEv:00000190 $d
/var/folders/5c/srt4fy4j1pd641bjfx75k5000000gn/T//ccRLCbNs.s:400    .bss.p:00000000 p
/var/folders/5c/srt4fy4j1pd641bjfx75k5000000gn/T//ccRLCbNs.s:393    .bss.i:00000000 i
/var/folders/5c/srt4fy4j1pd641bjfx75k5000000gn/T//ccRLCbNs.s:372    .bss.pre_p:00000000 pre_p
/var/folders/5c/srt4fy4j1pd641bjfx75k5000000gn/T//ccRLCbNs.s:386    .bss.d:00000000 d
/var/folders/5c/srt4fy4j1pd641bjfx75k5000000gn/T//ccRLCbNs.s:379    .bss.pid:00000000 pid
.ARM.exidx.text._ZN8MainMode4loopEv:00000000 $d
/var/folders/5c/srt4fy4j1pd641bjfx75k5000000gn/T//ccRLCbNs.s:369    .bss.pre_p:00000000 $d
/var/folders/5c/srt4fy4j1pd641bjfx75k5000000gn/T//ccRLCbNs.s:376    .bss.pid:00000000 $d
/var/folders/5c/srt4fy4j1pd641bjfx75k5000000gn/T//ccRLCbNs.s:383    .bss.d:00000000 $d
/var/folders/5c/srt4fy4j1pd641bjfx75k5000000gn/T//ccRLCbNs.s:390    .bss.i:00000000 $d
/var/folders/5c/srt4fy4j1pd641bjfx75k5000000gn/T//ccRLCbNs.s:397    .bss.p:00000000 $d

UNDEFINED SYMBOLS
_ZN5TimerC1Ev
_ZN5RobotC1Ev
__aeabi_unwind_cpp_pr0
_ZN5Timer5resetEv
_ZN10MotorDrive14EncoderComputeEv
_ZN5Robot10getSensorsEv
_ZN10MotorDrive5DriveEss
_ZN5Timer7read_usEv
printf
