ARM GAS  /var/folders/5c/srt4fy4j1pd641bjfx75k5000000gn/T//cc0ktjFB.s 			page 1


   1              		.cpu cortex-m4
   2              		.arch armv7e-m
   3              		.fpu fpv4-sp-d16
   4              		.eabi_attribute 27, 1
   5              		.eabi_attribute 28, 1
   6              		.eabi_attribute 20, 1
   7              		.eabi_attribute 21, 1
   8              		.eabi_attribute 23, 3
   9              		.eabi_attribute 24, 1
  10              		.eabi_attribute 25, 1
  11              		.eabi_attribute 26, 1
  12              		.eabi_attribute 30, 1
  13              		.eabi_attribute 34, 1
  14              		.eabi_attribute 18, 4
  15              		.file	"main_mode.cpp"
  16              		.text
  17              	.Ltext0:
  18              		.cfi_sections	.debug_frame
  19              		.file 1 "src/mode/main_mode.cpp"
  20              		.section	.text._ZN8MainModeC2Ev,"ax",%progbits
  21              		.align	1
  22              		.global	_ZN8MainModeC2Ev
  23              		.syntax unified
  24              		.thumb
  25              		.thumb_func
  27              	_ZN8MainModeC2Ev:
  28              		.fnstart
  29              	.LVL0:
  30              	.LFB267:
   1:src/mode/main_mode.cpp **** #include "main_mode.hpp"
   2:src/mode/main_mode.cpp **** 
   3:src/mode/main_mode.cpp **** // #define DEBUG
   4:src/mode/main_mode.cpp **** 
   5:src/mode/main_mode.cpp **** MainMode::MainMode() {
  31              		.loc 1 5 1 view -0
  32              		.cfi_startproc
  33              		@ args = 0, pretend = 0, frame = 0
  34              		@ frame_needed = 0, uses_anonymous_args = 0
  35              		.loc 1 5 1 is_stmt 0 view .LVU1
  36 0000 10B5     		push	{r4, lr}
  37              		.save {r4, lr}
  38              	.LCFI0:
  39              		.cfi_def_cfa_offset 8
  40              		.cfi_offset 4, -8
  41              		.cfi_offset 14, -4
  42 0002 0446     		mov	r4, r0
  43              	.LBB2:
  44              		.loc 1 5 20 view .LVU2
  45 0004 FFF7FEFF 		bl	_ZN5TimerC1Ev
  46              	.LVL1:
  47              		.loc 1 5 20 view .LVU3
  48 0008 04F10800 		add	r0, r4, #8
  49 000c FFF7FEFF 		bl	_ZN5RobotC1Ev
  50              	.LVL2:
  51              	.LBE2:
   6:src/mode/main_mode.cpp **** }
  52              		.loc 1 6 1 view .LVU4
ARM GAS  /var/folders/5c/srt4fy4j1pd641bjfx75k5000000gn/T//cc0ktjFB.s 			page 2


  53 0010 2046     		mov	r0, r4
  54 0012 10BD     		pop	{r4, pc}
  55              		.loc 1 6 1 view .LVU5
  56              		.cfi_endproc
  57              	.LFE267:
  58              		.fnend
  60              		.global	_ZN8MainModeC1Ev
  61              		.thumb_set _ZN8MainModeC1Ev,_ZN8MainModeC2Ev
  62              		.global	__aeabi_d2f
  63              		.section	.rodata._ZN8MainMode4loopEv.str1.4,"aMS",%progbits,1
  64              		.align	2
  65              	.LC0:
  66 0000 4F766572 		.ascii	"OverProcess! \000"
  66      50726F63 
  66      65737321 
  66      2000
  67              		.section	.text._ZN8MainMode4loopEv,"ax",%progbits
  68              		.align	1
  69              		.global	_ZN8MainMode4loopEv
  70              		.syntax unified
  71              		.thumb
  72              		.thumb_func
  74              	_ZN8MainMode4loopEv:
  75              		.fnstart
  76              	.LVL3:
  77              	.LFB269:
   7:src/mode/main_mode.cpp **** 
   8:src/mode/main_mode.cpp **** float p, i, d, pid, pre_p;
   9:src/mode/main_mode.cpp **** void MainMode::loop() {
  78              		.loc 1 9 23 is_stmt 1 view -0
  79              		.cfi_startproc
  80              		@ args = 0, pretend = 0, frame = 0
  81              		@ frame_needed = 0, uses_anonymous_args = 0
  82              		.loc 1 9 23 is_stmt 0 view .LVU7
  83 0000 10B5     		push	{r4, lr}
  84              		.save {r4, lr}
  85              	.LCFI1:
  86              		.cfi_def_cfa_offset 8
  87              		.cfi_offset 4, -8
  88              		.cfi_offset 14, -4
  89 0002 0446     		mov	r4, r0
  10:src/mode/main_mode.cpp ****       processTimer.reset();
  90              		.loc 1 10 7 is_stmt 1 view .LVU8
  91              		.loc 1 10 25 is_stmt 0 view .LVU9
  92 0004 FFF7FEFF 		bl	_ZN5Timer5resetEv
  93              	.LVL4:
  11:src/mode/main_mode.cpp ****       robot.motor.EncoderCompute();
  94              		.loc 1 11 7 is_stmt 1 view .LVU10
  95              		.loc 1 11 33 is_stmt 0 view .LVU11
  96 0008 04F58960 		add	r0, r4, #1096
  97 000c FFF7FEFF 		bl	_ZN10MotorDrive14EncoderComputeEv
  98              	.LVL5:
  12:src/mode/main_mode.cpp ****       robot.getSensors();
  99              		.loc 1 12 7 is_stmt 1 view .LVU12
 100              		.loc 1 12 23 is_stmt 0 view .LVU13
 101 0010 04F10800 		add	r0, r4, #8
 102 0014 FFF7FEFF 		bl	_ZN5Robot10getSensorsEv
ARM GAS  /var/folders/5c/srt4fy4j1pd641bjfx75k5000000gn/T//cc0ktjFB.s 			page 3


 103              	.LVL6:
  13:src/mode/main_mode.cpp **** 
  14:src/mode/main_mode.cpp ****       // const float Kp = 2.5, Ki = 1, Kd = 0.05;
  15:src/mode/main_mode.cpp ****       const float Kp = 3, Ki = 3, Kd = 0.01;
 104              		.loc 1 15 7 is_stmt 1 view .LVU14
  16:src/mode/main_mode.cpp ****       int16_t left, right;
 105              		.loc 1 16 7 view .LVU15
  17:src/mode/main_mode.cpp ****       p = robot.line.position - 0;
 106              		.loc 1 17 7 view .LVU16
 107              		.loc 1 17 31 is_stmt 0 view .LVU17
 108 0018 D4E90801 		ldrd	r0, [r4, #32]
 109 001c FFF7FEFF 		bl	__aeabi_d2f
 110              	.LVL7:
 111 0020 07EE900A 		vmov	s15, r0
 112              		.loc 1 17 9 view .LVU18
 113 0024 2C4B     		ldr	r3, .L14
 114 0026 1860     		str	r0, [r3]	@ float
  18:src/mode/main_mode.cpp ****       i += p * processTime * 0.000001f;
 115              		.loc 1 18 7 is_stmt 1 view .LVU19
 116              		.loc 1 18 16 is_stmt 0 view .LVU20
 117 0028 B4F8583B 		ldrh	r3, [r4, #2904]
 118 002c 06EE903A 		vmov	s13, r3	@ int
 119              		.loc 1 18 14 view .LVU21
 120 0030 F8EEE66A 		vcvt.f32.s32	s13, s13
 121 0034 27EEA67A 		vmul.f32	s14, s15, s13
 122              		.loc 1 18 28 view .LVU22
 123 0038 9FED286A 		vldr.32	s12, .L14+4
 124 003c 27EE067A 		vmul.f32	s14, s14, s12
 125              		.loc 1 18 9 view .LVU23
 126 0040 274B     		ldr	r3, .L14+8
 127 0042 D3ED005A 		vldr.32	s11, [r3]
 128 0046 37EE257A 		vadd.f32	s14, s14, s11
 129 004a 83ED007A 		vstr.32	s14, [r3]
  19:src/mode/main_mode.cpp ****       d = (p - pre_p) / (processTime * 0.000001f);
 130              		.loc 1 19 7 is_stmt 1 view .LVU24
 131              		.loc 1 19 14 is_stmt 0 view .LVU25
 132 004e 254B     		ldr	r3, .L14+12
 133 0050 D3ED005A 		vldr.32	s11, [r3]
 134 0054 77EEE55A 		vsub.f32	s11, s15, s11
 135              		.loc 1 19 38 view .LVU26
 136 0058 66EE866A 		vmul.f32	s13, s13, s12
 137              		.loc 1 19 23 view .LVU27
 138 005c 85EEA66A 		vdiv.f32	s12, s11, s13
 139              		.loc 1 19 9 view .LVU28
 140 0060 214A     		ldr	r2, .L14+16
 141 0062 82ED006A 		vstr.32	s12, [r2]
  20:src/mode/main_mode.cpp ****       pre_p = p;
 142              		.loc 1 20 7 is_stmt 1 view .LVU29
 143              		.loc 1 20 13 is_stmt 0 view .LVU30
 144 0066 1860     		str	r0, [r3]	@ float
  21:src/mode/main_mode.cpp ****       pid = p * Kp + i * Ki + d * Kd;
 145              		.loc 1 21 7 is_stmt 1 view .LVU31
 146              		.loc 1 21 15 is_stmt 0 view .LVU32
 147 0068 F0EE085A 		vmov.f32	s11, #3.0e+0
 148 006c 67EEA56A 		vmul.f32	s13, s15, s11
 149              		.loc 1 21 24 view .LVU33
 150 0070 27EE257A 		vmul.f32	s14, s14, s11
ARM GAS  /var/folders/5c/srt4fy4j1pd641bjfx75k5000000gn/T//cc0ktjFB.s 			page 4


 151              		.loc 1 21 20 view .LVU34
 152 0074 36EE877A 		vadd.f32	s14, s13, s14
 153              		.loc 1 21 33 view .LVU35
 154 0078 DFED1C6A 		vldr.32	s13, .L14+20
 155 007c 26EE266A 		vmul.f32	s12, s12, s13
 156              		.loc 1 21 29 view .LVU36
 157 0080 37EE067A 		vadd.f32	s14, s14, s12
 158              		.loc 1 21 11 view .LVU37
 159 0084 1A4B     		ldr	r3, .L14+24
 160 0086 83ED007A 		vstr.32	s14, [r3]
  22:src/mode/main_mode.cpp ****       if (abs(p) < 1) i = 0.5;
 161              		.loc 1 22 7 is_stmt 1 view .LVU38
 162              		.loc 1 22 11 is_stmt 0 view .LVU39
 163 008a F5EEC07A 		vcmpe.f32	s15, #0
 164 008e F1EE10FA 		vmrs	APSR_nzcv, FPSCR
 165 0092 14DD     		ble	.L12
 166              	.L4:
 167              		.loc 1 22 7 discriminator 4 view .LVU40
 168 0094 B7EE007A 		vmov.f32	s14, #1.0e+0
 169 0098 F4EEC77A 		vcmpe.f32	s15, s14
 170 009c F1EE10FA 		vmrs	APSR_nzcv, FPSCR
 171 00a0 10D4     		bmi	.L13
 172              	.L5:
  23:src/mode/main_mode.cpp ****       left = pid * 2;
 173              		.loc 1 23 7 is_stmt 1 view .LVU41
 174              	.LVL8:
  24:src/mode/main_mode.cpp ****       right = pid * -2;
 175              		.loc 1 24 7 view .LVU42
  25:src/mode/main_mode.cpp ****       if (abs(left) > 200) left = 200 * (abs(left) / left);
 176              		.loc 1 25 7 view .LVU43
  26:src/mode/main_mode.cpp ****       if (abs(right) > 200) right = 200 * (abs(right) / right);
 177              		.loc 1 26 7 view .LVU44
  27:src/mode/main_mode.cpp ****       // if (abs(robot.line.position) < 5) {
  28:src/mode/main_mode.cpp ****       //       left += 130;
  29:src/mode/main_mode.cpp ****       //       right += 130;
  30:src/mode/main_mode.cpp ****       // } else {
  31:src/mode/main_mode.cpp ****       //       left += 80;
  32:src/mode/main_mode.cpp ****       //       right += 80;
  33:src/mode/main_mode.cpp ****       // }
  34:src/mode/main_mode.cpp ****       if (abs(left) > 300) left = 300 * (abs(left) / left);
 178              		.loc 1 34 7 view .LVU45
  35:src/mode/main_mode.cpp ****       if (abs(right) > 300) right = 300 * (abs(right) / right);
 179              		.loc 1 35 7 view .LVU46
  36:src/mode/main_mode.cpp ****       // robot.motor.Drive(left, right);
  37:src/mode/main_mode.cpp ****       // printf("left = %d, right = %d\n", left, right);
  38:src/mode/main_mode.cpp **** 
  39:src/mode/main_mode.cpp ****       //  定周期処理
  40:src/mode/main_mode.cpp ****       processTime = processTimer.read_us();
 180              		.loc 1 40 7 view .LVU47
 181              		.loc 1 40 41 is_stmt 0 view .LVU48
 182 00a2 2046     		mov	r0, r4
 183 00a4 FFF7FEFF 		bl	_ZN5Timer7read_usEv
 184              	.LVL9:
 185              		.loc 1 40 19 view .LVU49
 186 00a8 80B2     		uxth	r0, r0
 187 00aa A4F8580B 		strh	r0, [r4, #2904]	@ movhi
  41:src/mode/main_mode.cpp ****       if (processTime < PERIOD_US) {
ARM GAS  /var/folders/5c/srt4fy4j1pd641bjfx75k5000000gn/T//cc0ktjFB.s 			page 5


 188              		.loc 1 41 7 is_stmt 1 view .LVU50
 189 00ae C728     		cmp	r0, #199
 190 00b0 0DD8     		bhi	.L7
 191              	.L8:
  42:src/mode/main_mode.cpp ****             while (processTimer.read_us() < PERIOD_US);
 192              		.loc 1 42 43 discriminator 1 view .LVU51
 193              		.loc 1 42 40 is_stmt 0 discriminator 1 view .LVU52
 194 00b2 2046     		mov	r0, r4
 195 00b4 FFF7FEFF 		bl	_ZN5Timer7read_usEv
 196              	.LVL10:
 197              		.loc 1 42 43 discriminator 1 view .LVU53
 198 00b8 C728     		cmp	r0, #199
 199 00ba FAD9     		bls	.L8
 200              	.L3:
  43:src/mode/main_mode.cpp ****       } else {
  44:src/mode/main_mode.cpp ****             printf("OverProcess! ");
  45:src/mode/main_mode.cpp ****       }
  46:src/mode/main_mode.cpp **** #ifdef DEBUG
  47:src/mode/main_mode.cpp ****       printf("ProcessTime = %d, LinePosition = %.2lf, MotorL = %.2lf, MotorR = %.2lf\n", processTim
  48:src/mode/main_mode.cpp **** #endif
  49:src/mode/main_mode.cpp **** }...
 201              		.loc 1 49 1 view .LVU54
 202 00bc 10BD     		pop	{r4, pc}
 203              	.LVL11:
 204              	.L12:
  22:src/mode/main_mode.cpp ****       if (abs(p) < 1) i = 0.5;
 205              		.loc 1 22 11 discriminator 2 view .LVU55
 206 00be F1EE677A 		vneg.f32	s15, s15
 207 00c2 E7E7     		b	.L4
 208              	.L13:
  22:src/mode/main_mode.cpp ****       if (abs(p) < 1) i = 0.5;
 209              		.loc 1 22 23 is_stmt 1 discriminator 5 view .LVU56
  22:src/mode/main_mode.cpp ****       if (abs(p) < 1) i = 0.5;
 210              		.loc 1 22 25 is_stmt 0 discriminator 5 view .LVU57
 211 00c4 064B     		ldr	r3, .L14+8
 212 00c6 4FF07C52 		mov	r2, #1056964608
 213 00ca 1A60     		str	r2, [r3]	@ float
 214 00cc E9E7     		b	.L5
 215              	.L7:
  44:src/mode/main_mode.cpp ****             printf("OverProcess! ");
 216              		.loc 1 44 13 is_stmt 1 view .LVU58
  44:src/mode/main_mode.cpp ****             printf("OverProcess! ");
 217              		.loc 1 44 19 is_stmt 0 view .LVU59
 218 00ce 0948     		ldr	r0, .L14+28
 219 00d0 FFF7FEFF 		bl	printf
 220              	.LVL12:
 221              		.loc 1 49 1 view .LVU60
 222 00d4 F2E7     		b	.L3
 223              	.L15:
 224 00d6 00BF     		.align	2
 225              	.L14:
 226 00d8 00000000 		.word	p
 227 00dc BD378635 		.word	897988541
 228 00e0 00000000 		.word	i
 229 00e4 00000000 		.word	pre_p
 230 00e8 00000000 		.word	d
 231 00ec 0AD7233C 		.word	1008981770
ARM GAS  /var/folders/5c/srt4fy4j1pd641bjfx75k5000000gn/T//cc0ktjFB.s 			page 6


 232 00f0 00000000 		.word	pid
 233 00f4 00000000 		.word	.LC0
 234              		.cfi_endproc
 235              	.LFE269:
 236              		.fnend
 238              		.global	pre_p
 239              		.section	.bss.pre_p,"aw",%nobits
 240              		.align	2
 243              	pre_p:
 244 0000 00000000 		.space	4
 245              		.global	pid
 246              		.section	.bss.pid,"aw",%nobits
 247              		.align	2
 250              	pid:
 251 0000 00000000 		.space	4
 252              		.global	d
 253              		.section	.bss.d,"aw",%nobits
 254              		.align	2
 257              	d:
 258 0000 00000000 		.space	4
 259              		.global	i
 260              		.section	.bss.i,"aw",%nobits
 261              		.align	2
 264              	i:
 265 0000 00000000 		.space	4
 266              		.global	p
 267              		.section	.bss.p,"aw",%nobits
 268              		.align	2
 271              	p:
 272 0000 00000000 		.space	4
 273              		.text
 274              	.Letext0:
 275              		.file 2 "/opt/ST/STM32CubeCLT_1.16.0/GNU-tools-for-STM32/arm-none-eabi/include/machine/_default_ty
 276              		.file 3 "/opt/ST/STM32CubeCLT_1.16.0/GNU-tools-for-STM32/arm-none-eabi/include/sys/_stdint.h"
 277              		.file 4 "Drivers/CMSIS/Device/ST/STM32F4xx/Include/stm32f446xx.h"
 278              		.file 5 "Drivers/CMSIS/Device/ST/STM32F4xx/Include/stm32f4xx.h"
 279              		.file 6 "/opt/ST/STM32CubeCLT_1.16.0/GNU-tools-for-STM32/lib/gcc/arm-none-eabi/12.3.1/include/stdd
 280              		.file 7 "Drivers/STM32F4xx_HAL_Driver/Inc/stm32f4xx_hal_def.h"
 281              		.file 8 "Drivers/STM32F4xx_HAL_Driver/Inc/stm32f4xx_hal_dma.h"
 282              		.file 9 "Drivers/STM32F4xx_HAL_Driver/Inc/stm32f4xx_hal_tim.h"
 283              		.file 10 "Drivers/STM32F4xx_HAL_Driver/Inc/stm32f4xx_hal.h"
 284              		.file 11 "Lib/DigitalInOut/DigitalInOut.hpp"
 285              		.file 12 "Lib/Timer/Timer.hpp"
 286              		.file 13 "Lib/Button/Button.hpp"
 287              		.file 14 "Lib/Buzzer/Buzzer.hpp"
 288              		.file 15 "Lib/MovingAve/MovingAve.hpp"
 289              		.file 16 "/opt/ST/STM32CubeCLT_1.16.0/GNU-tools-for-STM32/arm-none-eabi/include/c++/12.3.1/cstdio"
 290              		.file 17 "/opt/ST/STM32CubeCLT_1.16.0/GNU-tools-for-STM32/arm-none-eabi/include/c++/12.3.1/arm-non
 291              		.file 18 "/opt/ST/STM32CubeCLT_1.16.0/GNU-tools-for-STM32/arm-none-eabi/include/sys/_types.h"
 292              		.file 19 "/opt/ST/STM32CubeCLT_1.16.0/GNU-tools-for-STM32/arm-none-eabi/include/sys/reent.h"
 293              		.file 20 "/opt/ST/STM32CubeCLT_1.16.0/GNU-tools-for-STM32/arm-none-eabi/include/sys/lock.h"
 294              		.file 21 "/opt/ST/STM32CubeCLT_1.16.0/GNU-tools-for-STM32/arm-none-eabi/include/stdio.h"
 295              		.file 22 "Lib/PWMSingle/PWMSingle.hpp"
 296              		.file 23 "src/unit/motor_drive.hpp"
 297              		.file 24 "src/unit/robot.hpp"
 298              		.file 25 "src/mode/main_mode.hpp"
ARM GAS  /var/folders/5c/srt4fy4j1pd641bjfx75k5000000gn/T//cc0ktjFB.s 			page 7


DEFINED SYMBOLS
                            *ABS*:00000000 main_mode.cpp
/var/folders/5c/srt4fy4j1pd641bjfx75k5000000gn/T//cc0ktjFB.s:21     .text._ZN8MainModeC2Ev:00000000 $t
/var/folders/5c/srt4fy4j1pd641bjfx75k5000000gn/T//cc0ktjFB.s:27     .text._ZN8MainModeC2Ev:00000000 _ZN8MainModeC2Ev
 .ARM.exidx.text._ZN8MainModeC2Ev:00000000 $d
/var/folders/5c/srt4fy4j1pd641bjfx75k5000000gn/T//cc0ktjFB.s:27     .text._ZN8MainModeC2Ev:00000000 _ZN8MainModeC1Ev
/var/folders/5c/srt4fy4j1pd641bjfx75k5000000gn/T//cc0ktjFB.s:64     .rodata._ZN8MainMode4loopEv.str1.4:00000000 $d
/var/folders/5c/srt4fy4j1pd641bjfx75k5000000gn/T//cc0ktjFB.s:68     .text._ZN8MainMode4loopEv:00000000 $t
/var/folders/5c/srt4fy4j1pd641bjfx75k5000000gn/T//cc0ktjFB.s:74     .text._ZN8MainMode4loopEv:00000000 _ZN8MainMode4loopEv
/var/folders/5c/srt4fy4j1pd641bjfx75k5000000gn/T//cc0ktjFB.s:226    .text._ZN8MainMode4loopEv:000000d8 $d
/var/folders/5c/srt4fy4j1pd641bjfx75k5000000gn/T//cc0ktjFB.s:271    .bss.p:00000000 p
/var/folders/5c/srt4fy4j1pd641bjfx75k5000000gn/T//cc0ktjFB.s:264    .bss.i:00000000 i
/var/folders/5c/srt4fy4j1pd641bjfx75k5000000gn/T//cc0ktjFB.s:243    .bss.pre_p:00000000 pre_p
/var/folders/5c/srt4fy4j1pd641bjfx75k5000000gn/T//cc0ktjFB.s:257    .bss.d:00000000 d
/var/folders/5c/srt4fy4j1pd641bjfx75k5000000gn/T//cc0ktjFB.s:250    .bss.pid:00000000 pid
.ARM.exidx.text._ZN8MainMode4loopEv:00000000 $d
/var/folders/5c/srt4fy4j1pd641bjfx75k5000000gn/T//cc0ktjFB.s:240    .bss.pre_p:00000000 $d
/var/folders/5c/srt4fy4j1pd641bjfx75k5000000gn/T//cc0ktjFB.s:247    .bss.pid:00000000 $d
/var/folders/5c/srt4fy4j1pd641bjfx75k5000000gn/T//cc0ktjFB.s:254    .bss.d:00000000 $d
/var/folders/5c/srt4fy4j1pd641bjfx75k5000000gn/T//cc0ktjFB.s:261    .bss.i:00000000 $d
/var/folders/5c/srt4fy4j1pd641bjfx75k5000000gn/T//cc0ktjFB.s:268    .bss.p:00000000 $d

UNDEFINED SYMBOLS
_ZN5TimerC1Ev
_ZN5RobotC1Ev
__aeabi_unwind_cpp_pr0
__aeabi_d2f
_ZN5Timer5resetEv
_ZN10MotorDrive14EncoderComputeEv
_ZN5Robot10getSensorsEv
_ZN5Timer7read_usEv
printf
