ARM GAS  /var/folders/5c/srt4fy4j1pd641bjfx75k5000000gn/T//ccVJQiKM.s 			page 1


   1              		.cpu cortex-m4
   2              		.arch armv7e-m
   3              		.fpu fpv4-sp-d16
   4              		.eabi_attribute 27, 1
   5              		.eabi_attribute 28, 1
   6              		.eabi_attribute 20, 1
   7              		.eabi_attribute 21, 1
   8              		.eabi_attribute 23, 3
   9              		.eabi_attribute 24, 1
  10              		.eabi_attribute 25, 1
  11              		.eabi_attribute 26, 1
  12              		.eabi_attribute 30, 1
  13              		.eabi_attribute 34, 1
  14              		.eabi_attribute 18, 4
  15              		.file	"motorDrive.cpp"
  16              		.text
  17              	.Ltext0:
  18              		.cfi_sections	.debug_frame
  19              		.file 1 "src/unit/motorDrive.cpp"
  20              		.section	.text._ZN12PwmSingleOut4initEv,"axG",%progbits,_ZN12PwmSingleOut4initEv,comdat
  21              		.align	1
  22              		.weak	_ZN12PwmSingleOut4initEv
  23              		.syntax unified
  24              		.thumb
  25              		.thumb_func
  27              	_ZN12PwmSingleOut4initEv:
  28              		.fnstart
  29              	.LVL0:
  30              	.LFB245:
  31              		.file 2 "Lib/PWMSingle/PWMSingle.hpp"
   1:Lib/PWMSingle/PWMSingle.hpp **** #ifndef __PWMSINGLE__
   2:Lib/PWMSingle/PWMSingle.hpp **** #define __PWMSINGLE__
   3:Lib/PWMSingle/PWMSingle.hpp **** 
   4:Lib/PWMSingle/PWMSingle.hpp **** #include "MyMath.hpp"
   5:Lib/PWMSingle/PWMSingle.hpp **** #include "tim.h"
   6:Lib/PWMSingle/PWMSingle.hpp **** 
   7:Lib/PWMSingle/PWMSingle.hpp **** #ifdef __cplusplus
   8:Lib/PWMSingle/PWMSingle.hpp **** extern "C" {
   9:Lib/PWMSingle/PWMSingle.hpp **** 
  10:Lib/PWMSingle/PWMSingle.hpp **** class PwmSingleOut {
  11:Lib/PWMSingle/PWMSingle.hpp ****      public:
  12:Lib/PWMSingle/PWMSingle.hpp ****       PwmSingleOut(TIM_HandleTypeDef *htim, uint32_t channel)
  13:Lib/PWMSingle/PWMSingle.hpp ****           : _htim(htim), _channel(channel), _maxValue(_htim->Init.Period) {
  14:Lib/PWMSingle/PWMSingle.hpp ****       }
  15:Lib/PWMSingle/PWMSingle.hpp **** 
  16:Lib/PWMSingle/PWMSingle.hpp ****       void init() {
  32              		.loc 2 16 12 view -0
  33              		.cfi_startproc
  34              		@ args = 0, pretend = 0, frame = 0
  35              		@ frame_needed = 0, uses_anonymous_args = 0
  36              		.loc 2 16 12 is_stmt 0 view .LVU1
  37 0000 10B5     		push	{r4, lr}
  38              		.save {r4, lr}
  39              	.LCFI0:
  40              		.cfi_def_cfa_offset 8
  41              		.cfi_offset 4, -8
  42              		.cfi_offset 14, -4
ARM GAS  /var/folders/5c/srt4fy4j1pd641bjfx75k5000000gn/T//ccVJQiKM.s 			page 2


  43 0002 0446     		mov	r4, r0
  17:Lib/PWMSingle/PWMSingle.hpp ****             HAL_TIM_PWM_Start(_htim, _channel);
  44              		.loc 2 17 13 is_stmt 1 view .LVU2
  45              		.loc 2 17 30 is_stmt 0 view .LVU3
  46 0004 4168     		ldr	r1, [r0, #4]
  47 0006 0068     		ldr	r0, [r0]
  48              	.LVL1:
  49              		.loc 2 17 30 view .LVU4
  50 0008 FFF7FEFF 		bl	HAL_TIM_PWM_Start
  51              	.LVL2:
  18:Lib/PWMSingle/PWMSingle.hpp ****             _maxValue = _htim->Init.Period;
  52              		.loc 2 18 13 is_stmt 1 view .LVU5
  53              		.loc 2 18 25 is_stmt 0 view .LVU6
  54 000c 2368     		ldr	r3, [r4]
  55              		.loc 2 18 37 view .LVU7
  56 000e DB68     		ldr	r3, [r3, #12]
  57              		.loc 2 18 23 view .LVU8
  58 0010 A360     		str	r3, [r4, #8]
  19:Lib/PWMSingle/PWMSingle.hpp ****       }
  59              		.loc 2 19 7 view .LVU9
  60 0012 10BD     		pop	{r4, pc}
  61              		.loc 2 19 7 view .LVU10
  62              		.cfi_endproc
  63              	.LFE245:
  64              		.fnend
  66              		.global	__aeabi_f2d
  67              		.global	__aeabi_ui2d
  68              		.global	__aeabi_dmul
  69              		.global	__aeabi_d2iz
  70              		.section	.text._ZN12PwmSingleOut5writeEf,"axG",%progbits,_ZN12PwmSingleOut5writeEf,comdat
  71              		.align	1
  72              		.weak	_ZN12PwmSingleOut5writeEf
  73              		.syntax unified
  74              		.thumb
  75              		.thumb_func
  77              	_ZN12PwmSingleOut5writeEf:
  78              		.fnstart
  79              	.LVL3:
  80              	.LFB246:
  20:Lib/PWMSingle/PWMSingle.hpp **** 
  21:Lib/PWMSingle/PWMSingle.hpp ****       void write(float duty) {
  81              		.loc 2 21 12 is_stmt 1 view -0
  82              		.cfi_startproc
  83              		@ args = 0, pretend = 0, frame = 0
  84              		@ frame_needed = 0, uses_anonymous_args = 0
  85              		.loc 2 21 12 is_stmt 0 view .LVU12
  86 0000 D0B5     		push	{r4, r6, r7, lr}
  87              	.LCFI1:
  88              		.cfi_def_cfa_offset 16
  89              		.cfi_offset 4, -16
  90              		.cfi_offset 6, -12
  91              		.cfi_offset 7, -8
  92              		.cfi_offset 14, -4
  93 0002 0446     		mov	r4, r0
  22:Lib/PWMSingle/PWMSingle.hpp ****             duty = (int)(Constrain(duty, 0.0, 1.0) * _maxValue);
  94              		.loc 2 22 13 is_stmt 1 view .LVU13
  95              		.loc 2 22 26 is_stmt 0 view .LVU14
ARM GAS  /var/folders/5c/srt4fy4j1pd641bjfx75k5000000gn/T//ccVJQiKM.s 			page 3


  96 0004 B5EEC00A 		vcmpe.f32	s0, #0
  97 0008 F1EE10FA 		vmrs	APSR_nzcv, FPSCR
  98 000c 10D4     		bmi	.L9
  99              		.loc 2 22 26 discriminator 2 view .LVU15
 100 000e F7EE007A 		vmov.f32	s15, #1.0e+0
 101 0012 B4EEE70A 		vcmpe.f32	s0, s15
 102 0016 F1EE10FA 		vmrs	APSR_nzcv, FPSCR
 103 001a 02DD     		ble	.L12
 104              		.loc 2 22 26 view .LVU16
 105 001c 0026     		movs	r6, #0
 106 001e 1D4F     		ldr	r7, .L15
 107 0020 08E0     		b	.L4
 108              	.L12:
 109              		.loc 2 22 26 discriminator 5 view .LVU17
 110 0022 10EE100A 		vmov	r0, s0
 111              	.LVL4:
 112              		.loc 2 22 26 discriminator 5 view .LVU18
 113 0026 FFF7FEFF 		bl	__aeabi_f2d
 114              	.LVL5:
 115              		.loc 2 22 26 discriminator 5 view .LVU19
 116 002a 0646     		mov	r6, r0
 117 002c 0F46     		mov	r7, r1
 118 002e 01E0     		b	.L4
 119              	.LVL6:
 120              	.L9:
 121              		.loc 2 22 26 view .LVU20
 122 0030 0026     		movs	r6, #0
 123 0032 0027     		movs	r7, #0
 124              	.LVL7:
 125              	.L4:
 126              		.loc 2 22 52 discriminator 8 view .LVU21
 127 0034 A068     		ldr	r0, [r4, #8]
 128 0036 FFF7FEFF 		bl	__aeabi_ui2d
 129              	.LVL8:
 130 003a 3246     		mov	r2, r6
 131 003c 3B46     		mov	r3, r7
 132 003e FFF7FEFF 		bl	__aeabi_dmul
 133              	.LVL9:
 134              		.loc 2 22 20 discriminator 8 view .LVU22
 135 0042 FFF7FEFF 		bl	__aeabi_d2iz
 136              	.LVL10:
 137 0046 07EE900A 		vmov	s15, r0	@ int
 138              		.loc 2 22 18 discriminator 8 view .LVU23
 139 004a F8EEE77A 		vcvt.f32.s32	s15, s15
 140              	.LVL11:
  23:Lib/PWMSingle/PWMSingle.hpp ****             __HAL_TIM_SET_COMPARE(_htim, _channel, duty);
 141              		.loc 2 23 13 is_stmt 1 discriminator 8 view .LVU24
 142 004e 6368     		ldr	r3, [r4, #4]
 143 0050 33B9     		cbnz	r3, .L5
 144              		.loc 2 23 13 is_stmt 0 discriminator 1 view .LVU25
 145 0052 2368     		ldr	r3, [r4]
 146 0054 1B68     		ldr	r3, [r3]
 147 0056 FCEEE77A 		vcvt.u32.f32	s15, s15
 148              	.LVL12:
 149              		.loc 2 23 13 discriminator 1 view .LVU26
 150 005a C3ED0D7A 		vstr.32	s15, [r3, #52]	@ int
 151              	.L3:
ARM GAS  /var/folders/5c/srt4fy4j1pd641bjfx75k5000000gn/T//ccVJQiKM.s 			page 4


  24:Lib/PWMSingle/PWMSingle.hpp ****       }
 152              		.loc 2 24 7 view .LVU27
 153 005e D0BD     		pop	{r4, r6, r7, pc}
 154              	.LVL13:
 155              	.L5:
  23:Lib/PWMSingle/PWMSingle.hpp ****             __HAL_TIM_SET_COMPARE(_htim, _channel, duty);
 156              		.loc 2 23 13 discriminator 2 view .LVU28
 157 0060 042B     		cmp	r3, #4
 158 0062 08D0     		beq	.L13
  23:Lib/PWMSingle/PWMSingle.hpp ****             __HAL_TIM_SET_COMPARE(_htim, _channel, duty);
 159              		.loc 2 23 13 discriminator 4 view .LVU29
 160 0064 082B     		cmp	r3, #8
 161 0066 0DD0     		beq	.L14
  23:Lib/PWMSingle/PWMSingle.hpp ****             __HAL_TIM_SET_COMPARE(_htim, _channel, duty);
 162              		.loc 2 23 13 discriminator 6 view .LVU30
 163 0068 2368     		ldr	r3, [r4]
 164 006a 1B68     		ldr	r3, [r3]
 165 006c FCEEE77A 		vcvt.u32.f32	s15, s15
 166              	.LVL14:
  23:Lib/PWMSingle/PWMSingle.hpp ****             __HAL_TIM_SET_COMPARE(_htim, _channel, duty);
 167              		.loc 2 23 13 discriminator 6 view .LVU31
 168 0070 C3ED107A 		vstr.32	s15, [r3, #64]	@ int
 169              		.loc 2 24 7 discriminator 6 view .LVU32
 170 0074 F3E7     		b	.L3
 171              	.LVL15:
 172              	.L13:
  23:Lib/PWMSingle/PWMSingle.hpp ****             __HAL_TIM_SET_COMPARE(_htim, _channel, duty);
 173              		.loc 2 23 13 discriminator 3 view .LVU33
 174 0076 2368     		ldr	r3, [r4]
 175 0078 1B68     		ldr	r3, [r3]
 176 007a FCEEE77A 		vcvt.u32.f32	s15, s15
 177              	.LVL16:
  23:Lib/PWMSingle/PWMSingle.hpp ****             __HAL_TIM_SET_COMPARE(_htim, _channel, duty);
 178              		.loc 2 23 13 discriminator 3 view .LVU34
 179 007e C3ED0E7A 		vstr.32	s15, [r3, #56]	@ int
 180 0082 ECE7     		b	.L3
 181              	.LVL17:
 182              	.L14:
  23:Lib/PWMSingle/PWMSingle.hpp ****             __HAL_TIM_SET_COMPARE(_htim, _channel, duty);
 183              		.loc 2 23 13 discriminator 5 view .LVU35
 184 0084 2368     		ldr	r3, [r4]
 185 0086 1B68     		ldr	r3, [r3]
 186 0088 FCEEE77A 		vcvt.u32.f32	s15, s15
 187              	.LVL18:
  23:Lib/PWMSingle/PWMSingle.hpp ****             __HAL_TIM_SET_COMPARE(_htim, _channel, duty);
 188              		.loc 2 23 13 discriminator 5 view .LVU36
 189 008c C3ED0F7A 		vstr.32	s15, [r3, #60]	@ int
 190 0090 E5E7     		b	.L3
 191              	.L16:
 192 0092 00BF     		.align	2
 193              	.L15:
 194 0094 0000F03F 		.word	1072693248
 195              		.cfi_endproc
 196              	.LFE246:
 197              		.cantunwind
 198              		.fnend
 200              		.section	.text._ZN10MotorDriveC2EP12PwmSingleOutS1_S1_S1_PtS2_,"ax",%progbits
ARM GAS  /var/folders/5c/srt4fy4j1pd641bjfx75k5000000gn/T//ccVJQiKM.s 			page 5


 201              		.align	1
 202              		.global	_ZN10MotorDriveC2EP12PwmSingleOutS1_S1_S1_PtS2_
 203              		.syntax unified
 204              		.thumb
 205              		.thumb_func
 207              	_ZN10MotorDriveC2EP12PwmSingleOutS1_S1_S1_PtS2_:
 208              		.fnstart
 209              	.LVL19:
 210              	.LFB249:
   1:src/unit/motorDrive.cpp **** #include "motorDrive.hpp"
   2:src/unit/motorDrive.cpp **** 
   3:src/unit/motorDrive.cpp **** MotorDrive::MotorDrive(PwmSingleOut *motor1a, PwmSingleOut *motor1b, PwmSingleOut *motor2a, PwmSing
 211              		.loc 1 3 1 is_stmt 1 view -0
 212              		.cfi_startproc
 213              		@ args = 12, pretend = 0, frame = 0
 214              		@ frame_needed = 0, uses_anonymous_args = 0
 215              		.loc 1 3 1 is_stmt 0 view .LVU38
 216 0000 10B5     		push	{r4, lr}
 217              		.save {r4, lr}
 218              	.LCFI2:
 219              		.cfi_def_cfa_offset 8
 220              		.cfi_offset 4, -8
 221              		.cfi_offset 14, -4
 222 0002 0446     		mov	r4, r0
 223              	.LBB2:
   4:src/unit/motorDrive.cpp ****     : _motor1a(motor1a), _motor1b(motor1b), _motor2a(motor2a), _motor2b(motor2b) {
 224              		.loc 1 4 7 view .LVU39
 225 0004 0160     		str	r1, [r0]
 226              		.loc 1 4 26 view .LVU40
 227 0006 4260     		str	r2, [r0, #4]
 228              		.loc 1 4 45 view .LVU41
 229 0008 8360     		str	r3, [r0, #8]
 230              		.loc 1 4 64 view .LVU42
 231 000a 029B     		ldr	r3, [sp, #8]
 232              	.LVL20:
 233              		.loc 1 4 64 view .LVU43
 234 000c C360     		str	r3, [r0, #12]
 235              		.loc 1 4 80 view .LVU44
 236 000e 1830     		adds	r0, r0, #24
 237              	.LVL21:
 238              		.loc 1 4 80 view .LVU45
 239 0010 FFF7FEFF 		bl	_ZN5TimerC1Ev
 240              	.LVL22:
   5:src/unit/motorDrive.cpp ****       this->_encoderValLeft = encoderValLeft;
 241              		.loc 1 5 7 is_stmt 1 view .LVU46
 242              		.loc 1 5 29 is_stmt 0 view .LVU47
 243 0014 039B     		ldr	r3, [sp, #12]
 244 0016 2361     		str	r3, [r4, #16]
   6:src/unit/motorDrive.cpp ****       this->_encoderValRight = encoderValRight;
 245              		.loc 1 6 7 is_stmt 1 view .LVU48
 246              		.loc 1 6 30 is_stmt 0 view .LVU49
 247 0018 049B     		ldr	r3, [sp, #16]
 248 001a 6361     		str	r3, [r4, #20]
   7:src/unit/motorDrive.cpp ****       this->Kp = 6;
 249              		.loc 1 7 7 is_stmt 1 view .LVU50
 250              		.loc 1 7 16 is_stmt 0 view .LVU51
 251 001c 0022     		movs	r2, #0
ARM GAS  /var/folders/5c/srt4fy4j1pd641bjfx75k5000000gn/T//ccVJQiKM.s 			page 6


 252 001e 044B     		ldr	r3, .L19
 253 0020 C4E92A23 		strd	r2, [r4, #168]
   8:src/unit/motorDrive.cpp ****       this->Ki = 3;
 254              		.loc 1 8 7 is_stmt 1 view .LVU52
 255              		.loc 1 8 16 is_stmt 0 view .LVU53
 256 0024 0022     		movs	r2, #0
 257 0026 034B     		ldr	r3, .L19+4
 258 0028 C4E92C23 		strd	r2, [r4, #176]
 259              	.LBE2:
   9:src/unit/motorDrive.cpp **** }
 260              		.loc 1 9 1 view .LVU54
 261 002c 2046     		mov	r0, r4
 262 002e 10BD     		pop	{r4, pc}
 263              	.LVL23:
 264              	.L20:
 265              		.loc 1 9 1 view .LVU55
 266              		.align	2
 267              	.L19:
 268 0030 00001840 		.word	1075314688
 269 0034 00000840 		.word	1074266112
 270              		.cfi_endproc
 271              	.LFE249:
 272              		.fnend
 274              		.global	_ZN10MotorDriveC1EP12PwmSingleOutS1_S1_S1_PtS2_
 275              		.thumb_set _ZN10MotorDriveC1EP12PwmSingleOutS1_S1_S1_PtS2_,_ZN10MotorDriveC2EP12PwmSingleOutS1_S1_
 276              		.section	.text._ZN10MotorDrive4initEv,"ax",%progbits
 277              		.align	1
 278              		.global	_ZN10MotorDrive4initEv
 279              		.syntax unified
 280              		.thumb
 281              		.thumb_func
 283              	_ZN10MotorDrive4initEv:
 284              		.fnstart
 285              	.LVL24:
 286              	.LFB251:
  10:src/unit/motorDrive.cpp **** 
  11:src/unit/motorDrive.cpp **** void MotorDrive::init() {
 287              		.loc 1 11 25 is_stmt 1 view -0
 288              		.cfi_startproc
 289              		@ args = 0, pretend = 0, frame = 0
 290              		@ frame_needed = 0, uses_anonymous_args = 0
 291              		.loc 1 11 25 is_stmt 0 view .LVU57
 292 0000 10B5     		push	{r4, lr}
 293              		.save {r4, lr}
 294              	.LCFI3:
 295              		.cfi_def_cfa_offset 8
 296              		.cfi_offset 4, -8
 297              		.cfi_offset 14, -4
 298 0002 0446     		mov	r4, r0
  12:src/unit/motorDrive.cpp ****       _motor1a->init();
 299              		.loc 1 12 7 is_stmt 1 view .LVU58
 300              		.loc 1 12 21 is_stmt 0 view .LVU59
 301 0004 0068     		ldr	r0, [r0]
 302              	.LVL25:
 303              		.loc 1 12 21 view .LVU60
 304 0006 FFF7FEFF 		bl	_ZN12PwmSingleOut4initEv
 305              	.LVL26:
ARM GAS  /var/folders/5c/srt4fy4j1pd641bjfx75k5000000gn/T//ccVJQiKM.s 			page 7


  13:src/unit/motorDrive.cpp ****       _motor1b->init();
 306              		.loc 1 13 7 is_stmt 1 view .LVU61
 307              		.loc 1 13 21 is_stmt 0 view .LVU62
 308 000a 6068     		ldr	r0, [r4, #4]
 309 000c FFF7FEFF 		bl	_ZN12PwmSingleOut4initEv
 310              	.LVL27:
  14:src/unit/motorDrive.cpp ****       _motor2a->init();
 311              		.loc 1 14 7 is_stmt 1 view .LVU63
 312              		.loc 1 14 21 is_stmt 0 view .LVU64
 313 0010 A068     		ldr	r0, [r4, #8]
 314 0012 FFF7FEFF 		bl	_ZN12PwmSingleOut4initEv
 315              	.LVL28:
  15:src/unit/motorDrive.cpp ****       _motor2b->init();
 316              		.loc 1 15 7 is_stmt 1 view .LVU65
 317              		.loc 1 15 21 is_stmt 0 view .LVU66
 318 0016 E068     		ldr	r0, [r4, #12]
 319 0018 FFF7FEFF 		bl	_ZN12PwmSingleOut4initEv
 320              	.LVL29:
  16:src/unit/motorDrive.cpp **** }
 321              		.loc 1 16 1 view .LVU67
 322 001c 10BD     		pop	{r4, pc}
 323              		.loc 1 16 1 view .LVU68
 324              		.cfi_endproc
 325              	.LFE251:
 326              		.fnend
 328              		.section	.rodata._ZN10MotorDrive3runEv.str1.4,"aMS",%progbits,1
 329              		.align	2
 330              	.LC0:
 331 0000 25662C20 		.ascii	"%f, %f\012\000"
 331      25660A00 
 332              		.global	__aeabi_dcmpeq
 333              		.global	__aeabi_dsub
 334              		.global	__aeabi_dcmpgt
 335              		.global	__aeabi_ddiv
 336              		.global	__aeabi_i2d
 337              		.global	__aeabi_dadd
 338              		.global	__aeabi_dcmplt
 339              		.global	__aeabi_d2f
 340              		.section	.text._ZN10MotorDrive3runEv,"ax",%progbits
 341              		.align	1
 342              		.global	_ZN10MotorDrive3runEv
 343              		.syntax unified
 344              		.thumb
 345              		.thumb_func
 347              	_ZN10MotorDrive3runEv:
 348              		.fnstart
 349              	.LVL30:
 350              	.LFB253:
  17:src/unit/motorDrive.cpp **** void MotorDrive::encoderCompute() {
  18:src/unit/motorDrive.cpp ****       // 最大値を求める
  19:src/unit/motorDrive.cpp ****       if (*_encoderValLeft != 0 && *_encoderValRight != 0) {
  20:src/unit/motorDrive.cpp ****             if (*_encoderValLeft > encoder.maxValLeft) encoder.maxValLeft = *_encoderValLeft;
  21:src/unit/motorDrive.cpp ****             encoder.radLeft = *_encoderValLeft * (2 * PI / encoder.maxValLeft);
  22:src/unit/motorDrive.cpp ****             if (*_encoderValRight > encoder.maxValRight) encoder.maxValRight = *_encoderValRight;
  23:src/unit/motorDrive.cpp ****             encoder.radRight = *_encoderValRight * (2 * PI / encoder.maxValRight);
  24:src/unit/motorDrive.cpp ****             run();
  25:src/unit/motorDrive.cpp ****       }
ARM GAS  /var/folders/5c/srt4fy4j1pd641bjfx75k5000000gn/T//ccVJQiKM.s 			page 8


  26:src/unit/motorDrive.cpp **** }
  27:src/unit/motorDrive.cpp **** 
  28:src/unit/motorDrive.cpp **** void MotorDrive::run() {
 351              		.loc 1 28 24 is_stmt 1 view -0
 352              		.cfi_startproc
 353              		@ args = 0, pretend = 0, frame = 16
 354              		@ frame_needed = 0, uses_anonymous_args = 0
 355              		.loc 1 28 24 is_stmt 0 view .LVU70
 356 0000 2DE9F04F 		push	{r4, r5, r6, r7, r8, r9, r10, fp, lr}
 357              		.save {r4, r5, r6, r7, r8, r9, r10, fp, lr}
 358              	.LCFI4:
 359              		.cfi_def_cfa_offset 36
 360              		.cfi_offset 4, -36
 361              		.cfi_offset 5, -32
 362              		.cfi_offset 6, -28
 363              		.cfi_offset 7, -24
 364              		.cfi_offset 8, -20
 365              		.cfi_offset 9, -16
 366              		.cfi_offset 10, -12
 367              		.cfi_offset 11, -8
 368              		.cfi_offset 14, -4
 369 0004 2DED048B 		vpush.64	{d8, d9}
 370              		.vsave {d8, d9}
 371              	.LCFI5:
 372              		.cfi_def_cfa_offset 52
 373              		.cfi_offset 80, -52
 374              		.cfi_offset 81, -48
 375              		.cfi_offset 82, -44
 376              		.cfi_offset 83, -40
 377              		.pad #28
 378 0008 87B0     		sub	sp, sp, #28
 379              	.LCFI6:
 380              		.cfi_def_cfa_offset 80
 381 000a 8246     		mov	r10, r0
  29:src/unit/motorDrive.cpp ****       printf("%f, %f\n", encoder.radLeft, encoder.radRight);
 382              		.loc 1 29 7 is_stmt 1 view .LVU71
 383              		.loc 1 29 13 is_stmt 0 view .LVU72
 384 000c D0E91223 		ldrd	r2, [r0, #72]
 385 0010 CDE90023 		strd	r2, [sp]
 386 0014 D0E91023 		ldrd	r2, [r0, #64]
 387 0018 BD48     		ldr	r0, .L95+24
 388              	.LVL31:
 389              		.loc 1 29 13 view .LVU73
 390 001a FFF7FEFF 		bl	printf
 391              	.LVL32:
  30:src/unit/motorDrive.cpp ****       if (encoder.preRadLeft != encoder.radLeft || encoder.preRadRight != encoder.radRight) {
 392              		.loc 1 30 7 is_stmt 1 view .LVU74
 393 001e DAE91023 		ldrd	r2, [r10, #64]
 394 0022 DAE90C01 		ldrd	r0, [r10, #48]
 395 0026 FFF7FEFF 		bl	__aeabi_dcmpeq
 396              	.LVL33:
 397 002a 40B1     		cbz	r0, .L24
 398              		.loc 1 30 49 is_stmt 0 discriminator 1 view .LVU75
 399 002c DAE91223 		ldrd	r2, [r10, #72]
 400 0030 DAE90E01 		ldrd	r0, [r10, #56]
 401 0034 FFF7FEFF 		bl	__aeabi_dcmpeq
 402              	.LVL34:
ARM GAS  /var/folders/5c/srt4fy4j1pd641bjfx75k5000000gn/T//ccVJQiKM.s 			page 9


 403 0038 0028     		cmp	r0, #0
 404 003a 40F04F82 		bne	.L23
 405              	.L24:
  31:src/unit/motorDrive.cpp ****             dt = periodTimer.read_us() / 1000000.0f;
 406              		.loc 1 31 13 is_stmt 1 view .LVU76
 407              		.loc 1 31 37 is_stmt 0 view .LVU77
 408 003e 0AF11804 		add	r4, r10, #24
 409 0042 2046     		mov	r0, r4
 410 0044 FFF7FEFF 		bl	_ZN5Timer7read_usEv
 411              	.LVL35:
 412 0048 07EE900A 		vmov	s15, r0	@ int
 413              		.loc 1 31 40 view .LVU78
 414 004c F8EE677A 		vcvt.f32.u32	s15, s15
 415 0050 9FEDB07A 		vldr.32	s14, .L95+28
 416 0054 C7EE877A 		vdiv.f32	s15, s15, s14
 417 0058 17EE900A 		vmov	r0, s15
 418 005c FFF7FEFF 		bl	__aeabi_f2d
 419              	.LVL36:
 420              		.loc 1 31 16 view .LVU79
 421 0060 CAE92801 		strd	r0, [r10, #160]
  32:src/unit/motorDrive.cpp ****             periodTimer.reset();
 422              		.loc 1 32 13 is_stmt 1 view .LVU80
 423              		.loc 1 32 30 is_stmt 0 view .LVU81
 424 0064 2046     		mov	r0, r4
 425 0066 FFF7FEFF 		bl	_ZN5Timer5resetEv
 426              	.LVL37:
  33:src/unit/motorDrive.cpp **** 
  34:src/unit/motorDrive.cpp ****             // 角度の差を求める
  35:src/unit/motorDrive.cpp ****             encoder.difRadLeft = encoder.radLeft - encoder.preRadLeft;
 427              		.loc 1 35 13 is_stmt 1 view .LVU82
 428              		.loc 1 35 42 is_stmt 0 view .LVU83
 429 006a 9AED108B 		vldr.64	d8, [r10, #64]
 430              		.loc 1 35 50 view .LVU84
 431 006e DAE90C23 		ldrd	r2, [r10, #48]
 432 0072 51EC180B 		vmov	r0, r1, d8
 433 0076 FFF7FEFF 		bl	__aeabi_dsub
 434              	.LVL38:
 435 007a 0646     		mov	r6, r0
 436 007c 0F46     		mov	r7, r1
 437              		.loc 1 35 32 view .LVU85
 438 007e CAE91467 		strd	r6, [r10, #80]
  36:src/unit/motorDrive.cpp ****             encoder.difRadRight = encoder.radRight - encoder.preRadRight;
 439              		.loc 1 36 13 is_stmt 1 view .LVU86
 440              		.loc 1 36 43 is_stmt 0 view .LVU87
 441 0082 DAE91289 		ldrd	r8, [r10, #72]
 442              		.loc 1 36 52 view .LVU88
 443 0086 DAE90E23 		ldrd	r2, [r10, #56]
 444 008a 4046     		mov	r0, r8
 445 008c 4946     		mov	r1, r9
 446 008e FFF7FEFF 		bl	__aeabi_dsub
 447              	.LVL39:
 448 0092 0446     		mov	r4, r0
 449 0094 0D46     		mov	r5, r1
 450              		.loc 1 36 33 view .LVU89
 451 0096 CAE91645 		strd	r4, [r10, #88]
  37:src/unit/motorDrive.cpp ****             encoder.preRadLeft = encoder.radLeft;
 452              		.loc 1 37 13 is_stmt 1 view .LVU90
ARM GAS  /var/folders/5c/srt4fy4j1pd641bjfx75k5000000gn/T//ccVJQiKM.s 			page 10


 453              		.loc 1 37 32 is_stmt 0 view .LVU91
 454 009a 8AED0C8B 		vstr.64	d8, [r10, #48]
  38:src/unit/motorDrive.cpp ****             encoder.preRadRight = encoder.radRight;
 455              		.loc 1 38 13 is_stmt 1 view .LVU92
 456              		.loc 1 38 33 is_stmt 0 view .LVU93
 457 009e CAE90E89 		strd	r8, [r10, #56]
  39:src/unit/motorDrive.cpp **** 
  40:src/unit/motorDrive.cpp ****             // PI以上変わった時に修正
  41:src/unit/motorDrive.cpp ****             if (abs(encoder.difRadLeft) > PI) encoder.difRadLeft -= 2 * PI * (abs(encoder.difRadLef
 458              		.loc 1 41 13 is_stmt 1 view .LVU94
 459              		.loc 1 41 17 is_stmt 0 view .LVU95
 460 00a2 0022     		movs	r2, #0
 461 00a4 0023     		movs	r3, #0
 462 00a6 3046     		mov	r0, r6
 463 00a8 3946     		mov	r1, r7
 464 00aa FFF7FEFF 		bl	__aeabi_dcmpgt
 465              	.LVL40:
 466 00ae 0028     		cmp	r0, #0
 467 00b0 00F01982 		beq	.L83
 468 00b4 B046     		mov	r8, r6
 469 00b6 B946     		mov	r9, r7
 470              	.L27:
 471              		.loc 1 41 13 discriminator 4 view .LVU96
 472 00b8 8FA3     		adr	r3, .L95
 473 00ba D3E90023 		ldrd	r2, [r3]
 474 00be 4046     		mov	r0, r8
 475 00c0 4946     		mov	r1, r9
 476 00c2 FFF7FEFF 		bl	__aeabi_dcmpgt
 477              	.LVL41:
 478 00c6 90B1     		cbz	r0, .L28
 479              		.loc 1 41 47 is_stmt 1 discriminator 9 view .LVU97
 480              		.loc 1 41 103 is_stmt 0 discriminator 9 view .LVU98
 481 00c8 3246     		mov	r2, r6
 482 00ca 3B46     		mov	r3, r7
 483 00cc 4046     		mov	r0, r8
 484 00ce 4946     		mov	r1, r9
 485 00d0 FFF7FEFF 		bl	__aeabi_ddiv
 486              	.LVL42:
 487              		.loc 1 41 76 discriminator 9 view .LVU99
 488 00d4 8AA3     		adr	r3, .L95+8
 489 00d6 D3E90023 		ldrd	r2, [r3]
 490 00da FFF7FEFF 		bl	__aeabi_dmul
 491              	.LVL43:
 492 00de 0246     		mov	r2, r0
 493 00e0 0B46     		mov	r3, r1
 494              		.loc 1 41 66 discriminator 9 view .LVU100
 495 00e2 3046     		mov	r0, r6
 496 00e4 3946     		mov	r1, r7
 497 00e6 FFF7FEFF 		bl	__aeabi_dsub
 498              	.LVL44:
 499 00ea CAE91401 		strd	r0, [r10, #80]
 500              	.L28:
  42:src/unit/motorDrive.cpp ****             if (abs(encoder.difRadRight) > PI) encoder.difRadRight -= 2 * PI * (abs(encoder.difRadR
 501              		.loc 1 42 13 is_stmt 1 view .LVU101
 502              		.loc 1 42 17 is_stmt 0 view .LVU102
 503 00ee 0022     		movs	r2, #0
 504 00f0 0023     		movs	r3, #0
ARM GAS  /var/folders/5c/srt4fy4j1pd641bjfx75k5000000gn/T//ccVJQiKM.s 			page 11


 505 00f2 2046     		mov	r0, r4
 506 00f4 2946     		mov	r1, r5
 507 00f6 FFF7FEFF 		bl	__aeabi_dcmpgt
 508              	.LVL45:
 509 00fa 0028     		cmp	r0, #0
 510 00fc 00F0F781 		beq	.L84
 511 0100 2646     		mov	r6, r4
 512 0102 2F46     		mov	r7, r5
 513              	.L30:
 514              		.loc 1 42 13 discriminator 4 view .LVU103
 515 0104 7CA3     		adr	r3, .L95
 516 0106 D3E90023 		ldrd	r2, [r3]
 517 010a 3046     		mov	r0, r6
 518 010c 3946     		mov	r1, r7
 519 010e FFF7FEFF 		bl	__aeabi_dcmpgt
 520              	.LVL46:
 521 0112 90B1     		cbz	r0, .L31
 522              		.loc 1 42 48 is_stmt 1 discriminator 9 view .LVU104
 523              		.loc 1 42 106 is_stmt 0 discriminator 9 view .LVU105
 524 0114 2246     		mov	r2, r4
 525 0116 2B46     		mov	r3, r5
 526 0118 3046     		mov	r0, r6
 527 011a 3946     		mov	r1, r7
 528 011c FFF7FEFF 		bl	__aeabi_ddiv
 529              	.LVL47:
 530              		.loc 1 42 78 discriminator 9 view .LVU106
 531 0120 77A3     		adr	r3, .L95+8
 532 0122 D3E90023 		ldrd	r2, [r3]
 533 0126 FFF7FEFF 		bl	__aeabi_dmul
 534              	.LVL48:
 535 012a 0246     		mov	r2, r0
 536 012c 0B46     		mov	r3, r1
 537              		.loc 1 42 68 discriminator 9 view .LVU107
 538 012e 2046     		mov	r0, r4
 539 0130 2946     		mov	r1, r5
 540 0132 FFF7FEFF 		bl	__aeabi_dsub
 541              	.LVL49:
 542 0136 CAE91601 		strd	r0, [r10, #88]
 543              	.L31:
  43:src/unit/motorDrive.cpp **** 
  44:src/unit/motorDrive.cpp ****             // rad/sに変換
  45:src/unit/motorDrive.cpp ****             encoder.speedLeft = encoder.difRadLeft / dt * -1;
 544              		.loc 1 45 13 is_stmt 1 view .LVU108
 545              		.loc 1 45 54 is_stmt 0 view .LVU109
 546 013a DAE92845 		ldrd	r4, [r10, #160]
 547              		.loc 1 45 52 view .LVU110
 548 013e 2246     		mov	r2, r4
 549 0140 2B46     		mov	r3, r5
 550 0142 DAE91401 		ldrd	r0, [r10, #80]
 551 0146 FFF7FEFF 		bl	__aeabi_ddiv
 552              	.LVL50:
 553              		.loc 1 45 57 view .LVU111
 554 014a 0646     		mov	r6, r0
 555 014c 01F10047 		add	r7, r1, #-2147483648
 556              		.loc 1 45 31 view .LVU112
 557 0150 CAE90867 		strd	r6, [r10, #32]
  46:src/unit/motorDrive.cpp ****             encoder.speedRight = encoder.difRadRight / dt;
ARM GAS  /var/folders/5c/srt4fy4j1pd641bjfx75k5000000gn/T//ccVJQiKM.s 			page 12


 558              		.loc 1 46 13 is_stmt 1 view .LVU113
 559              		.loc 1 46 54 is_stmt 0 view .LVU114
 560 0154 2246     		mov	r2, r4
 561 0156 2B46     		mov	r3, r5
 562 0158 DAE91601 		ldrd	r0, [r10, #88]
 563 015c FFF7FEFF 		bl	__aeabi_ddiv
 564              	.LVL51:
 565 0160 8046     		mov	r8, r0
 566 0162 8946     		mov	r9, r1
 567              		.loc 1 46 32 view .LVU115
 568 0164 CAE90A89 		strd	r8, [r10, #40]
  47:src/unit/motorDrive.cpp **** 
  48:src/unit/motorDrive.cpp ****             dLeft = encoder.speedLeft - speedLeft;
 569              		.loc 1 48 13 is_stmt 1 view .LVU116
 570              		.loc 1 48 41 is_stmt 0 view .LVU117
 571 0168 BAF968B0 		ldrsh	fp, [r10, #104]
 572              		.loc 1 48 39 view .LVU118
 573 016c 5846     		mov	r0, fp
 574 016e FFF7FEFF 		bl	__aeabi_i2d
 575              	.LVL52:
 576 0172 0246     		mov	r2, r0
 577 0174 0B46     		mov	r3, r1
 578 0176 3046     		mov	r0, r6
 579 0178 3946     		mov	r1, r7
 580 017a FFF7FEFF 		bl	__aeabi_dsub
 581              	.LVL53:
 582 017e 41EC190B 		vmov	d9, r0, r1
 583              		.loc 1 48 19 view .LVU119
 584 0182 CAE92001 		strd	r0, [r10, #128]
  49:src/unit/motorDrive.cpp ****             dRight = encoder.speedRight - speedRight;
 585              		.loc 1 49 13 is_stmt 1 view .LVU120
 586              		.loc 1 49 43 is_stmt 0 view .LVU121
 587 0186 BAF96A60 		ldrsh	r6, [r10, #106]
 588              		.loc 1 49 41 view .LVU122
 589 018a 3046     		mov	r0, r6
 590 018c FFF7FEFF 		bl	__aeabi_i2d
 591              	.LVL54:
 592 0190 0246     		mov	r2, r0
 593 0192 0B46     		mov	r3, r1
 594 0194 4046     		mov	r0, r8
 595 0196 4946     		mov	r1, r9
 596 0198 FFF7FEFF 		bl	__aeabi_dsub
 597              	.LVL55:
 598 019c 41EC180B 		vmov	d8, r0, r1
 599              		.loc 1 49 20 view .LVU123
 600 01a0 CAE92201 		strd	r0, [r10, #136]
  50:src/unit/motorDrive.cpp ****             iLeft += dLeft * dt;
 601              		.loc 1 50 13 is_stmt 1 view .LVU124
 602 01a4 DAE92489 		ldrd	r8, [r10, #144]
 603              		.loc 1 50 28 is_stmt 0 view .LVU125
 604 01a8 53EC192B 		vmov	r2, r3, d9
 605 01ac 2046     		mov	r0, r4
 606 01ae 2946     		mov	r1, r5
 607 01b0 FFF7FEFF 		bl	__aeabi_dmul
 608              	.LVL56:
 609 01b4 0246     		mov	r2, r0
 610 01b6 0B46     		mov	r3, r1
ARM GAS  /var/folders/5c/srt4fy4j1pd641bjfx75k5000000gn/T//ccVJQiKM.s 			page 13


 611              		.loc 1 50 19 view .LVU126
 612 01b8 4046     		mov	r0, r8
 613 01ba 4946     		mov	r1, r9
 614 01bc FFF7FEFF 		bl	__aeabi_dadd
 615              	.LVL57:
 616 01c0 CDE90201 		strd	r0, [sp, #8]
 617 01c4 CAE92401 		strd	r0, [r10, #144]
  51:src/unit/motorDrive.cpp ****             iRight += dRight * dt;
 618              		.loc 1 51 13 is_stmt 1 view .LVU127
 619 01c8 DAE92689 		ldrd	r8, [r10, #152]
 620              		.loc 1 51 30 is_stmt 0 view .LVU128
 621 01cc 53EC182B 		vmov	r2, r3, d8
 622 01d0 2046     		mov	r0, r4
 623 01d2 2946     		mov	r1, r5
 624 01d4 FFF7FEFF 		bl	__aeabi_dmul
 625              	.LVL58:
 626 01d8 0246     		mov	r2, r0
 627 01da 0B46     		mov	r3, r1
 628              		.loc 1 51 20 view .LVU129
 629 01dc 4046     		mov	r0, r8
 630 01de 4946     		mov	r1, r9
 631 01e0 FFF7FEFF 		bl	__aeabi_dadd
 632              	.LVL59:
 633 01e4 CDE90401 		strd	r0, [sp, #16]
 634 01e8 CAE92601 		strd	r0, [r10, #152]
  52:src/unit/motorDrive.cpp ****             if (abs(iLeft * Ki) > 300) iLeft = 300 / Ki * (abs(iLeft) / iLeft);
 635              		.loc 1 52 13 is_stmt 1 view .LVU130
 636              		.loc 1 52 17 is_stmt 0 view .LVU131
 637 01ec DAE92C89 		ldrd	r8, [r10, #176]
 638 01f0 4246     		mov	r2, r8
 639 01f2 4B46     		mov	r3, r9
 640 01f4 DDE90201 		ldrd	r0, [sp, #8]
 641 01f8 FFF7FEFF 		bl	__aeabi_dmul
 642              	.LVL60:
 643 01fc 0446     		mov	r4, r0
 644 01fe 0D46     		mov	r5, r1
 645 0200 0022     		movs	r2, #0
 646 0202 0023     		movs	r3, #0
 647 0204 FFF7FEFF 		bl	__aeabi_dcmpgt
 648              	.LVL61:
 649 0208 0028     		cmp	r0, #0
 650 020a 00F07481 		beq	.L85
 651              	.L33:
 652              		.loc 1 52 13 discriminator 4 view .LVU132
 653 020e 3EA3     		adr	r3, .L95+16
 654 0210 D3E90023 		ldrd	r2, [r3]
 655 0214 2046     		mov	r0, r4
 656 0216 2946     		mov	r1, r5
 657 0218 FFF7FEFF 		bl	__aeabi_dcmpgt
 658              	.LVL62:
 659 021c F8B1     		cbz	r0, .L34
 660              		.loc 1 52 40 is_stmt 1 discriminator 5 view .LVU133
 661              		.loc 1 52 52 is_stmt 0 discriminator 5 view .LVU134
 662 021e 4246     		mov	r2, r8
 663 0220 4B46     		mov	r3, r9
 664 0222 39A1     		adr	r1, .L95+16
 665 0224 D1E90001 		ldrd	r0, [r1]
ARM GAS  /var/folders/5c/srt4fy4j1pd641bjfx75k5000000gn/T//ccVJQiKM.s 			page 14


 666 0228 FFF7FEFF 		bl	__aeabi_ddiv
 667              	.LVL63:
 668 022c 0446     		mov	r4, r0
 669 022e 0D46     		mov	r5, r1
 670              		.loc 1 52 60 discriminator 5 view .LVU135
 671 0230 0022     		movs	r2, #0
 672 0232 0023     		movs	r3, #0
 673 0234 DDE90201 		ldrd	r0, [sp, #8]
 674 0238 FFF7FEFF 		bl	__aeabi_dcmpgt
 675              	.LVL64:
 676 023c 0028     		cmp	r0, #0
 677 023e 00F05E81 		beq	.L86
 678              		.loc 1 52 60 view .LVU136
 679 0242 DDE90201 		ldrd	r0, [sp, #8]
 680              	.L36:
 681              		.loc 1 52 71 discriminator 9 view .LVU137
 682 0246 DDE90223 		ldrd	r2, [sp, #8]
 683 024a FFF7FEFF 		bl	__aeabi_ddiv
 684              	.LVL65:
 685 024e 0246     		mov	r2, r0
 686 0250 0B46     		mov	r3, r1
 687              		.loc 1 52 57 discriminator 9 view .LVU138
 688 0252 2046     		mov	r0, r4
 689 0254 2946     		mov	r1, r5
 690 0256 FFF7FEFF 		bl	__aeabi_dmul
 691              	.LVL66:
 692              		.loc 1 52 46 discriminator 9 view .LVU139
 693 025a CAE92401 		strd	r0, [r10, #144]
 694              	.L34:
  53:src/unit/motorDrive.cpp ****             if (abs(iRight * Ki) > 300) iRight = 300 / Ki * (abs(iRight) / iRight);
 695              		.loc 1 53 13 is_stmt 1 view .LVU140
 696              		.loc 1 53 17 is_stmt 0 view .LVU141
 697 025e 4246     		mov	r2, r8
 698 0260 4B46     		mov	r3, r9
 699 0262 DDE90401 		ldrd	r0, [sp, #16]
 700 0266 FFF7FEFF 		bl	__aeabi_dmul
 701              	.LVL67:
 702 026a 0446     		mov	r4, r0
 703 026c 0D46     		mov	r5, r1
 704 026e 0022     		movs	r2, #0
 705 0270 0023     		movs	r3, #0
 706 0272 FFF7FEFF 		bl	__aeabi_dcmpgt
 707              	.LVL68:
 708 0276 0028     		cmp	r0, #0
 709 0278 00F04781 		beq	.L87
 710              	.L37:
 711              		.loc 1 53 13 discriminator 4 view .LVU142
 712 027c 22A3     		adr	r3, .L95+16
 713 027e D3E90023 		ldrd	r2, [r3]
 714 0282 2046     		mov	r0, r4
 715 0284 2946     		mov	r1, r5
 716 0286 FFF7FEFF 		bl	__aeabi_dcmpgt
 717              	.LVL69:
 718 028a F8B1     		cbz	r0, .L38
 719              		.loc 1 53 41 is_stmt 1 discriminator 5 view .LVU143
 720              		.loc 1 53 54 is_stmt 0 discriminator 5 view .LVU144
 721 028c 4246     		mov	r2, r8
ARM GAS  /var/folders/5c/srt4fy4j1pd641bjfx75k5000000gn/T//ccVJQiKM.s 			page 15


 722 028e 4B46     		mov	r3, r9
 723 0290 1DA1     		adr	r1, .L95+16
 724 0292 D1E90001 		ldrd	r0, [r1]
 725 0296 FFF7FEFF 		bl	__aeabi_ddiv
 726              	.LVL70:
 727 029a 0446     		mov	r4, r0
 728 029c 0D46     		mov	r5, r1
 729              		.loc 1 53 62 discriminator 5 view .LVU145
 730 029e 0022     		movs	r2, #0
 731 02a0 0023     		movs	r3, #0
 732 02a2 DDE90401 		ldrd	r0, [sp, #16]
 733 02a6 FFF7FEFF 		bl	__aeabi_dcmpgt
 734              	.LVL71:
 735 02aa 0028     		cmp	r0, #0
 736 02ac 00F03181 		beq	.L88
 737              		.loc 1 53 62 view .LVU146
 738 02b0 DDE90401 		ldrd	r0, [sp, #16]
 739              	.L40:
 740              		.loc 1 53 74 discriminator 9 view .LVU147
 741 02b4 DDE90423 		ldrd	r2, [sp, #16]
 742 02b8 FFF7FEFF 		bl	__aeabi_ddiv
 743              	.LVL72:
 744 02bc 0246     		mov	r2, r0
 745 02be 0B46     		mov	r3, r1
 746              		.loc 1 53 59 discriminator 9 view .LVU148
 747 02c0 2046     		mov	r0, r4
 748 02c2 2946     		mov	r1, r5
 749 02c4 FFF7FEFF 		bl	__aeabi_dmul
 750              	.LVL73:
 751              		.loc 1 53 48 discriminator 9 view .LVU149
 752 02c8 CAE92601 		strd	r0, [r10, #152]
 753              	.L38:
  54:src/unit/motorDrive.cpp ****             if (speedLeft == 0) iLeft *= 0.5;
 754              		.loc 1 54 13 is_stmt 1 view .LVU150
 755 02cc BBF1000F 		cmp	fp, #0
 756 02d0 07D1     		bne	.L41
 757              		.loc 1 54 33 discriminator 1 view .LVU151
 758              		.loc 1 54 39 is_stmt 0 discriminator 1 view .LVU152
 759 02d2 0022     		movs	r2, #0
 760 02d4 104B     		ldr	r3, .L95+32
 761 02d6 DAE92401 		ldrd	r0, [r10, #144]
 762 02da FFF7FEFF 		bl	__aeabi_dmul
 763              	.LVL74:
 764 02de CAE92401 		strd	r0, [r10, #144]
 765              	.L41:
  55:src/unit/motorDrive.cpp ****             if (speedRight == 0) iRight *= 0.5;
 766              		.loc 1 55 13 is_stmt 1 view .LVU153
 767 02e2 DEB9     		cbnz	r6, .L42
 768              		.loc 1 55 34 discriminator 1 view .LVU154
 769              		.loc 1 55 41 is_stmt 0 discriminator 1 view .LVU155
 770 02e4 0022     		movs	r2, #0
 771 02e6 0C4B     		ldr	r3, .L95+32
 772 02e8 DAE92601 		ldrd	r0, [r10, #152]
 773 02ec FFF7FEFF 		bl	__aeabi_dmul
 774              	.LVL75:
 775 02f0 CAE92601 		strd	r0, [r10, #152]
 776 02f4 12E0     		b	.L96
ARM GAS  /var/folders/5c/srt4fy4j1pd641bjfx75k5000000gn/T//ccVJQiKM.s 			page 16


 777              	.L97:
 778 02f6 00BF     		.align	3
 779              	.L95:
 780 02f8 182D4454 		.word	1413754136
 781 02fc FB210940 		.word	1074340347
 782 0300 182D4454 		.word	1413754136
 783 0304 FB211940 		.word	1075388923
 784 0308 00000000 		.word	0
 785 030c 00C07240 		.word	1081262080
 786 0310 00000000 		.word	.LC0
 787 0314 00247449 		.word	1232348160
 788 0318 0000E03F 		.word	1071644672
 789              	.L96:
 790              	.L42:
  56:src/unit/motorDrive.cpp **** 
  57:src/unit/motorDrive.cpp ****             powerLeft = 0 - Kp * dLeft - Ki * iLeft;
 791              		.loc 1 57 13 is_stmt 1 view .LVU156
 792              		.loc 1 57 29 is_stmt 0 view .LVU157
 793 031c DAE92A45 		ldrd	r4, [r10, #168]
 794              		.loc 1 57 32 view .LVU158
 795 0320 2246     		mov	r2, r4
 796 0322 2B46     		mov	r3, r5
 797 0324 51EC190B 		vmov	r0, r1, d9
 798 0328 FFF7FEFF 		bl	__aeabi_dmul
 799              	.LVL76:
 800 032c 0246     		mov	r2, r0
 801 032e 0B46     		mov	r3, r1
 802              		.loc 1 57 27 view .LVU159
 803 0330 0020     		movs	r0, #0
 804 0332 0021     		movs	r1, #0
 805 0334 FFF7FEFF 		bl	__aeabi_dsub
 806              	.LVL77:
 807 0338 CDE90201 		strd	r0, [sp, #8]
 808              		.loc 1 57 45 view .LVU160
 809 033c DAE92423 		ldrd	r2, [r10, #144]
 810 0340 4046     		mov	r0, r8
 811 0342 4946     		mov	r1, r9
 812 0344 FFF7FEFF 		bl	__aeabi_dmul
 813              	.LVL78:
 814 0348 0246     		mov	r2, r0
 815 034a 0B46     		mov	r3, r1
 816              		.loc 1 57 40 view .LVU161
 817 034c DDE90201 		ldrd	r0, [sp, #8]
 818 0350 FFF7FEFF 		bl	__aeabi_dsub
 819              	.LVL79:
 820 0354 41EC190B 		vmov	d9, r0, r1
 821              		.loc 1 57 23 view .LVU162
 822 0358 CAE91C01 		strd	r0, [r10, #112]
  58:src/unit/motorDrive.cpp ****             powerRight = 0 - Kp * dRight - Ki * iRight;
 823              		.loc 1 58 13 is_stmt 1 view .LVU163
 824              		.loc 1 58 33 is_stmt 0 view .LVU164
 825 035c 2246     		mov	r2, r4
 826 035e 2B46     		mov	r3, r5
 827 0360 51EC180B 		vmov	r0, r1, d8
 828 0364 FFF7FEFF 		bl	__aeabi_dmul
 829              	.LVL80:
 830 0368 0246     		mov	r2, r0
ARM GAS  /var/folders/5c/srt4fy4j1pd641bjfx75k5000000gn/T//ccVJQiKM.s 			page 17


 831 036a 0B46     		mov	r3, r1
 832              		.loc 1 58 28 view .LVU165
 833 036c 0020     		movs	r0, #0
 834 036e 0021     		movs	r1, #0
 835 0370 FFF7FEFF 		bl	__aeabi_dsub
 836              	.LVL81:
 837 0374 0446     		mov	r4, r0
 838 0376 0D46     		mov	r5, r1
 839              		.loc 1 58 47 view .LVU166
 840 0378 DAE92623 		ldrd	r2, [r10, #152]
 841 037c 4046     		mov	r0, r8
 842 037e 4946     		mov	r1, r9
 843 0380 FFF7FEFF 		bl	__aeabi_dmul
 844              	.LVL82:
 845 0384 0246     		mov	r2, r0
 846 0386 0B46     		mov	r3, r1
 847              		.loc 1 58 42 view .LVU167
 848 0388 2046     		mov	r0, r4
 849 038a 2946     		mov	r1, r5
 850 038c FFF7FEFF 		bl	__aeabi_dsub
 851              	.LVL83:
 852 0390 0446     		mov	r4, r0
 853 0392 0D46     		mov	r5, r1
 854              		.loc 1 58 24 view .LVU168
 855 0394 CAE91E45 		strd	r4, [r10, #120]
  59:src/unit/motorDrive.cpp ****             if (speedLeft > 0 && powerLeft < 1) powerLeft = 1;
 856              		.loc 1 59 13 is_stmt 1 view .LVU169
 857 0398 BBF1000F 		cmp	fp, #0
 858 039c 08DD     		ble	.L43
 859              		.loc 1 59 31 is_stmt 0 discriminator 1 view .LVU170
 860 039e 0022     		movs	r2, #0
 861 03a0 914B     		ldr	r3, .L98+16
 862 03a2 51EC190B 		vmov	r0, r1, d9
 863 03a6 FFF7FEFF 		bl	__aeabi_dcmplt
 864              	.LVL84:
 865 03aa 0028     		cmp	r0, #0
 866 03ac 40F0B780 		bne	.L89
 867              	.L43:
  60:src/unit/motorDrive.cpp ****             if (speedRight > 0 && powerRight < 1) powerRight = 1;
 868              		.loc 1 60 13 is_stmt 1 view .LVU171
 869 03b0 002E     		cmp	r6, #0
 870 03b2 08DD     		ble	.L45
 871              		.loc 1 60 32 is_stmt 0 discriminator 1 view .LVU172
 872 03b4 0022     		movs	r2, #0
 873 03b6 8C4B     		ldr	r3, .L98+16
 874 03b8 2046     		mov	r0, r4
 875 03ba 2946     		mov	r1, r5
 876 03bc FFF7FEFF 		bl	__aeabi_dcmplt
 877              	.LVL85:
 878 03c0 0028     		cmp	r0, #0
 879 03c2 40F0B180 		bne	.L90
 880              	.L45:
  61:src/unit/motorDrive.cpp ****             if (speedLeft < 0 && powerLeft > -1) powerLeft = -1;
 881              		.loc 1 61 13 is_stmt 1 view .LVU173
 882 03c6 BBF1000F 		cmp	fp, #0
 883 03ca C0F2B280 		blt	.L91
 884              	.L47:
ARM GAS  /var/folders/5c/srt4fy4j1pd641bjfx75k5000000gn/T//ccVJQiKM.s 			page 18


  62:src/unit/motorDrive.cpp ****             if (speedRight < 0 && powerRight > -1) powerRight = -1;
 885              		.loc 1 62 13 view .LVU174
 886 03ce 002E     		cmp	r6, #0
 887 03d0 C0F2BD80 		blt	.L92
 888              	.L49:
  63:src/unit/motorDrive.cpp **** 
  64:src/unit/motorDrive.cpp ****             // 範囲保証
  65:src/unit/motorDrive.cpp ****             if (abs(powerLeft) > MAX_POWER) powerLeft = MAX_POWER * (abs(powerLeft) / powerLeft);
 889              		.loc 1 65 13 view .LVU175
 890              		.loc 1 65 17 is_stmt 0 view .LVU176
 891 03d4 DAE91C45 		ldrd	r4, [r10, #112]
 892 03d8 0022     		movs	r2, #0
 893 03da 0023     		movs	r3, #0
 894 03dc 2046     		mov	r0, r4
 895 03de 2946     		mov	r1, r5
 896 03e0 FFF7FEFF 		bl	__aeabi_dcmpgt
 897              	.LVL86:
 898 03e4 0028     		cmp	r0, #0
 899 03e6 00F0C080 		beq	.L93
 900 03ea 2646     		mov	r6, r4
 901 03ec 2F46     		mov	r7, r5
 902              	.L51:
 903              		.loc 1 65 13 discriminator 4 view .LVU177
 904 03ee 0022     		movs	r2, #0
 905 03f0 7E4B     		ldr	r3, .L98+20
 906 03f2 3046     		mov	r0, r6
 907 03f4 3946     		mov	r1, r7
 908 03f6 FFF7FEFF 		bl	__aeabi_dcmpgt
 909              	.LVL87:
 910 03fa 58B1     		cbz	r0, .L52
 911              		.loc 1 65 45 is_stmt 1 discriminator 9 view .LVU178
 912              		.loc 1 65 85 is_stmt 0 discriminator 9 view .LVU179
 913 03fc 2246     		mov	r2, r4
 914 03fe 2B46     		mov	r3, r5
 915 0400 3046     		mov	r0, r6
 916 0402 3946     		mov	r1, r7
 917 0404 FFF7FEFF 		bl	__aeabi_ddiv
 918              	.LVL88:
 919              		.loc 1 65 67 discriminator 9 view .LVU180
 920 0408 0022     		movs	r2, #0
 921 040a 784B     		ldr	r3, .L98+20
 922 040c FFF7FEFF 		bl	__aeabi_dmul
 923              	.LVL89:
 924              		.loc 1 65 55 discriminator 9 view .LVU181
 925 0410 CAE91C01 		strd	r0, [r10, #112]
 926              	.L52:
  66:src/unit/motorDrive.cpp ****             if (abs(powerRight) > MAX_POWER) powerRight = MAX_POWER * (abs(powerRight) / powerRight
 927              		.loc 1 66 13 is_stmt 1 view .LVU182
 928              		.loc 1 66 17 is_stmt 0 view .LVU183
 929 0414 DAE91E45 		ldrd	r4, [r10, #120]
 930 0418 0022     		movs	r2, #0
 931 041a 0023     		movs	r3, #0
 932 041c 2046     		mov	r0, r4
 933 041e 2946     		mov	r1, r5
 934 0420 FFF7FEFF 		bl	__aeabi_dcmpgt
 935              	.LVL90:
 936 0424 0028     		cmp	r0, #0
ARM GAS  /var/folders/5c/srt4fy4j1pd641bjfx75k5000000gn/T//ccVJQiKM.s 			page 19


 937 0426 00F0A480 		beq	.L94
 938 042a 2646     		mov	r6, r4
 939 042c 2F46     		mov	r7, r5
 940              	.L54:
 941              		.loc 1 66 13 discriminator 4 view .LVU184
 942 042e 0022     		movs	r2, #0
 943 0430 6E4B     		ldr	r3, .L98+20
 944 0432 3046     		mov	r0, r6
 945 0434 3946     		mov	r1, r7
 946 0436 FFF7FEFF 		bl	__aeabi_dcmpgt
 947              	.LVL91:
 948 043a 58B1     		cbz	r0, .L55
 949              		.loc 1 66 46 is_stmt 1 discriminator 9 view .LVU185
 950              		.loc 1 66 88 is_stmt 0 discriminator 9 view .LVU186
 951 043c 2246     		mov	r2, r4
 952 043e 2B46     		mov	r3, r5
 953 0440 3046     		mov	r0, r6
 954 0442 3946     		mov	r1, r7
 955 0444 FFF7FEFF 		bl	__aeabi_ddiv
 956              	.LVL92:
 957              		.loc 1 66 69 discriminator 9 view .LVU187
 958 0448 0022     		movs	r2, #0
 959 044a 684B     		ldr	r3, .L98+20
 960 044c FFF7FEFF 		bl	__aeabi_dmul
 961              	.LVL93:
 962              		.loc 1 66 57 discriminator 9 view .LVU188
 963 0450 CAE91E01 		strd	r0, [r10, #120]
 964              	.L55:
  67:src/unit/motorDrive.cpp **** 
  68:src/unit/motorDrive.cpp ****             init();
 965              		.loc 1 68 13 is_stmt 1 view .LVU189
 966              		.loc 1 68 17 is_stmt 0 view .LVU190
 967 0454 5046     		mov	r0, r10
 968 0456 FFF7FEFF 		bl	_ZN10MotorDrive4initEv
 969              	.LVL94:
  69:src/unit/motorDrive.cpp ****             if (powerLeft > 0) {
 970              		.loc 1 69 13 is_stmt 1 view .LVU191
 971              		.loc 1 69 17 is_stmt 0 view .LVU192
 972 045a DAE91C45 		ldrd	r4, [r10, #112]
 973              		.loc 1 69 13 view .LVU193
 974 045e 0022     		movs	r2, #0
 975 0460 0023     		movs	r3, #0
 976 0462 2046     		mov	r0, r4
 977 0464 2946     		mov	r1, r5
 978 0466 FFF7FEFF 		bl	__aeabi_dcmpgt
 979              	.LVL95:
 980 046a 0028     		cmp	r0, #0
 981 046c 00F08580 		beq	.L80
  70:src/unit/motorDrive.cpp ****                   _motor1a->write(powerLeft * 0.001f);
 982              		.loc 1 70 19 is_stmt 1 view .LVU194
 983 0470 DAF80060 		ldr	r6, [r10]
 984              		.loc 1 70 45 is_stmt 0 view .LVU195
 985 0474 58A3     		adr	r3, .L98
 986 0476 D3E90023 		ldrd	r2, [r3]
 987 047a 2046     		mov	r0, r4
 988 047c 2946     		mov	r1, r5
 989 047e FFF7FEFF 		bl	__aeabi_dmul
ARM GAS  /var/folders/5c/srt4fy4j1pd641bjfx75k5000000gn/T//ccVJQiKM.s 			page 20


 990              	.LVL96:
 991              		.loc 1 70 34 view .LVU196
 992 0482 FFF7FEFF 		bl	__aeabi_d2f
 993              	.LVL97:
 994 0486 00EE100A 		vmov	s0, r0
 995 048a 3046     		mov	r0, r6
 996 048c FFF7FEFF 		bl	_ZN12PwmSingleOut5writeEf
 997              	.LVL98:
  71:src/unit/motorDrive.cpp ****                   _motor1b->write(0);
 998              		.loc 1 71 19 is_stmt 1 view .LVU197
 999              		.loc 1 71 34 is_stmt 0 view .LVU198
 1000 0490 9FED570A 		vldr.32	s0, .L98+24
 1001 0494 DAF80400 		ldr	r0, [r10, #4]
 1002 0498 FFF7FEFF 		bl	_ZN12PwmSingleOut5writeEf
 1003              	.LVL99:
 1004              	.L59:
  72:src/unit/motorDrive.cpp ****             } else {
  73:src/unit/motorDrive.cpp ****                   _motor1a->write(0);
  74:src/unit/motorDrive.cpp ****                   _motor1b->write(powerLeft * -0.001f);
  75:src/unit/motorDrive.cpp ****             }
  76:src/unit/motorDrive.cpp ****             if (powerRight > 0) {
 1005              		.loc 1 76 13 is_stmt 1 view .LVU199
 1006              		.loc 1 76 17 is_stmt 0 view .LVU200
 1007 049c DAE91E45 		ldrd	r4, [r10, #120]
 1008              		.loc 1 76 13 view .LVU201
 1009 04a0 0022     		movs	r2, #0
 1010 04a2 0023     		movs	r3, #0
 1011 04a4 2046     		mov	r0, r4
 1012 04a6 2946     		mov	r1, r5
 1013 04a8 FFF7FEFF 		bl	__aeabi_dcmpgt
 1014              	.LVL100:
 1015 04ac 0028     		cmp	r0, #0
 1016 04ae 7BD0     		beq	.L81
  77:src/unit/motorDrive.cpp ****                   _motor2a->write(powerRight * 0.001f);
 1017              		.loc 1 77 19 is_stmt 1 view .LVU202
 1018 04b0 DAF80860 		ldr	r6, [r10, #8]
 1019              		.loc 1 77 46 is_stmt 0 view .LVU203
 1020 04b4 48A3     		adr	r3, .L98
 1021 04b6 D3E90023 		ldrd	r2, [r3]
 1022 04ba 2046     		mov	r0, r4
 1023 04bc 2946     		mov	r1, r5
 1024 04be FFF7FEFF 		bl	__aeabi_dmul
 1025              	.LVL101:
 1026              		.loc 1 77 34 view .LVU204
 1027 04c2 FFF7FEFF 		bl	__aeabi_d2f
 1028              	.LVL102:
 1029 04c6 00EE100A 		vmov	s0, r0
 1030 04ca 3046     		mov	r0, r6
 1031 04cc FFF7FEFF 		bl	_ZN12PwmSingleOut5writeEf
 1032              	.LVL103:
  78:src/unit/motorDrive.cpp ****                   _motor2b->write(0);
 1033              		.loc 1 78 19 is_stmt 1 view .LVU205
 1034              		.loc 1 78 34 is_stmt 0 view .LVU206
 1035 04d0 9FED470A 		vldr.32	s0, .L98+24
 1036 04d4 DAF80C00 		ldr	r0, [r10, #12]
 1037 04d8 FFF7FEFF 		bl	_ZN12PwmSingleOut5writeEf
 1038              	.LVL104:
ARM GAS  /var/folders/5c/srt4fy4j1pd641bjfx75k5000000gn/T//ccVJQiKM.s 			page 21


 1039              	.L23:
  79:src/unit/motorDrive.cpp ****             } else {
  80:src/unit/motorDrive.cpp ****                   _motor2a->write(0);
  81:src/unit/motorDrive.cpp ****                   _motor2b->write(powerRight * -0.001f);
  82:src/unit/motorDrive.cpp ****             }
  83:src/unit/motorDrive.cpp ****       }
  84:src/unit/motorDrive.cpp **** }
 1040              		.loc 1 84 1 view .LVU207
 1041 04dc 07B0     		add	sp, sp, #28
 1042              	.LCFI7:
 1043              		.cfi_remember_state
 1044              		.cfi_def_cfa_offset 52
 1045              		@ sp needed
 1046 04de BDEC048B 		vldm	sp!, {d8-d9}
 1047              	.LCFI8:
 1048              		.cfi_restore 82
 1049              		.cfi_restore 83
 1050              		.cfi_restore 80
 1051              		.cfi_restore 81
 1052              		.cfi_def_cfa_offset 36
 1053 04e2 BDE8F08F 		pop	{r4, r5, r6, r7, r8, r9, r10, fp, pc}
 1054              	.LVL105:
 1055              	.L83:
 1056              	.LCFI9:
 1057              		.cfi_restore_state
  41:src/unit/motorDrive.cpp ****             if (abs(encoder.difRadRight) > PI) encoder.difRadRight -= 2 * PI * (abs(encoder.difRadR
 1058              		.loc 1 41 17 discriminator 2 view .LVU208
 1059 04e6 B046     		mov	r8, r6
 1060 04e8 07F10049 		add	r9, r7, #-2147483648
 1061 04ec E4E5     		b	.L27
 1062              	.L84:
  42:src/unit/motorDrive.cpp **** 
 1063              		.loc 1 42 17 discriminator 2 view .LVU209
 1064 04ee 2646     		mov	r6, r4
 1065 04f0 05F10047 		add	r7, r5, #-2147483648
 1066 04f4 06E6     		b	.L30
 1067              	.L85:
  52:src/unit/motorDrive.cpp ****             if (abs(iRight * Ki) > 300) iRight = 300 / Ki * (abs(iRight) / iRight);
 1068              		.loc 1 52 17 discriminator 2 view .LVU210
 1069 04f6 05F10043 		add	r3, r5, #-2147483648
 1070 04fa 1D46     		mov	r5, r3
 1071 04fc 87E6     		b	.L33
 1072              	.L86:
  52:src/unit/motorDrive.cpp ****             if (abs(iRight * Ki) > 300) iRight = 300 / Ki * (abs(iRight) / iRight);
 1073              		.loc 1 52 60 discriminator 7 view .LVU211
 1074 04fe DDE90223 		ldrd	r2, [sp, #8]
 1075 0502 1046     		mov	r0, r2
 1076 0504 03F10041 		add	r1, r3, #-2147483648
 1077 0508 9DE6     		b	.L36
 1078              	.L87:
  53:src/unit/motorDrive.cpp ****             if (speedLeft == 0) iLeft *= 0.5;
 1079              		.loc 1 53 17 discriminator 2 view .LVU212
 1080 050a 05F10043 		add	r3, r5, #-2147483648
 1081 050e 1D46     		mov	r5, r3
 1082 0510 B4E6     		b	.L37
 1083              	.L88:
  53:src/unit/motorDrive.cpp ****             if (speedLeft == 0) iLeft *= 0.5;
ARM GAS  /var/folders/5c/srt4fy4j1pd641bjfx75k5000000gn/T//ccVJQiKM.s 			page 22


 1084              		.loc 1 53 62 discriminator 7 view .LVU213
 1085 0512 DDE90423 		ldrd	r2, [sp, #16]
 1086 0516 1046     		mov	r0, r2
 1087 0518 03F10041 		add	r1, r3, #-2147483648
 1088 051c CAE6     		b	.L40
 1089              	.L89:
  59:src/unit/motorDrive.cpp ****             if (speedRight > 0 && powerRight < 1) powerRight = 1;
 1090              		.loc 1 59 49 is_stmt 1 discriminator 2 view .LVU214
  59:src/unit/motorDrive.cpp ****             if (speedRight > 0 && powerRight < 1) powerRight = 1;
 1091              		.loc 1 59 59 is_stmt 0 discriminator 2 view .LVU215
 1092 051e 0022     		movs	r2, #0
 1093 0520 314B     		ldr	r3, .L98+16
 1094 0522 CAE91C23 		strd	r2, [r10, #112]
 1095 0526 43E7     		b	.L43
 1096              	.L90:
  60:src/unit/motorDrive.cpp ****             if (speedLeft < 0 && powerLeft > -1) powerLeft = -1;
 1097              		.loc 1 60 51 is_stmt 1 discriminator 2 view .LVU216
  60:src/unit/motorDrive.cpp ****             if (speedLeft < 0 && powerLeft > -1) powerLeft = -1;
 1098              		.loc 1 60 62 is_stmt 0 discriminator 2 view .LVU217
 1099 0528 0022     		movs	r2, #0
 1100 052a 2F4B     		ldr	r3, .L98+16
 1101 052c CAE91E23 		strd	r2, [r10, #120]
 1102 0530 49E7     		b	.L45
 1103              	.L91:
  61:src/unit/motorDrive.cpp ****             if (speedRight < 0 && powerRight > -1) powerRight = -1;
 1104              		.loc 1 61 31 discriminator 1 view .LVU218
 1105 0532 0022     		movs	r2, #0
 1106 0534 2F4B     		ldr	r3, .L98+28
 1107 0536 DAE91C01 		ldrd	r0, [r10, #112]
 1108 053a FFF7FEFF 		bl	__aeabi_dcmpgt
 1109              	.LVL106:
 1110 053e 0028     		cmp	r0, #0
 1111 0540 3FF445AF 		beq	.L47
  61:src/unit/motorDrive.cpp ****             if (speedRight < 0 && powerRight > -1) powerRight = -1;
 1112              		.loc 1 61 50 is_stmt 1 discriminator 2 view .LVU219
  61:src/unit/motorDrive.cpp ****             if (speedRight < 0 && powerRight > -1) powerRight = -1;
 1113              		.loc 1 61 60 is_stmt 0 discriminator 2 view .LVU220
 1114 0544 0022     		movs	r2, #0
 1115 0546 2B4B     		ldr	r3, .L98+28
 1116 0548 CAE91C23 		strd	r2, [r10, #112]
 1117 054c 3FE7     		b	.L47
 1118              	.L92:
  62:src/unit/motorDrive.cpp **** 
 1119              		.loc 1 62 32 discriminator 1 view .LVU221
 1120 054e 0022     		movs	r2, #0
 1121 0550 284B     		ldr	r3, .L98+28
 1122 0552 DAE91E01 		ldrd	r0, [r10, #120]
 1123 0556 FFF7FEFF 		bl	__aeabi_dcmpgt
 1124              	.LVL107:
 1125 055a 0028     		cmp	r0, #0
 1126 055c 3FF43AAF 		beq	.L49
  62:src/unit/motorDrive.cpp **** 
 1127              		.loc 1 62 52 is_stmt 1 discriminator 2 view .LVU222
  62:src/unit/motorDrive.cpp **** 
 1128              		.loc 1 62 63 is_stmt 0 discriminator 2 view .LVU223
 1129 0560 0022     		movs	r2, #0
 1130 0562 244B     		ldr	r3, .L98+28
ARM GAS  /var/folders/5c/srt4fy4j1pd641bjfx75k5000000gn/T//ccVJQiKM.s 			page 23


 1131 0564 CAE91E23 		strd	r2, [r10, #120]
 1132 0568 34E7     		b	.L49
 1133              	.L93:
  65:src/unit/motorDrive.cpp ****             if (abs(powerRight) > MAX_POWER) powerRight = MAX_POWER * (abs(powerRight) / powerRight
 1134              		.loc 1 65 17 discriminator 2 view .LVU224
 1135 056a 2646     		mov	r6, r4
 1136 056c 05F10047 		add	r7, r5, #-2147483648
 1137 0570 3DE7     		b	.L51
 1138              	.L94:
  66:src/unit/motorDrive.cpp **** 
 1139              		.loc 1 66 17 discriminator 2 view .LVU225
 1140 0572 2646     		mov	r6, r4
 1141 0574 05F10047 		add	r7, r5, #-2147483648
 1142 0578 59E7     		b	.L54
 1143              	.L80:
  73:src/unit/motorDrive.cpp ****                   _motor1b->write(powerLeft * -0.001f);
 1144              		.loc 1 73 19 is_stmt 1 view .LVU226
  73:src/unit/motorDrive.cpp ****                   _motor1b->write(powerLeft * -0.001f);
 1145              		.loc 1 73 34 is_stmt 0 view .LVU227
 1146 057a 9FED1D0A 		vldr.32	s0, .L98+24
 1147 057e DAF80000 		ldr	r0, [r10]
 1148 0582 FFF7FEFF 		bl	_ZN12PwmSingleOut5writeEf
 1149              	.LVL108:
  74:src/unit/motorDrive.cpp ****             }
 1150              		.loc 1 74 19 is_stmt 1 view .LVU228
 1151 0586 DAF80440 		ldr	r4, [r10, #4]
  74:src/unit/motorDrive.cpp ****             }
 1152              		.loc 1 74 45 is_stmt 0 view .LVU229
 1153 058a 15A3     		adr	r3, .L98+8
 1154 058c D3E90023 		ldrd	r2, [r3]
 1155 0590 DAE91C01 		ldrd	r0, [r10, #112]
 1156 0594 FFF7FEFF 		bl	__aeabi_dmul
 1157              	.LVL109:
  74:src/unit/motorDrive.cpp ****             }
 1158              		.loc 1 74 34 view .LVU230
 1159 0598 FFF7FEFF 		bl	__aeabi_d2f
 1160              	.LVL110:
 1161 059c 00EE100A 		vmov	s0, r0
 1162 05a0 2046     		mov	r0, r4
 1163 05a2 FFF7FEFF 		bl	_ZN12PwmSingleOut5writeEf
 1164              	.LVL111:
 1165 05a6 79E7     		b	.L59
 1166              	.L81:
  80:src/unit/motorDrive.cpp ****                   _motor2b->write(powerRight * -0.001f);
 1167              		.loc 1 80 19 is_stmt 1 view .LVU231
  80:src/unit/motorDrive.cpp ****                   _motor2b->write(powerRight * -0.001f);
 1168              		.loc 1 80 34 is_stmt 0 view .LVU232
 1169 05a8 9FED110A 		vldr.32	s0, .L98+24
 1170 05ac DAF80800 		ldr	r0, [r10, #8]
 1171 05b0 FFF7FEFF 		bl	_ZN12PwmSingleOut5writeEf
 1172              	.LVL112:
  81:src/unit/motorDrive.cpp ****             }
 1173              		.loc 1 81 19 is_stmt 1 view .LVU233
 1174 05b4 DAF80C40 		ldr	r4, [r10, #12]
  81:src/unit/motorDrive.cpp ****             }
 1175              		.loc 1 81 46 is_stmt 0 view .LVU234
 1176 05b8 09A3     		adr	r3, .L98+8
ARM GAS  /var/folders/5c/srt4fy4j1pd641bjfx75k5000000gn/T//ccVJQiKM.s 			page 24


 1177 05ba D3E90023 		ldrd	r2, [r3]
 1178 05be DAE91E01 		ldrd	r0, [r10, #120]
 1179 05c2 FFF7FEFF 		bl	__aeabi_dmul
 1180              	.LVL113:
  81:src/unit/motorDrive.cpp ****             }
 1181              		.loc 1 81 34 view .LVU235
 1182 05c6 FFF7FEFF 		bl	__aeabi_d2f
 1183              	.LVL114:
 1184 05ca 00EE100A 		vmov	s0, r0
 1185 05ce 2046     		mov	r0, r4
 1186 05d0 FFF7FEFF 		bl	_ZN12PwmSingleOut5writeEf
 1187              	.LVL115:
 1188              		.loc 1 84 1 view .LVU236
 1189 05d4 82E7     		b	.L23
 1190              	.L99:
 1191 05d6 00BF     		.align	3
 1192              	.L98:
 1193 05d8 000000E0 		.word	-536870912
 1194 05dc 4D62503F 		.word	1062232653
 1195 05e0 000000E0 		.word	-536870912
 1196 05e4 4D6250BF 		.word	-1085250995
 1197 05e8 0000F03F 		.word	1072693248
 1198 05ec 00708740 		.word	1082617856
 1199 05f0 00000000 		.word	0
 1200 05f4 0000F0BF 		.word	-1074790400
 1201              		.cfi_endproc
 1202              	.LFE253:
 1203              		.fnend
 1205              		.section	.text._ZN10MotorDrive14encoderComputeEv,"ax",%progbits
 1206              		.align	1
 1207              		.global	_ZN10MotorDrive14encoderComputeEv
 1208              		.syntax unified
 1209              		.thumb
 1210              		.thumb_func
 1212              	_ZN10MotorDrive14encoderComputeEv:
 1213              		.fnstart
 1214              	.LVL116:
 1215              	.LFB252:
  17:src/unit/motorDrive.cpp ****       // 最大値を求める
 1216              		.loc 1 17 35 is_stmt 1 view -0
 1217              		.cfi_startproc
 1218              		@ args = 0, pretend = 0, frame = 0
 1219              		@ frame_needed = 0, uses_anonymous_args = 0
  19:src/unit/motorDrive.cpp ****             if (*_encoderValLeft > encoder.maxValLeft) encoder.maxValLeft = *_encoderValLeft;
 1220              		.loc 1 19 7 view .LVU238
  19:src/unit/motorDrive.cpp ****             if (*_encoderValLeft > encoder.maxValLeft) encoder.maxValLeft = *_encoderValLeft;
 1221              		.loc 1 19 12 is_stmt 0 view .LVU239
 1222 0000 0269     		ldr	r2, [r0, #16]
  19:src/unit/motorDrive.cpp ****             if (*_encoderValLeft > encoder.maxValLeft) encoder.maxValLeft = *_encoderValLeft;
 1223              		.loc 1 19 11 view .LVU240
 1224 0002 1388     		ldrh	r3, [r2]
  19:src/unit/motorDrive.cpp ****             if (*_encoderValLeft > encoder.maxValLeft) encoder.maxValLeft = *_encoderValLeft;
 1225              		.loc 1 19 7 view .LVU241
 1226 0004 002B     		cmp	r3, #0
 1227 0006 47D0     		beq	.L105
  17:src/unit/motorDrive.cpp ****       // 最大値を求める
 1228              		.loc 1 17 35 discriminator 1 view .LVU242
ARM GAS  /var/folders/5c/srt4fy4j1pd641bjfx75k5000000gn/T//ccVJQiKM.s 			page 25


 1229 0008 2DE9F041 		push	{r4, r5, r6, r7, r8, lr}
 1230              		.save {r4, r5, r6, r7, r8, lr}
 1231              	.LCFI10:
 1232              		.cfi_def_cfa_offset 24
 1233              		.cfi_offset 4, -24
 1234              		.cfi_offset 5, -20
 1235              		.cfi_offset 6, -16
 1236              		.cfi_offset 7, -12
 1237              		.cfi_offset 8, -8
 1238              		.cfi_offset 14, -4
 1239 000c 0446     		mov	r4, r0
  19:src/unit/motorDrive.cpp ****             if (*_encoderValLeft > encoder.maxValLeft) encoder.maxValLeft = *_encoderValLeft;
 1240              		.loc 1 19 37 discriminator 1 view .LVU243
 1241 000e 4569     		ldr	r5, [r0, #20]
  19:src/unit/motorDrive.cpp ****             if (*_encoderValLeft > encoder.maxValLeft) encoder.maxValLeft = *_encoderValLeft;
 1242              		.loc 1 19 36 discriminator 1 view .LVU244
 1243 0010 2988     		ldrh	r1, [r5]
  19:src/unit/motorDrive.cpp ****             if (*_encoderValLeft > encoder.maxValLeft) encoder.maxValLeft = *_encoderValLeft;
 1244              		.loc 1 19 33 discriminator 1 view .LVU245
 1245 0012 0029     		cmp	r1, #0
 1246 0014 3ED0     		beq	.L100
  20:src/unit/motorDrive.cpp ****             encoder.radLeft = *_encoderValLeft * (2 * PI / encoder.maxValLeft);
 1247              		.loc 1 20 13 is_stmt 1 view .LVU246
  20:src/unit/motorDrive.cpp ****             encoder.radLeft = *_encoderValLeft * (2 * PI / encoder.maxValLeft);
 1248              		.loc 1 20 44 is_stmt 0 view .LVU247
 1249 0016 B0F86010 		ldrh	r1, [r0, #96]
  20:src/unit/motorDrive.cpp ****             encoder.radLeft = *_encoderValLeft * (2 * PI / encoder.maxValLeft);
 1250              		.loc 1 20 13 view .LVU248
 1251 001a 8B42     		cmp	r3, r1
 1252 001c 01D9     		bls	.L102
  20:src/unit/motorDrive.cpp ****             encoder.radLeft = *_encoderValLeft * (2 * PI / encoder.maxValLeft);
 1253              		.loc 1 20 56 is_stmt 1 discriminator 1 view .LVU249
  20:src/unit/motorDrive.cpp ****             encoder.radLeft = *_encoderValLeft * (2 * PI / encoder.maxValLeft);
 1254              		.loc 1 20 75 is_stmt 0 discriminator 1 view .LVU250
 1255 001e A0F86030 		strh	r3, [r0, #96]	@ movhi
 1256              	.L102:
  21:src/unit/motorDrive.cpp ****             if (*_encoderValRight > encoder.maxValRight) encoder.maxValRight = *_encoderValRight;
 1257              		.loc 1 21 13 is_stmt 1 view .LVU251
  21:src/unit/motorDrive.cpp ****             if (*_encoderValRight > encoder.maxValRight) encoder.maxValRight = *_encoderValRight;
 1258              		.loc 1 21 31 is_stmt 0 view .LVU252
 1259 0022 B2F80080 		ldrh	r8, [r2]
  21:src/unit/motorDrive.cpp ****             if (*_encoderValRight > encoder.maxValRight) encoder.maxValRight = *_encoderValRight;
 1260              		.loc 1 21 58 view .LVU253
 1261 0026 B4F86000 		ldrh	r0, [r4, #96]
 1262              	.LVL117:
  21:src/unit/motorDrive.cpp ****             if (*_encoderValRight > encoder.maxValRight) encoder.maxValRight = *_encoderValRight;
 1263              		.loc 1 21 58 view .LVU254
 1264 002a FFF7FEFF 		bl	__aeabi_i2d
 1265              	.LVL118:
 1266 002e 0246     		mov	r2, r0
 1267 0030 0B46     		mov	r3, r1
 1268 0032 1BA1     		adr	r1, .L108
 1269 0034 D1E90001 		ldrd	r0, [r1]
 1270 0038 FFF7FEFF 		bl	__aeabi_ddiv
 1271              	.LVL119:
 1272 003c 0646     		mov	r6, r0
 1273 003e 0F46     		mov	r7, r1
ARM GAS  /var/folders/5c/srt4fy4j1pd641bjfx75k5000000gn/T//ccVJQiKM.s 			page 26


  21:src/unit/motorDrive.cpp ****             if (*_encoderValRight > encoder.maxValRight) encoder.maxValRight = *_encoderValRight;
 1274              		.loc 1 21 48 view .LVU255
 1275 0040 4046     		mov	r0, r8
 1276 0042 FFF7FEFF 		bl	__aeabi_i2d
 1277              	.LVL120:
 1278 0046 3246     		mov	r2, r6
 1279 0048 3B46     		mov	r3, r7
 1280 004a FFF7FEFF 		bl	__aeabi_dmul
 1281              	.LVL121:
  21:src/unit/motorDrive.cpp ****             if (*_encoderValRight > encoder.maxValRight) encoder.maxValRight = *_encoderValRight;
 1282              		.loc 1 21 29 view .LVU256
 1283 004e C4E91001 		strd	r0, [r4, #64]
  22:src/unit/motorDrive.cpp ****             encoder.radRight = *_encoderValRight * (2 * PI / encoder.maxValRight);
 1284              		.loc 1 22 13 is_stmt 1 view .LVU257
  22:src/unit/motorDrive.cpp ****             encoder.radRight = *_encoderValRight * (2 * PI / encoder.maxValRight);
 1285              		.loc 1 22 17 is_stmt 0 view .LVU258
 1286 0052 2B88     		ldrh	r3, [r5]
  22:src/unit/motorDrive.cpp ****             encoder.radRight = *_encoderValRight * (2 * PI / encoder.maxValRight);
 1287              		.loc 1 22 45 view .LVU259
 1288 0054 B4F86220 		ldrh	r2, [r4, #98]
  22:src/unit/motorDrive.cpp ****             encoder.radRight = *_encoderValRight * (2 * PI / encoder.maxValRight);
 1289              		.loc 1 22 13 view .LVU260
 1290 0058 9342     		cmp	r3, r2
 1291 005a 01D9     		bls	.L103
  22:src/unit/motorDrive.cpp ****             encoder.radRight = *_encoderValRight * (2 * PI / encoder.maxValRight);
 1292              		.loc 1 22 58 is_stmt 1 discriminator 1 view .LVU261
  22:src/unit/motorDrive.cpp ****             encoder.radRight = *_encoderValRight * (2 * PI / encoder.maxValRight);
 1293              		.loc 1 22 78 is_stmt 0 discriminator 1 view .LVU262
 1294 005c A4F86230 		strh	r3, [r4, #98]	@ movhi
 1295              	.L103:
  23:src/unit/motorDrive.cpp ****             run();
 1296              		.loc 1 23 13 is_stmt 1 view .LVU263
  23:src/unit/motorDrive.cpp ****             run();
 1297              		.loc 1 23 32 is_stmt 0 view .LVU264
 1298 0060 2D88     		ldrh	r5, [r5]
  23:src/unit/motorDrive.cpp ****             run();
 1299              		.loc 1 23 60 view .LVU265
 1300 0062 B4F86200 		ldrh	r0, [r4, #98]
 1301 0066 FFF7FEFF 		bl	__aeabi_i2d
 1302              	.LVL122:
 1303 006a 0246     		mov	r2, r0
 1304 006c 0B46     		mov	r3, r1
 1305 006e 0CA1     		adr	r1, .L108
 1306 0070 D1E90001 		ldrd	r0, [r1]
 1307 0074 FFF7FEFF 		bl	__aeabi_ddiv
 1308              	.LVL123:
 1309 0078 0646     		mov	r6, r0
 1310 007a 0F46     		mov	r7, r1
  23:src/unit/motorDrive.cpp ****             run();
 1311              		.loc 1 23 50 view .LVU266
 1312 007c 2846     		mov	r0, r5
 1313 007e FFF7FEFF 		bl	__aeabi_i2d
 1314              	.LVL124:
 1315 0082 3246     		mov	r2, r6
 1316 0084 3B46     		mov	r3, r7
 1317 0086 FFF7FEFF 		bl	__aeabi_dmul
 1318              	.LVL125:
ARM GAS  /var/folders/5c/srt4fy4j1pd641bjfx75k5000000gn/T//ccVJQiKM.s 			page 27


  23:src/unit/motorDrive.cpp ****             run();
 1319              		.loc 1 23 30 view .LVU267
 1320 008a C4E91201 		strd	r0, [r4, #72]
  24:src/unit/motorDrive.cpp ****       }
 1321              		.loc 1 24 13 is_stmt 1 view .LVU268
  24:src/unit/motorDrive.cpp ****       }
 1322              		.loc 1 24 16 is_stmt 0 view .LVU269
 1323 008e 2046     		mov	r0, r4
 1324 0090 FFF7FEFF 		bl	_ZN10MotorDrive3runEv
 1325              	.LVL126:
 1326              	.L100:
  26:src/unit/motorDrive.cpp **** 
 1327              		.loc 1 26 1 view .LVU270
 1328 0094 BDE8F081 		pop	{r4, r5, r6, r7, r8, pc}
 1329              	.LVL127:
 1330              	.L105:
 1331              	.LCFI11:
 1332              		.cfi_def_cfa_offset 0
 1333              		.cfi_restore 4
 1334              		.cfi_restore 5
 1335              		.cfi_restore 6
 1336              		.cfi_restore 7
 1337              		.cfi_restore 8
 1338              		.cfi_restore 14
  26:src/unit/motorDrive.cpp **** 
 1339              		.loc 1 26 1 view .LVU271
 1340 0098 7047     		bx	lr
 1341              	.L109:
 1342 009a 00BFAFF3 		.align	3
 1342      0080
 1343              	.L108:
 1344 00a0 182D4454 		.word	1413754136
 1345 00a4 FB211940 		.word	1075388923
 1346              		.cfi_endproc
 1347              	.LFE252:
 1348              		.fnend
 1350              		.section	.text._ZN10MotorDrive5driveEss,"ax",%progbits
 1351              		.align	1
 1352              		.global	_ZN10MotorDrive5driveEss
 1353              		.syntax unified
 1354              		.thumb
 1355              		.thumb_func
 1357              	_ZN10MotorDrive5driveEss:
 1358              		.fnstart
 1359              	.LVL128:
 1360              	.LFB254:
  85:src/unit/motorDrive.cpp **** 
  86:src/unit/motorDrive.cpp **** void MotorDrive::drive(int16_t left, int16_t right) {
 1361              		.loc 1 86 53 is_stmt 1 view -0
 1362              		.cfi_startproc
 1363              		@ args = 0, pretend = 0, frame = 0
 1364              		@ frame_needed = 0, uses_anonymous_args = 0
 1365              		@ link register save eliminated.
  87:src/unit/motorDrive.cpp ****       speedLeft = left;
 1366              		.loc 1 87 7 view .LVU273
 1367              		.loc 1 87 17 is_stmt 0 view .LVU274
 1368 0000 A0F86810 		strh	r1, [r0, #104]	@ movhi
ARM GAS  /var/folders/5c/srt4fy4j1pd641bjfx75k5000000gn/T//ccVJQiKM.s 			page 28


  88:src/unit/motorDrive.cpp ****       speedRight = right;
 1369              		.loc 1 88 7 is_stmt 1 view .LVU275
 1370              		.loc 1 88 18 is_stmt 0 view .LVU276
 1371 0004 A0F86A20 		strh	r2, [r0, #106]	@ movhi
  89:src/unit/motorDrive.cpp ****       // 範囲保証
  90:src/unit/motorDrive.cpp ****       if (abs(speedLeft) > MAX_POWER) speedLeft = MAX_POWER * (abs(speedLeft) / speedLeft);
 1372              		.loc 1 90 7 is_stmt 1 view .LVU277
 1373              		.loc 1 90 11 is_stmt 0 view .LVU278
 1374 0008 81EAE173 		eor	r3, r1, r1, asr #31
 1375 000c A3EBE173 		sub	r3, r3, r1, asr #31
 1376 0010 9BB2     		uxth	r3, r3
 1377              		.loc 1 90 7 view .LVU279
 1378 0012 40F2EE2C 		movw	ip, #750
 1379 0016 6345     		cmp	r3, ip
 1380 0018 0AD9     		bls	.L111
 1381              		.loc 1 90 39 is_stmt 1 discriminator 1 view .LVU280
 1382              		.loc 1 90 79 is_stmt 0 discriminator 1 view .LVU281
 1383 001a 93FBF1F3 		sdiv	r3, r3, r1
 1384              		.loc 1 90 49 discriminator 1 view .LVU282
 1385 001e 03EB8303 		add	r3, r3, r3, lsl #2
 1386 0022 03EB8303 		add	r3, r3, r3, lsl #2
 1387 0026 C3EB0313 		rsb	r3, r3, r3, lsl #4
 1388 002a 5B00     		lsls	r3, r3, #1
 1389 002c A0F86830 		strh	r3, [r0, #104]	@ movhi
 1390              	.L111:
  91:src/unit/motorDrive.cpp ****       if (abs(speedRight) > MAX_POWER) speedRight = MAX_POWER * (abs(speedRight) / speedRight);
 1391              		.loc 1 91 7 is_stmt 1 view .LVU283
 1392              		.loc 1 91 11 is_stmt 0 view .LVU284
 1393 0030 82EAE273 		eor	r3, r2, r2, asr #31
 1394 0034 A3EBE273 		sub	r3, r3, r2, asr #31
 1395 0038 9BB2     		uxth	r3, r3
 1396              		.loc 1 91 7 view .LVU285
 1397 003a 40F2EE21 		movw	r1, #750
 1398              	.LVL129:
 1399              		.loc 1 91 7 view .LVU286
 1400 003e 8B42     		cmp	r3, r1
 1401 0040 0AD9     		bls	.L110
 1402              		.loc 1 91 40 is_stmt 1 discriminator 1 view .LVU287
 1403              		.loc 1 91 82 is_stmt 0 discriminator 1 view .LVU288
 1404 0042 93FBF2F3 		sdiv	r3, r3, r2
 1405              		.loc 1 91 51 discriminator 1 view .LVU289
 1406 0046 03EB8303 		add	r3, r3, r3, lsl #2
 1407 004a 03EB8303 		add	r3, r3, r3, lsl #2
 1408 004e C3EB0313 		rsb	r3, r3, r3, lsl #4
 1409 0052 5B00     		lsls	r3, r3, #1
 1410 0054 A0F86A30 		strh	r3, [r0, #106]	@ movhi
 1411              	.L110:
  92:src/unit/motorDrive.cpp **** }
 1412              		.loc 1 92 1 view .LVU290
 1413 0058 7047     		bx	lr
 1414              		.cfi_endproc
 1415              	.LFE254:
 1416              		.cantunwind
 1417              		.fnend
 1419              		.section	.text._ZN10MotorDrive5brakeEv,"ax",%progbits
 1420              		.align	1
 1421              		.global	_ZN10MotorDrive5brakeEv
ARM GAS  /var/folders/5c/srt4fy4j1pd641bjfx75k5000000gn/T//ccVJQiKM.s 			page 29


 1422              		.syntax unified
 1423              		.thumb
 1424              		.thumb_func
 1426              	_ZN10MotorDrive5brakeEv:
 1427              		.fnstart
 1428              	.LVL130:
 1429              	.LFB255:
  93:src/unit/motorDrive.cpp **** 
  94:src/unit/motorDrive.cpp **** void MotorDrive::brake() {
 1430              		.loc 1 94 26 is_stmt 1 view -0
 1431              		.cfi_startproc
 1432              		@ args = 0, pretend = 0, frame = 0
 1433              		@ frame_needed = 0, uses_anonymous_args = 0
 1434              		.loc 1 94 26 is_stmt 0 view .LVU292
 1435 0000 10B5     		push	{r4, lr}
 1436              	.LCFI12:
 1437              		.cfi_def_cfa_offset 8
 1438              		.cfi_offset 4, -8
 1439              		.cfi_offset 14, -4
 1440 0002 0446     		mov	r4, r0
  95:src/unit/motorDrive.cpp ****       _motor1a->write(1);
 1441              		.loc 1 95 7 is_stmt 1 view .LVU293
 1442              		.loc 1 95 22 is_stmt 0 view .LVU294
 1443 0004 B7EE000A 		vmov.f32	s0, #1.0e+0
 1444 0008 0068     		ldr	r0, [r0]
 1445              	.LVL131:
 1446              		.loc 1 95 22 view .LVU295
 1447 000a FFF7FEFF 		bl	_ZN12PwmSingleOut5writeEf
 1448              	.LVL132:
  96:src/unit/motorDrive.cpp ****       _motor1b->write(1);
 1449              		.loc 1 96 7 is_stmt 1 view .LVU296
 1450              		.loc 1 96 22 is_stmt 0 view .LVU297
 1451 000e B7EE000A 		vmov.f32	s0, #1.0e+0
 1452 0012 6068     		ldr	r0, [r4, #4]
 1453 0014 FFF7FEFF 		bl	_ZN12PwmSingleOut5writeEf
 1454              	.LVL133:
  97:src/unit/motorDrive.cpp ****       _motor2a->write(1);
 1455              		.loc 1 97 7 is_stmt 1 view .LVU298
 1456              		.loc 1 97 22 is_stmt 0 view .LVU299
 1457 0018 B7EE000A 		vmov.f32	s0, #1.0e+0
 1458 001c A068     		ldr	r0, [r4, #8]
 1459 001e FFF7FEFF 		bl	_ZN12PwmSingleOut5writeEf
 1460              	.LVL134:
  98:src/unit/motorDrive.cpp ****       _motor2b->write(1);
 1461              		.loc 1 98 7 is_stmt 1 view .LVU300
 1462              		.loc 1 98 22 is_stmt 0 view .LVU301
 1463 0022 B7EE000A 		vmov.f32	s0, #1.0e+0
 1464 0026 E068     		ldr	r0, [r4, #12]
 1465 0028 FFF7FEFF 		bl	_ZN12PwmSingleOut5writeEf
 1466              	.LVL135:
  99:src/unit/motorDrive.cpp **** }...
 1467              		.loc 1 99 1 view .LVU302
 1468 002c 10BD     		pop	{r4, pc}
 1469              		.loc 1 99 1 view .LVU303
 1470              		.cfi_endproc
 1471              	.LFE255:
 1472              		.cantunwind
ARM GAS  /var/folders/5c/srt4fy4j1pd641bjfx75k5000000gn/T//ccVJQiKM.s 			page 30


 1473              		.fnend
 1475              		.text
 1476              	.Letext0:
 1477              		.file 3 "/opt/ST/STM32CubeCLT_1.16.0/GNU-tools-for-STM32/arm-none-eabi/include/c++/12.3.1/cstdio"
 1478              		.file 4 "/opt/ST/STM32CubeCLT_1.16.0/GNU-tools-for-STM32/arm-none-eabi/include/c++/12.3.1/arm-none
 1479              		.file 5 "/opt/ST/STM32CubeCLT_1.16.0/GNU-tools-for-STM32/arm-none-eabi/include/machine/_default_ty
 1480              		.file 6 "/opt/ST/STM32CubeCLT_1.16.0/GNU-tools-for-STM32/lib/gcc/arm-none-eabi/12.3.1/include/stdd
 1481              		.file 7 "/opt/ST/STM32CubeCLT_1.16.0/GNU-tools-for-STM32/arm-none-eabi/include/sys/_types.h"
 1482              		.file 8 "/opt/ST/STM32CubeCLT_1.16.0/GNU-tools-for-STM32/arm-none-eabi/include/sys/reent.h"
 1483              		.file 9 "/opt/ST/STM32CubeCLT_1.16.0/GNU-tools-for-STM32/arm-none-eabi/include/sys/lock.h"
 1484              		.file 10 "/opt/ST/STM32CubeCLT_1.16.0/GNU-tools-for-STM32/arm-none-eabi/include/stdio.h"
 1485              		.file 11 "/opt/ST/STM32CubeCLT_1.16.0/GNU-tools-for-STM32/arm-none-eabi/include/sys/_stdint.h"
 1486              		.file 12 "Drivers/CMSIS/Device/ST/STM32F4xx/Include/stm32f446xx.h"
 1487              		.file 13 "Drivers/STM32F4xx_HAL_Driver/Inc/stm32f4xx_hal_def.h"
 1488              		.file 14 "Drivers/STM32F4xx_HAL_Driver/Inc/stm32f4xx_hal_dma.h"
 1489              		.file 15 "Drivers/STM32F4xx_HAL_Driver/Inc/stm32f4xx_hal_tim.h"
 1490              		.file 16 "Lib/Timer/Timer.hpp"
 1491              		.file 17 "src/unit/motorDrive.hpp"
ARM GAS  /var/folders/5c/srt4fy4j1pd641bjfx75k5000000gn/T//ccVJQiKM.s 			page 31

