ARM GAS  /var/folders/5c/srt4fy4j1pd641bjfx75k5000000gn/T//ccR7Q5Vu.s 			page 1


   1              		.cpu cortex-m4
   2              		.arch armv7e-m
   3              		.fpu fpv4-sp-d16
   4              		.eabi_attribute 27, 1
   5              		.eabi_attribute 28, 1
   6              		.eabi_attribute 20, 1
   7              		.eabi_attribute 21, 1
   8              		.eabi_attribute 23, 3
   9              		.eabi_attribute 24, 1
  10              		.eabi_attribute 25, 1
  11              		.eabi_attribute 26, 1
  12              		.eabi_attribute 30, 1
  13              		.eabi_attribute 34, 1
  14              		.eabi_attribute 18, 4
  15              		.file	"motorDrive.cpp"
  16              		.text
  17              	.Ltext0:
  18              		.cfi_sections	.debug_frame
  19              		.file 1 "src/unit/motorDrive.cpp"
  20              		.section	.text._ZN12PwmSingleOut4initEv,"axG",%progbits,_ZN12PwmSingleOut4initEv,comdat
  21              		.align	1
  22              		.weak	_ZN12PwmSingleOut4initEv
  23              		.syntax unified
  24              		.thumb
  25              		.thumb_func
  27              	_ZN12PwmSingleOut4initEv:
  28              		.fnstart
  29              	.LVL0:
  30              	.LFB245:
  31              		.file 2 "Lib/PWMSingle/PWMSingle.hpp"
   1:Lib/PWMSingle/PWMSingle.hpp **** #ifndef __PWMSINGLE__
   2:Lib/PWMSingle/PWMSingle.hpp **** #define __PWMSINGLE__
   3:Lib/PWMSingle/PWMSingle.hpp **** 
   4:Lib/PWMSingle/PWMSingle.hpp **** #include "MyMath.hpp"
   5:Lib/PWMSingle/PWMSingle.hpp **** #include "tim.h"
   6:Lib/PWMSingle/PWMSingle.hpp **** 
   7:Lib/PWMSingle/PWMSingle.hpp **** #ifdef __cplusplus
   8:Lib/PWMSingle/PWMSingle.hpp **** extern "C" {
   9:Lib/PWMSingle/PWMSingle.hpp **** 
  10:Lib/PWMSingle/PWMSingle.hpp **** class PwmSingleOut {
  11:Lib/PWMSingle/PWMSingle.hpp ****      public:
  12:Lib/PWMSingle/PWMSingle.hpp ****       PwmSingleOut(TIM_HandleTypeDef *htim, uint32_t channel)
  13:Lib/PWMSingle/PWMSingle.hpp ****           : _htim(htim), _channel(channel), _maxValue(_htim->Init.Period) {
  14:Lib/PWMSingle/PWMSingle.hpp ****       }
  15:Lib/PWMSingle/PWMSingle.hpp **** 
  16:Lib/PWMSingle/PWMSingle.hpp ****       void init() {
  32              		.loc 2 16 12 view -0
  33              		.cfi_startproc
  34              		@ args = 0, pretend = 0, frame = 0
  35              		@ frame_needed = 0, uses_anonymous_args = 0
  36              		.loc 2 16 12 is_stmt 0 view .LVU1
  37 0000 10B5     		push	{r4, lr}
  38              		.save {r4, lr}
  39              	.LCFI0:
  40              		.cfi_def_cfa_offset 8
  41              		.cfi_offset 4, -8
  42              		.cfi_offset 14, -4
ARM GAS  /var/folders/5c/srt4fy4j1pd641bjfx75k5000000gn/T//ccR7Q5Vu.s 			page 2


  43 0002 0446     		mov	r4, r0
  17:Lib/PWMSingle/PWMSingle.hpp ****             HAL_TIM_PWM_Start(_htim, _channel);
  44              		.loc 2 17 13 is_stmt 1 view .LVU2
  45              		.loc 2 17 30 is_stmt 0 view .LVU3
  46 0004 4168     		ldr	r1, [r0, #4]
  47 0006 0068     		ldr	r0, [r0]
  48              	.LVL1:
  49              		.loc 2 17 30 view .LVU4
  50 0008 FFF7FEFF 		bl	HAL_TIM_PWM_Start
  51              	.LVL2:
  18:Lib/PWMSingle/PWMSingle.hpp ****             _maxValue = _htim->Init.Period;
  52              		.loc 2 18 13 is_stmt 1 view .LVU5
  53              		.loc 2 18 25 is_stmt 0 view .LVU6
  54 000c 2368     		ldr	r3, [r4]
  55              		.loc 2 18 37 view .LVU7
  56 000e DB68     		ldr	r3, [r3, #12]
  57              		.loc 2 18 23 view .LVU8
  58 0010 A360     		str	r3, [r4, #8]
  19:Lib/PWMSingle/PWMSingle.hpp ****       }
  59              		.loc 2 19 7 view .LVU9
  60 0012 10BD     		pop	{r4, pc}
  61              		.loc 2 19 7 view .LVU10
  62              		.cfi_endproc
  63              	.LFE245:
  64              		.fnend
  66              		.global	__aeabi_f2d
  67              		.global	__aeabi_ui2d
  68              		.global	__aeabi_dmul
  69              		.global	__aeabi_d2iz
  70              		.section	.text._ZN12PwmSingleOut5writeEf,"axG",%progbits,_ZN12PwmSingleOut5writeEf,comdat
  71              		.align	1
  72              		.weak	_ZN12PwmSingleOut5writeEf
  73              		.syntax unified
  74              		.thumb
  75              		.thumb_func
  77              	_ZN12PwmSingleOut5writeEf:
  78              		.fnstart
  79              	.LVL3:
  80              	.LFB246:
  20:Lib/PWMSingle/PWMSingle.hpp **** 
  21:Lib/PWMSingle/PWMSingle.hpp ****       void write(float duty) {
  81              		.loc 2 21 12 is_stmt 1 view -0
  82              		.cfi_startproc
  83              		@ args = 0, pretend = 0, frame = 0
  84              		@ frame_needed = 0, uses_anonymous_args = 0
  85              		.loc 2 21 12 is_stmt 0 view .LVU12
  86 0000 D0B5     		push	{r4, r6, r7, lr}
  87              	.LCFI1:
  88              		.cfi_def_cfa_offset 16
  89              		.cfi_offset 4, -16
  90              		.cfi_offset 6, -12
  91              		.cfi_offset 7, -8
  92              		.cfi_offset 14, -4
  93 0002 0446     		mov	r4, r0
  22:Lib/PWMSingle/PWMSingle.hpp ****             duty = (int)(Constrain(duty, 0.0, 1.0) * _maxValue);
  94              		.loc 2 22 13 is_stmt 1 view .LVU13
  95              		.loc 2 22 26 is_stmt 0 view .LVU14
ARM GAS  /var/folders/5c/srt4fy4j1pd641bjfx75k5000000gn/T//ccR7Q5Vu.s 			page 3


  96 0004 B5EEC00A 		vcmpe.f32	s0, #0
  97 0008 F1EE10FA 		vmrs	APSR_nzcv, FPSCR
  98 000c 10D4     		bmi	.L9
  99              		.loc 2 22 26 discriminator 2 view .LVU15
 100 000e F7EE007A 		vmov.f32	s15, #1.0e+0
 101 0012 B4EEE70A 		vcmpe.f32	s0, s15
 102 0016 F1EE10FA 		vmrs	APSR_nzcv, FPSCR
 103 001a 02DD     		ble	.L12
 104              		.loc 2 22 26 view .LVU16
 105 001c 0026     		movs	r6, #0
 106 001e 1D4F     		ldr	r7, .L15
 107 0020 08E0     		b	.L4
 108              	.L12:
 109              		.loc 2 22 26 discriminator 5 view .LVU17
 110 0022 10EE100A 		vmov	r0, s0
 111              	.LVL4:
 112              		.loc 2 22 26 discriminator 5 view .LVU18
 113 0026 FFF7FEFF 		bl	__aeabi_f2d
 114              	.LVL5:
 115              		.loc 2 22 26 discriminator 5 view .LVU19
 116 002a 0646     		mov	r6, r0
 117 002c 0F46     		mov	r7, r1
 118 002e 01E0     		b	.L4
 119              	.LVL6:
 120              	.L9:
 121              		.loc 2 22 26 view .LVU20
 122 0030 0026     		movs	r6, #0
 123 0032 0027     		movs	r7, #0
 124              	.LVL7:
 125              	.L4:
 126              		.loc 2 22 52 discriminator 8 view .LVU21
 127 0034 A068     		ldr	r0, [r4, #8]
 128 0036 FFF7FEFF 		bl	__aeabi_ui2d
 129              	.LVL8:
 130 003a 3246     		mov	r2, r6
 131 003c 3B46     		mov	r3, r7
 132 003e FFF7FEFF 		bl	__aeabi_dmul
 133              	.LVL9:
 134              		.loc 2 22 20 discriminator 8 view .LVU22
 135 0042 FFF7FEFF 		bl	__aeabi_d2iz
 136              	.LVL10:
 137 0046 07EE900A 		vmov	s15, r0	@ int
 138              		.loc 2 22 18 discriminator 8 view .LVU23
 139 004a F8EEE77A 		vcvt.f32.s32	s15, s15
 140              	.LVL11:
  23:Lib/PWMSingle/PWMSingle.hpp ****             __HAL_TIM_SET_COMPARE(_htim, _channel, duty);
 141              		.loc 2 23 13 is_stmt 1 discriminator 8 view .LVU24
 142 004e 6368     		ldr	r3, [r4, #4]
 143 0050 33B9     		cbnz	r3, .L5
 144              		.loc 2 23 13 is_stmt 0 discriminator 1 view .LVU25
 145 0052 2368     		ldr	r3, [r4]
 146 0054 1B68     		ldr	r3, [r3]
 147 0056 FCEEE77A 		vcvt.u32.f32	s15, s15
 148              	.LVL12:
 149              		.loc 2 23 13 discriminator 1 view .LVU26
 150 005a C3ED0D7A 		vstr.32	s15, [r3, #52]	@ int
 151              	.L3:
ARM GAS  /var/folders/5c/srt4fy4j1pd641bjfx75k5000000gn/T//ccR7Q5Vu.s 			page 4


  24:Lib/PWMSingle/PWMSingle.hpp ****       }
 152              		.loc 2 24 7 view .LVU27
 153 005e D0BD     		pop	{r4, r6, r7, pc}
 154              	.LVL13:
 155              	.L5:
  23:Lib/PWMSingle/PWMSingle.hpp ****             __HAL_TIM_SET_COMPARE(_htim, _channel, duty);
 156              		.loc 2 23 13 discriminator 2 view .LVU28
 157 0060 042B     		cmp	r3, #4
 158 0062 08D0     		beq	.L13
  23:Lib/PWMSingle/PWMSingle.hpp ****             __HAL_TIM_SET_COMPARE(_htim, _channel, duty);
 159              		.loc 2 23 13 discriminator 4 view .LVU29
 160 0064 082B     		cmp	r3, #8
 161 0066 0DD0     		beq	.L14
  23:Lib/PWMSingle/PWMSingle.hpp ****             __HAL_TIM_SET_COMPARE(_htim, _channel, duty);
 162              		.loc 2 23 13 discriminator 6 view .LVU30
 163 0068 2368     		ldr	r3, [r4]
 164 006a 1B68     		ldr	r3, [r3]
 165 006c FCEEE77A 		vcvt.u32.f32	s15, s15
 166              	.LVL14:
  23:Lib/PWMSingle/PWMSingle.hpp ****             __HAL_TIM_SET_COMPARE(_htim, _channel, duty);
 167              		.loc 2 23 13 discriminator 6 view .LVU31
 168 0070 C3ED107A 		vstr.32	s15, [r3, #64]	@ int
 169              		.loc 2 24 7 discriminator 6 view .LVU32
 170 0074 F3E7     		b	.L3
 171              	.LVL15:
 172              	.L13:
  23:Lib/PWMSingle/PWMSingle.hpp ****             __HAL_TIM_SET_COMPARE(_htim, _channel, duty);
 173              		.loc 2 23 13 discriminator 3 view .LVU33
 174 0076 2368     		ldr	r3, [r4]
 175 0078 1B68     		ldr	r3, [r3]
 176 007a FCEEE77A 		vcvt.u32.f32	s15, s15
 177              	.LVL16:
  23:Lib/PWMSingle/PWMSingle.hpp ****             __HAL_TIM_SET_COMPARE(_htim, _channel, duty);
 178              		.loc 2 23 13 discriminator 3 view .LVU34
 179 007e C3ED0E7A 		vstr.32	s15, [r3, #56]	@ int
 180 0082 ECE7     		b	.L3
 181              	.LVL17:
 182              	.L14:
  23:Lib/PWMSingle/PWMSingle.hpp ****             __HAL_TIM_SET_COMPARE(_htim, _channel, duty);
 183              		.loc 2 23 13 discriminator 5 view .LVU35
 184 0084 2368     		ldr	r3, [r4]
 185 0086 1B68     		ldr	r3, [r3]
 186 0088 FCEEE77A 		vcvt.u32.f32	s15, s15
 187              	.LVL18:
  23:Lib/PWMSingle/PWMSingle.hpp ****             __HAL_TIM_SET_COMPARE(_htim, _channel, duty);
 188              		.loc 2 23 13 discriminator 5 view .LVU36
 189 008c C3ED0F7A 		vstr.32	s15, [r3, #60]	@ int
 190 0090 E5E7     		b	.L3
 191              	.L16:
 192 0092 00BF     		.align	2
 193              	.L15:
 194 0094 0000F03F 		.word	1072693248
 195              		.cfi_endproc
 196              	.LFE246:
 197              		.cantunwind
 198              		.fnend
 200              		.section	.text._ZN10MotorDriveC2EP12PwmSingleOutS1_S1_S1_PtS2_,"ax",%progbits
ARM GAS  /var/folders/5c/srt4fy4j1pd641bjfx75k5000000gn/T//ccR7Q5Vu.s 			page 5


 201              		.align	1
 202              		.global	_ZN10MotorDriveC2EP12PwmSingleOutS1_S1_S1_PtS2_
 203              		.syntax unified
 204              		.thumb
 205              		.thumb_func
 207              	_ZN10MotorDriveC2EP12PwmSingleOutS1_S1_S1_PtS2_:
 208              		.fnstart
 209              	.LVL19:
 210              	.LFB249:
   1:src/unit/motorDrive.cpp **** #include "motorDrive.hpp"
   2:src/unit/motorDrive.cpp **** 
   3:src/unit/motorDrive.cpp **** MotorDrive::MotorDrive(PwmSingleOut *motor1a, PwmSingleOut *motor1b, PwmSingleOut *motor2a, PwmSing
 211              		.loc 1 3 1 is_stmt 1 view -0
 212              		.cfi_startproc
 213              		@ args = 12, pretend = 0, frame = 0
 214              		@ frame_needed = 0, uses_anonymous_args = 0
 215              		@ link register save eliminated.
 216              	.LBB2:
   4:src/unit/motorDrive.cpp ****     : _motor1a(motor1a), _motor1b(motor1b), _motor2a(motor2a), _motor2b(motor2b) {
 217              		.loc 1 4 7 is_stmt 0 view .LVU38
 218 0000 0160     		str	r1, [r0]
 219              		.loc 1 4 26 view .LVU39
 220 0002 4260     		str	r2, [r0, #4]
 221              		.loc 1 4 45 view .LVU40
 222 0004 8360     		str	r3, [r0, #8]
 223              		.loc 1 4 64 view .LVU41
 224 0006 009B     		ldr	r3, [sp]
 225              	.LVL20:
 226              		.loc 1 4 64 view .LVU42
 227 0008 C360     		str	r3, [r0, #12]
   5:src/unit/motorDrive.cpp ****       this->_encoderLeft = encoderLeft;
 228              		.loc 1 5 7 is_stmt 1 view .LVU43
 229              		.loc 1 5 26 is_stmt 0 view .LVU44
 230 000a 019B     		ldr	r3, [sp, #4]
 231 000c 0361     		str	r3, [r0, #16]
   6:src/unit/motorDrive.cpp ****       this->_encoderRight = encoderRight;
 232              		.loc 1 6 7 is_stmt 1 view .LVU45
 233              		.loc 1 6 27 is_stmt 0 view .LVU46
 234 000e 029B     		ldr	r3, [sp, #8]
 235 0010 4361     		str	r3, [r0, #20]
 236              	.LBE2:
   7:src/unit/motorDrive.cpp **** }
 237              		.loc 1 7 1 view .LVU47
 238 0012 7047     		bx	lr
 239              		.cfi_endproc
 240              	.LFE249:
 241              		.cantunwind
 242              		.fnend
 244              		.global	_ZN10MotorDriveC1EP12PwmSingleOutS1_S1_S1_PtS2_
 245              		.thumb_set _ZN10MotorDriveC1EP12PwmSingleOutS1_S1_S1_PtS2_,_ZN10MotorDriveC2EP12PwmSingleOutS1_S1_
 246              		.section	.text._ZN10MotorDrive4initEv,"ax",%progbits
 247              		.align	1
 248              		.global	_ZN10MotorDrive4initEv
 249              		.syntax unified
 250              		.thumb
 251              		.thumb_func
 253              	_ZN10MotorDrive4initEv:
ARM GAS  /var/folders/5c/srt4fy4j1pd641bjfx75k5000000gn/T//ccR7Q5Vu.s 			page 6


 254              		.fnstart
 255              	.LVL21:
 256              	.LFB251:
   8:src/unit/motorDrive.cpp **** 
   9:src/unit/motorDrive.cpp **** void MotorDrive::init() {
 257              		.loc 1 9 25 is_stmt 1 view -0
 258              		.cfi_startproc
 259              		@ args = 0, pretend = 0, frame = 0
 260              		@ frame_needed = 0, uses_anonymous_args = 0
 261              		.loc 1 9 25 is_stmt 0 view .LVU49
 262 0000 10B5     		push	{r4, lr}
 263              		.save {r4, lr}
 264              	.LCFI2:
 265              		.cfi_def_cfa_offset 8
 266              		.cfi_offset 4, -8
 267              		.cfi_offset 14, -4
 268 0002 0446     		mov	r4, r0
  10:src/unit/motorDrive.cpp ****       _motor1a->init();
 269              		.loc 1 10 7 is_stmt 1 view .LVU50
 270              		.loc 1 10 21 is_stmt 0 view .LVU51
 271 0004 0068     		ldr	r0, [r0]
 272              	.LVL22:
 273              		.loc 1 10 21 view .LVU52
 274 0006 FFF7FEFF 		bl	_ZN12PwmSingleOut4initEv
 275              	.LVL23:
  11:src/unit/motorDrive.cpp ****       _motor1b->init();
 276              		.loc 1 11 7 is_stmt 1 view .LVU53
 277              		.loc 1 11 21 is_stmt 0 view .LVU54
 278 000a 6068     		ldr	r0, [r4, #4]
 279 000c FFF7FEFF 		bl	_ZN12PwmSingleOut4initEv
 280              	.LVL24:
  12:src/unit/motorDrive.cpp ****       _motor2a->init();
 281              		.loc 1 12 7 is_stmt 1 view .LVU55
 282              		.loc 1 12 21 is_stmt 0 view .LVU56
 283 0010 A068     		ldr	r0, [r4, #8]
 284 0012 FFF7FEFF 		bl	_ZN12PwmSingleOut4initEv
 285              	.LVL25:
  13:src/unit/motorDrive.cpp ****       _motor2b->init();
 286              		.loc 1 13 7 is_stmt 1 view .LVU57
 287              		.loc 1 13 21 is_stmt 0 view .LVU58
 288 0016 E068     		ldr	r0, [r4, #12]
 289 0018 FFF7FEFF 		bl	_ZN12PwmSingleOut4initEv
 290              	.LVL26:
  14:src/unit/motorDrive.cpp **** }
 291              		.loc 1 14 1 view .LVU59
 292 001c 10BD     		pop	{r4, pc}
 293              		.loc 1 14 1 view .LVU60
 294              		.cfi_endproc
 295              	.LFE251:
 296              		.fnend
 298              		.section	.text._ZN10MotorDrive14encoderComputeEv,"ax",%progbits
 299              		.align	1
 300              		.global	_ZN10MotorDrive14encoderComputeEv
 301              		.syntax unified
 302              		.thumb
 303              		.thumb_func
 305              	_ZN10MotorDrive14encoderComputeEv:
ARM GAS  /var/folders/5c/srt4fy4j1pd641bjfx75k5000000gn/T//ccR7Q5Vu.s 			page 7


 306              		.fnstart
 307              	.LVL27:
 308              	.LFB252:
  15:src/unit/motorDrive.cpp **** 
  16:src/unit/motorDrive.cpp **** void MotorDrive::encoderCompute() {
 309              		.loc 1 16 35 is_stmt 1 view -0
 310              		.cfi_startproc
 311              		@ args = 0, pretend = 0, frame = 0
 312              		@ frame_needed = 0, uses_anonymous_args = 0
 313              		@ link register save eliminated.
  17:src/unit/motorDrive.cpp ****       speedLeft = preEncoderLeft - *_encoderLeft;
 314              		.loc 1 17 7 view .LVU62
 315              		.loc 1 17 19 is_stmt 0 view .LVU63
 316 0000 838B     		ldrh	r3, [r0, #28]
 317              		.loc 1 17 37 view .LVU64
 318 0002 0269     		ldr	r2, [r0, #16]
 319              		.loc 1 17 36 view .LVU65
 320 0004 1188     		ldrh	r1, [r2]
 321              		.loc 1 17 34 view .LVU66
 322 0006 5B1A     		subs	r3, r3, r1
 323              		.loc 1 17 17 view .LVU67
 324 0008 0383     		strh	r3, [r0, #24]	@ movhi
  18:src/unit/motorDrive.cpp ****       preEncoderLeft = *_encoderLeft;
 325              		.loc 1 18 7 is_stmt 1 view .LVU68
 326              		.loc 1 18 24 is_stmt 0 view .LVU69
 327 000a B2F90030 		ldrsh	r3, [r2]
 328              		.loc 1 18 22 view .LVU70
 329 000e 8383     		strh	r3, [r0, #28]	@ movhi
  19:src/unit/motorDrive.cpp **** }
 330              		.loc 1 19 1 view .LVU71
 331 0010 7047     		bx	lr
 332              		.cfi_endproc
 333              	.LFE252:
 334              		.cantunwind
 335              		.fnend
 337              		.section	.text._ZN10MotorDrive5driveEaa,"ax",%progbits
 338              		.align	1
 339              		.global	_ZN10MotorDrive5driveEaa
 340              		.syntax unified
 341              		.thumb
 342              		.thumb_func
 344              	_ZN10MotorDrive5driveEaa:
 345              		.fnstart
 346              	.LVL28:
 347              	.LFB253:
  20:src/unit/motorDrive.cpp **** 
  21:src/unit/motorDrive.cpp **** void MotorDrive::drive(int8_t left, int8_t right) {
 348              		.loc 1 21 51 is_stmt 1 view -0
 349              		.cfi_startproc
 350              		@ args = 0, pretend = 0, frame = 0
 351              		@ frame_needed = 0, uses_anonymous_args = 0
 352              		.loc 1 21 51 is_stmt 0 view .LVU73
 353 0000 10B5     		push	{r4, lr}
 354              		.save {r4, lr}
 355              	.LCFI3:
 356              		.cfi_def_cfa_offset 8
 357              		.cfi_offset 4, -8
ARM GAS  /var/folders/5c/srt4fy4j1pd641bjfx75k5000000gn/T//ccR7Q5Vu.s 			page 8


 358              		.cfi_offset 14, -4
 359 0002 2DED028B 		vpush.64	{d8}
 360              		.vsave {d8}
 361              	.LCFI4:
 362              		.cfi_def_cfa_offset 16
 363              		.cfi_offset 80, -16
 364              		.cfi_offset 81, -12
 365 0006 0446     		mov	r4, r0
 366 0008 08EE901A 		vmov	s17, r1	@ int
 367 000c 08EE102A 		vmov	s16, r2	@ int
  22:src/unit/motorDrive.cpp ****       float left_power = left * 0.01f;
 368              		.loc 1 22 7 is_stmt 1 view .LVU74
 369              		.loc 1 22 31 is_stmt 0 view .LVU75
 370 0010 F8EEE88A 		vcvt.f32.s32	s17, s17
 371              		.loc 1 22 13 view .LVU76
 372 0014 DFED207A 		vldr.32	s15, .L33
 373 0018 68EEA78A 		vmul.f32	s17, s17, s15
 374              	.LVL29:
  23:src/unit/motorDrive.cpp ****       float right_power = right * 0.01f;
 375              		.loc 1 23 7 is_stmt 1 view .LVU77
 376              		.loc 1 23 33 is_stmt 0 view .LVU78
 377 001c B8EEC88A 		vcvt.f32.s32	s16, s16
 378              		.loc 1 23 13 view .LVU79
 379 0020 28EE278A 		vmul.f32	s16, s16, s15
 380              	.LVL30:
  24:src/unit/motorDrive.cpp ****       init();
 381              		.loc 1 24 7 is_stmt 1 view .LVU80
 382              		.loc 1 24 11 is_stmt 0 view .LVU81
 383 0024 FFF7FEFF 		bl	_ZN10MotorDrive4initEv
 384              	.LVL31:
  25:src/unit/motorDrive.cpp ****       if (left_power > 0) {
 385              		.loc 1 25 7 is_stmt 1 view .LVU82
 386 0028 F5EEC08A 		vcmpe.f32	s17, #0
 387 002c F1EE10FA 		vmrs	APSR_nzcv, FPSCR
 388 0030 1BDD     		ble	.L30
  26:src/unit/motorDrive.cpp ****             _motor1a->write(left_power);
 389              		.loc 1 26 13 view .LVU83
 390              		.loc 1 26 28 is_stmt 0 view .LVU84
 391 0032 B0EE680A 		vmov.f32	s0, s17
 392 0036 2068     		ldr	r0, [r4]
 393 0038 FFF7FEFF 		bl	_ZN12PwmSingleOut5writeEf
 394              	.LVL32:
  27:src/unit/motorDrive.cpp ****             _motor1b->write(0);
 395              		.loc 1 27 13 is_stmt 1 view .LVU85
 396              		.loc 1 27 28 is_stmt 0 view .LVU86
 397 003c 9FED170A 		vldr.32	s0, .L33+4
 398 0040 6068     		ldr	r0, [r4, #4]
 399 0042 FFF7FEFF 		bl	_ZN12PwmSingleOut5writeEf
 400              	.LVL33:
 401              	.L24:
  28:src/unit/motorDrive.cpp ****       } else {
  29:src/unit/motorDrive.cpp ****             _motor1a->write(0);
  30:src/unit/motorDrive.cpp ****             _motor1b->write(left_power * -1);
  31:src/unit/motorDrive.cpp ****       }
  32:src/unit/motorDrive.cpp ****       if (right_power > 0) {
 402              		.loc 1 32 7 is_stmt 1 view .LVU87
 403 0046 B5EEC08A 		vcmpe.f32	s16, #0
ARM GAS  /var/folders/5c/srt4fy4j1pd641bjfx75k5000000gn/T//ccR7Q5Vu.s 			page 9


 404 004a F1EE10FA 		vmrs	APSR_nzcv, FPSCR
 405 004e 17DD     		ble	.L31
  33:src/unit/motorDrive.cpp ****             _motor2a->write(right_power);
 406              		.loc 1 33 13 view .LVU88
 407              		.loc 1 33 28 is_stmt 0 view .LVU89
 408 0050 B0EE480A 		vmov.f32	s0, s16
 409 0054 A068     		ldr	r0, [r4, #8]
 410 0056 FFF7FEFF 		bl	_ZN12PwmSingleOut5writeEf
 411              	.LVL34:
  34:src/unit/motorDrive.cpp ****             _motor2b->write(0);
 412              		.loc 1 34 13 is_stmt 1 view .LVU90
 413              		.loc 1 34 28 is_stmt 0 view .LVU91
 414 005a 9FED100A 		vldr.32	s0, .L33+4
 415 005e E068     		ldr	r0, [r4, #12]
 416 0060 FFF7FEFF 		bl	_ZN12PwmSingleOut5writeEf
 417              	.LVL35:
 418              	.L21:
  35:src/unit/motorDrive.cpp ****       } else {
  36:src/unit/motorDrive.cpp ****             _motor2a->write(0);
  37:src/unit/motorDrive.cpp ****             _motor2b->write(right_power * -1);
  38:src/unit/motorDrive.cpp ****       }
  39:src/unit/motorDrive.cpp **** }
 419              		.loc 1 39 1 view .LVU92
 420 0064 BDEC028B 		vldm	sp!, {d8}
 421              	.LCFI5:
 422              		.cfi_remember_state
 423              		.cfi_restore 80
 424              		.cfi_restore 81
 425              		.cfi_def_cfa_offset 8
 426              	.LVL36:
 427              		.loc 1 39 1 view .LVU93
 428 0068 10BD     		pop	{r4, pc}
 429              	.LVL37:
 430              	.L30:
 431              	.LCFI6:
 432              		.cfi_restore_state
  29:src/unit/motorDrive.cpp ****             _motor1b->write(left_power * -1);
 433              		.loc 1 29 13 is_stmt 1 view .LVU94
  29:src/unit/motorDrive.cpp ****             _motor1b->write(left_power * -1);
 434              		.loc 1 29 28 is_stmt 0 view .LVU95
 435 006a 9FED0C0A 		vldr.32	s0, .L33+4
 436 006e 2068     		ldr	r0, [r4]
 437 0070 FFF7FEFF 		bl	_ZN12PwmSingleOut5writeEf
 438              	.LVL38:
  30:src/unit/motorDrive.cpp ****       }
 439              		.loc 1 30 13 is_stmt 1 view .LVU96
  30:src/unit/motorDrive.cpp ****       }
 440              		.loc 1 30 28 is_stmt 0 view .LVU97
 441 0074 B1EE680A 		vneg.f32	s0, s17
 442 0078 6068     		ldr	r0, [r4, #4]
 443 007a FFF7FEFF 		bl	_ZN12PwmSingleOut5writeEf
 444              	.LVL39:
 445 007e E2E7     		b	.L24
 446              	.L31:
  36:src/unit/motorDrive.cpp ****             _motor2b->write(right_power * -1);
 447              		.loc 1 36 13 is_stmt 1 view .LVU98
  36:src/unit/motorDrive.cpp ****             _motor2b->write(right_power * -1);
ARM GAS  /var/folders/5c/srt4fy4j1pd641bjfx75k5000000gn/T//ccR7Q5Vu.s 			page 10


 448              		.loc 1 36 28 is_stmt 0 view .LVU99
 449 0080 9FED060A 		vldr.32	s0, .L33+4
 450 0084 A068     		ldr	r0, [r4, #8]
 451 0086 FFF7FEFF 		bl	_ZN12PwmSingleOut5writeEf
 452              	.LVL40:
  37:src/unit/motorDrive.cpp ****       }
 453              		.loc 1 37 13 is_stmt 1 view .LVU100
  37:src/unit/motorDrive.cpp ****       }
 454              		.loc 1 37 28 is_stmt 0 view .LVU101
 455 008a B1EE480A 		vneg.f32	s0, s16
 456 008e E068     		ldr	r0, [r4, #12]
 457 0090 FFF7FEFF 		bl	_ZN12PwmSingleOut5writeEf
 458              	.LVL41:
 459              		.loc 1 39 1 view .LVU102
 460 0094 E6E7     		b	.L21
 461              	.L34:
 462 0096 00BF     		.align	2
 463              	.L33:
 464 0098 0AD7233C 		.word	1008981770
 465 009c 00000000 		.word	0
 466              		.cfi_endproc
 467              	.LFE253:
 468              		.fnend
 470              		.section	.text._ZN10MotorDrive5brakeEv,"ax",%progbits
 471              		.align	1
 472              		.global	_ZN10MotorDrive5brakeEv
 473              		.syntax unified
 474              		.thumb
 475              		.thumb_func
 477              	_ZN10MotorDrive5brakeEv:
 478              		.fnstart
 479              	.LVL42:
 480              	.LFB254:
  40:src/unit/motorDrive.cpp **** 
  41:src/unit/motorDrive.cpp **** void MotorDrive::brake() {
 481              		.loc 1 41 26 is_stmt 1 view -0
 482              		.cfi_startproc
 483              		@ args = 0, pretend = 0, frame = 0
 484              		@ frame_needed = 0, uses_anonymous_args = 0
 485              		.loc 1 41 26 is_stmt 0 view .LVU104
 486 0000 10B5     		push	{r4, lr}
 487              	.LCFI7:
 488              		.cfi_def_cfa_offset 8
 489              		.cfi_offset 4, -8
 490              		.cfi_offset 14, -4
 491 0002 0446     		mov	r4, r0
  42:src/unit/motorDrive.cpp ****       _motor1a->write(1);
 492              		.loc 1 42 7 is_stmt 1 view .LVU105
 493              		.loc 1 42 22 is_stmt 0 view .LVU106
 494 0004 B7EE000A 		vmov.f32	s0, #1.0e+0
 495 0008 0068     		ldr	r0, [r0]
 496              	.LVL43:
 497              		.loc 1 42 22 view .LVU107
 498 000a FFF7FEFF 		bl	_ZN12PwmSingleOut5writeEf
 499              	.LVL44:
  43:src/unit/motorDrive.cpp ****       _motor1b->write(1);
 500              		.loc 1 43 7 is_stmt 1 view .LVU108
ARM GAS  /var/folders/5c/srt4fy4j1pd641bjfx75k5000000gn/T//ccR7Q5Vu.s 			page 11


 501              		.loc 1 43 22 is_stmt 0 view .LVU109
 502 000e B7EE000A 		vmov.f32	s0, #1.0e+0
 503 0012 6068     		ldr	r0, [r4, #4]
 504 0014 FFF7FEFF 		bl	_ZN12PwmSingleOut5writeEf
 505              	.LVL45:
  44:src/unit/motorDrive.cpp ****       _motor2a->write(1);
 506              		.loc 1 44 7 is_stmt 1 view .LVU110
 507              		.loc 1 44 22 is_stmt 0 view .LVU111
 508 0018 B7EE000A 		vmov.f32	s0, #1.0e+0
 509 001c A068     		ldr	r0, [r4, #8]
 510 001e FFF7FEFF 		bl	_ZN12PwmSingleOut5writeEf
 511              	.LVL46:
  45:src/unit/motorDrive.cpp ****       _motor2b->write(1);
 512              		.loc 1 45 7 is_stmt 1 view .LVU112
 513              		.loc 1 45 22 is_stmt 0 view .LVU113
 514 0022 B7EE000A 		vmov.f32	s0, #1.0e+0
 515 0026 E068     		ldr	r0, [r4, #12]
 516 0028 FFF7FEFF 		bl	_ZN12PwmSingleOut5writeEf
 517              	.LVL47:
  46:src/unit/motorDrive.cpp **** }...
 518              		.loc 1 46 1 view .LVU114
 519 002c 10BD     		pop	{r4, pc}
 520              		.loc 1 46 1 view .LVU115
 521              		.cfi_endproc
 522              	.LFE254:
 523              		.cantunwind
 524              		.fnend
 526              		.text
 527              	.Letext0:
 528              		.file 3 "/opt/ST/STM32CubeCLT_1.16.0/GNU-tools-for-STM32/arm-none-eabi/include/c++/12.3.1/cstdio"
 529              		.file 4 "/opt/ST/STM32CubeCLT_1.16.0/GNU-tools-for-STM32/arm-none-eabi/include/c++/12.3.1/arm-none
 530              		.file 5 "/opt/ST/STM32CubeCLT_1.16.0/GNU-tools-for-STM32/arm-none-eabi/include/machine/_default_ty
 531              		.file 6 "/opt/ST/STM32CubeCLT_1.16.0/GNU-tools-for-STM32/lib/gcc/arm-none-eabi/12.3.1/include/stdd
 532              		.file 7 "/opt/ST/STM32CubeCLT_1.16.0/GNU-tools-for-STM32/arm-none-eabi/include/sys/_types.h"
 533              		.file 8 "/opt/ST/STM32CubeCLT_1.16.0/GNU-tools-for-STM32/arm-none-eabi/include/sys/reent.h"
 534              		.file 9 "/opt/ST/STM32CubeCLT_1.16.0/GNU-tools-for-STM32/arm-none-eabi/include/sys/lock.h"
 535              		.file 10 "/opt/ST/STM32CubeCLT_1.16.0/GNU-tools-for-STM32/arm-none-eabi/include/stdio.h"
 536              		.file 11 "/opt/ST/STM32CubeCLT_1.16.0/GNU-tools-for-STM32/arm-none-eabi/include/sys/_stdint.h"
 537              		.file 12 "Drivers/CMSIS/Device/ST/STM32F4xx/Include/stm32f446xx.h"
 538              		.file 13 "Drivers/STM32F4xx_HAL_Driver/Inc/stm32f4xx_hal_def.h"
 539              		.file 14 "Drivers/STM32F4xx_HAL_Driver/Inc/stm32f4xx_hal_dma.h"
 540              		.file 15 "Drivers/STM32F4xx_HAL_Driver/Inc/stm32f4xx_hal_tim.h"
 541              		.file 16 "src/unit/motorDrive.hpp"
ARM GAS  /var/folders/5c/srt4fy4j1pd641bjfx75k5000000gn/T//ccR7Q5Vu.s 			page 12


DEFINED SYMBOLS
                            *ABS*:00000000 motorDrive.cpp
/var/folders/5c/srt4fy4j1pd641bjfx75k5000000gn/T//ccR7Q5Vu.s:21     .text._ZN12PwmSingleOut4initEv:00000000 $t
/var/folders/5c/srt4fy4j1pd641bjfx75k5000000gn/T//ccR7Q5Vu.s:27     .text._ZN12PwmSingleOut4initEv:00000000 _ZN12PwmSingleOut4initEv
.ARM.exidx.text._ZN12PwmSingleOut4initEv:00000000 $d
/var/folders/5c/srt4fy4j1pd641bjfx75k5000000gn/T//ccR7Q5Vu.s:71     .text._ZN12PwmSingleOut5writeEf:00000000 $t
/var/folders/5c/srt4fy4j1pd641bjfx75k5000000gn/T//ccR7Q5Vu.s:77     .text._ZN12PwmSingleOut5writeEf:00000000 _ZN12PwmSingleOut5writeEf
/var/folders/5c/srt4fy4j1pd641bjfx75k5000000gn/T//ccR7Q5Vu.s:194    .text._ZN12PwmSingleOut5writeEf:00000094 $d
.ARM.exidx.text._ZN12PwmSingleOut5writeEf:00000000 $d
/var/folders/5c/srt4fy4j1pd641bjfx75k5000000gn/T//ccR7Q5Vu.s:201    .text._ZN10MotorDriveC2EP12PwmSingleOutS1_S1_S1_PtS2_:00000000 $t
/var/folders/5c/srt4fy4j1pd641bjfx75k5000000gn/T//ccR7Q5Vu.s:207    .text._ZN10MotorDriveC2EP12PwmSingleOutS1_S1_S1_PtS2_:00000000 _ZN10MotorDriveC2EP12PwmSingleOutS1_S1_S1_PtS2_
.ARM.exidx.text._ZN10MotorDriveC2EP12PwmSingleOutS1_S1_S1_PtS2_:00000000 $d
/var/folders/5c/srt4fy4j1pd641bjfx75k5000000gn/T//ccR7Q5Vu.s:207    .text._ZN10MotorDriveC2EP12PwmSingleOutS1_S1_S1_PtS2_:00000000 _ZN10MotorDriveC1EP12PwmSingleOutS1_S1_S1_PtS2_
/var/folders/5c/srt4fy4j1pd641bjfx75k5000000gn/T//ccR7Q5Vu.s:247    .text._ZN10MotorDrive4initEv:00000000 $t
/var/folders/5c/srt4fy4j1pd641bjfx75k5000000gn/T//ccR7Q5Vu.s:253    .text._ZN10MotorDrive4initEv:00000000 _ZN10MotorDrive4initEv
.ARM.exidx.text._ZN10MotorDrive4initEv:00000000 $d
/var/folders/5c/srt4fy4j1pd641bjfx75k5000000gn/T//ccR7Q5Vu.s:299    .text._ZN10MotorDrive14encoderComputeEv:00000000 $t
/var/folders/5c/srt4fy4j1pd641bjfx75k5000000gn/T//ccR7Q5Vu.s:305    .text._ZN10MotorDrive14encoderComputeEv:00000000 _ZN10MotorDrive14encoderComputeEv
.ARM.exidx.text._ZN10MotorDrive14encoderComputeEv:00000000 $d
/var/folders/5c/srt4fy4j1pd641bjfx75k5000000gn/T//ccR7Q5Vu.s:338    .text._ZN10MotorDrive5driveEaa:00000000 $t
/var/folders/5c/srt4fy4j1pd641bjfx75k5000000gn/T//ccR7Q5Vu.s:344    .text._ZN10MotorDrive5driveEaa:00000000 _ZN10MotorDrive5driveEaa
/var/folders/5c/srt4fy4j1pd641bjfx75k5000000gn/T//ccR7Q5Vu.s:464    .text._ZN10MotorDrive5driveEaa:00000098 $d
.ARM.exidx.text._ZN10MotorDrive5driveEaa:00000000 $d
/var/folders/5c/srt4fy4j1pd641bjfx75k5000000gn/T//ccR7Q5Vu.s:471    .text._ZN10MotorDrive5brakeEv:00000000 $t
/var/folders/5c/srt4fy4j1pd641bjfx75k5000000gn/T//ccR7Q5Vu.s:477    .text._ZN10MotorDrive5brakeEv:00000000 _ZN10MotorDrive5brakeEv
.ARM.exidx.text._ZN10MotorDrive5brakeEv:00000000 $d

UNDEFINED SYMBOLS
HAL_TIM_PWM_Start
__aeabi_unwind_cpp_pr0
__aeabi_f2d
__aeabi_ui2d
__aeabi_dmul
__aeabi_d2iz
