ARM GAS  /var/folders/5c/srt4fy4j1pd641bjfx75k5000000gn/T//ccMRDjtJ.s 			page 1


   1              		.cpu cortex-m4
   2              		.arch armv7e-m
   3              		.fpu fpv4-sp-d16
   4              		.eabi_attribute 27, 1
   5              		.eabi_attribute 28, 1
   6              		.eabi_attribute 20, 1
   7              		.eabi_attribute 21, 1
   8              		.eabi_attribute 23, 3
   9              		.eabi_attribute 24, 1
  10              		.eabi_attribute 25, 1
  11              		.eabi_attribute 26, 1
  12              		.eabi_attribute 30, 1
  13              		.eabi_attribute 34, 1
  14              		.eabi_attribute 18, 4
  15              		.file	"motor_drive.cpp"
  16              		.text
  17              	.Ltext0:
  18              		.cfi_sections	.debug_frame
  19              		.file 1 "src/unit/motor_drive.cpp"
  20              		.section	.text._ZN12PwmSingleOut4initEv,"axG",%progbits,_ZN12PwmSingleOut4initEv,comdat
  21              		.align	1
  22              		.weak	_ZN12PwmSingleOut4initEv
  23              		.syntax unified
  24              		.thumb
  25              		.thumb_func
  27              	_ZN12PwmSingleOut4initEv:
  28              		.fnstart
  29              	.LVL0:
  30              	.LFB245:
  31              		.file 2 "Lib/PWMSingle/PWMSingle.hpp"
   1:Lib/PWMSingle/PWMSingle.hpp **** #ifndef __PWMSINGLE__
   2:Lib/PWMSingle/PWMSingle.hpp **** #define __PWMSINGLE__
   3:Lib/PWMSingle/PWMSingle.hpp **** 
   4:Lib/PWMSingle/PWMSingle.hpp **** #include "MyMath.hpp"
   5:Lib/PWMSingle/PWMSingle.hpp **** #include "tim.h"
   6:Lib/PWMSingle/PWMSingle.hpp **** 
   7:Lib/PWMSingle/PWMSingle.hpp **** #ifdef __cplusplus
   8:Lib/PWMSingle/PWMSingle.hpp **** extern "C" {
   9:Lib/PWMSingle/PWMSingle.hpp **** 
  10:Lib/PWMSingle/PWMSingle.hpp **** class PwmSingleOut {
  11:Lib/PWMSingle/PWMSingle.hpp ****      public:
  12:Lib/PWMSingle/PWMSingle.hpp ****       PwmSingleOut(TIM_HandleTypeDef *htim, uint32_t channel)
  13:Lib/PWMSingle/PWMSingle.hpp ****           : _htim(htim), _channel(channel), _maxValue(_htim->Init.Period) {
  14:Lib/PWMSingle/PWMSingle.hpp ****       }
  15:Lib/PWMSingle/PWMSingle.hpp **** 
  16:Lib/PWMSingle/PWMSingle.hpp ****       void init() {
  32              		.loc 2 16 12 view -0
  33              		.cfi_startproc
  34              		@ args = 0, pretend = 0, frame = 0
  35              		@ frame_needed = 0, uses_anonymous_args = 0
  36              		.loc 2 16 12 is_stmt 0 view .LVU1
  37 0000 10B5     		push	{r4, lr}
  38              		.save {r4, lr}
  39              	.LCFI0:
  40              		.cfi_def_cfa_offset 8
  41              		.cfi_offset 4, -8
  42              		.cfi_offset 14, -4
ARM GAS  /var/folders/5c/srt4fy4j1pd641bjfx75k5000000gn/T//ccMRDjtJ.s 			page 2


  43 0002 0446     		mov	r4, r0
  17:Lib/PWMSingle/PWMSingle.hpp ****             HAL_TIM_PWM_Start(_htim, _channel);
  44              		.loc 2 17 13 is_stmt 1 view .LVU2
  45              		.loc 2 17 30 is_stmt 0 view .LVU3
  46 0004 4168     		ldr	r1, [r0, #4]
  47 0006 0068     		ldr	r0, [r0]
  48              	.LVL1:
  49              		.loc 2 17 30 view .LVU4
  50 0008 FFF7FEFF 		bl	HAL_TIM_PWM_Start
  51              	.LVL2:
  18:Lib/PWMSingle/PWMSingle.hpp ****             _maxValue = _htim->Init.Period;
  52              		.loc 2 18 13 is_stmt 1 view .LVU5
  53              		.loc 2 18 25 is_stmt 0 view .LVU6
  54 000c 2368     		ldr	r3, [r4]
  55              		.loc 2 18 37 view .LVU7
  56 000e DB68     		ldr	r3, [r3, #12]
  57              		.loc 2 18 23 view .LVU8
  58 0010 A360     		str	r3, [r4, #8]
  19:Lib/PWMSingle/PWMSingle.hpp ****       }
  59              		.loc 2 19 7 view .LVU9
  60 0012 10BD     		pop	{r4, pc}
  61              		.loc 2 19 7 view .LVU10
  62              		.cfi_endproc
  63              	.LFE245:
  64              		.fnend
  66              		.global	__aeabi_f2d
  67              		.global	__aeabi_ui2d
  68              		.global	__aeabi_dmul
  69              		.global	__aeabi_d2iz
  70              		.section	.text._ZN12PwmSingleOut5writeEf,"axG",%progbits,_ZN12PwmSingleOut5writeEf,comdat
  71              		.align	1
  72              		.weak	_ZN12PwmSingleOut5writeEf
  73              		.syntax unified
  74              		.thumb
  75              		.thumb_func
  77              	_ZN12PwmSingleOut5writeEf:
  78              		.fnstart
  79              	.LVL3:
  80              	.LFB246:
  20:Lib/PWMSingle/PWMSingle.hpp **** 
  21:Lib/PWMSingle/PWMSingle.hpp ****       void write(float duty) {
  81              		.loc 2 21 12 is_stmt 1 view -0
  82              		.cfi_startproc
  83              		@ args = 0, pretend = 0, frame = 0
  84              		@ frame_needed = 0, uses_anonymous_args = 0
  85              		.loc 2 21 12 is_stmt 0 view .LVU12
  86 0000 D0B5     		push	{r4, r6, r7, lr}
  87              	.LCFI1:
  88              		.cfi_def_cfa_offset 16
  89              		.cfi_offset 4, -16
  90              		.cfi_offset 6, -12
  91              		.cfi_offset 7, -8
  92              		.cfi_offset 14, -4
  93 0002 0446     		mov	r4, r0
  22:Lib/PWMSingle/PWMSingle.hpp ****             duty = (int)(Constrain(duty, 0.0, 1.0) * _maxValue);
  94              		.loc 2 22 13 is_stmt 1 view .LVU13
  95              		.loc 2 22 26 is_stmt 0 view .LVU14
ARM GAS  /var/folders/5c/srt4fy4j1pd641bjfx75k5000000gn/T//ccMRDjtJ.s 			page 3


  96 0004 B5EEC00A 		vcmpe.f32	s0, #0
  97 0008 F1EE10FA 		vmrs	APSR_nzcv, FPSCR
  98 000c 10D4     		bmi	.L9
  99              		.loc 2 22 26 discriminator 2 view .LVU15
 100 000e F7EE007A 		vmov.f32	s15, #1.0e+0
 101 0012 B4EEE70A 		vcmpe.f32	s0, s15
 102 0016 F1EE10FA 		vmrs	APSR_nzcv, FPSCR
 103 001a 02DD     		ble	.L12
 104              		.loc 2 22 26 view .LVU16
 105 001c 0026     		movs	r6, #0
 106 001e 1D4F     		ldr	r7, .L15
 107 0020 08E0     		b	.L4
 108              	.L12:
 109              		.loc 2 22 26 discriminator 5 view .LVU17
 110 0022 10EE100A 		vmov	r0, s0
 111              	.LVL4:
 112              		.loc 2 22 26 discriminator 5 view .LVU18
 113 0026 FFF7FEFF 		bl	__aeabi_f2d
 114              	.LVL5:
 115              		.loc 2 22 26 discriminator 5 view .LVU19
 116 002a 0646     		mov	r6, r0
 117 002c 0F46     		mov	r7, r1
 118 002e 01E0     		b	.L4
 119              	.LVL6:
 120              	.L9:
 121              		.loc 2 22 26 view .LVU20
 122 0030 0026     		movs	r6, #0
 123 0032 0027     		movs	r7, #0
 124              	.LVL7:
 125              	.L4:
 126              		.loc 2 22 52 discriminator 8 view .LVU21
 127 0034 A068     		ldr	r0, [r4, #8]
 128 0036 FFF7FEFF 		bl	__aeabi_ui2d
 129              	.LVL8:
 130 003a 3246     		mov	r2, r6
 131 003c 3B46     		mov	r3, r7
 132 003e FFF7FEFF 		bl	__aeabi_dmul
 133              	.LVL9:
 134              		.loc 2 22 20 discriminator 8 view .LVU22
 135 0042 FFF7FEFF 		bl	__aeabi_d2iz
 136              	.LVL10:
 137 0046 07EE900A 		vmov	s15, r0	@ int
 138              		.loc 2 22 18 discriminator 8 view .LVU23
 139 004a F8EEE77A 		vcvt.f32.s32	s15, s15
 140              	.LVL11:
  23:Lib/PWMSingle/PWMSingle.hpp ****             __HAL_TIM_SET_COMPARE(_htim, _channel, duty);
 141              		.loc 2 23 13 is_stmt 1 discriminator 8 view .LVU24
 142 004e 6368     		ldr	r3, [r4, #4]
 143 0050 33B9     		cbnz	r3, .L5
 144              		.loc 2 23 13 is_stmt 0 discriminator 1 view .LVU25
 145 0052 2368     		ldr	r3, [r4]
 146 0054 1B68     		ldr	r3, [r3]
 147 0056 FCEEE77A 		vcvt.u32.f32	s15, s15
 148              	.LVL12:
 149              		.loc 2 23 13 discriminator 1 view .LVU26
 150 005a C3ED0D7A 		vstr.32	s15, [r3, #52]	@ int
 151              	.L3:
ARM GAS  /var/folders/5c/srt4fy4j1pd641bjfx75k5000000gn/T//ccMRDjtJ.s 			page 4


  24:Lib/PWMSingle/PWMSingle.hpp ****       }
 152              		.loc 2 24 7 view .LVU27
 153 005e D0BD     		pop	{r4, r6, r7, pc}
 154              	.LVL13:
 155              	.L5:
  23:Lib/PWMSingle/PWMSingle.hpp ****             __HAL_TIM_SET_COMPARE(_htim, _channel, duty);
 156              		.loc 2 23 13 discriminator 2 view .LVU28
 157 0060 042B     		cmp	r3, #4
 158 0062 08D0     		beq	.L13
  23:Lib/PWMSingle/PWMSingle.hpp ****             __HAL_TIM_SET_COMPARE(_htim, _channel, duty);
 159              		.loc 2 23 13 discriminator 4 view .LVU29
 160 0064 082B     		cmp	r3, #8
 161 0066 0DD0     		beq	.L14
  23:Lib/PWMSingle/PWMSingle.hpp ****             __HAL_TIM_SET_COMPARE(_htim, _channel, duty);
 162              		.loc 2 23 13 discriminator 6 view .LVU30
 163 0068 2368     		ldr	r3, [r4]
 164 006a 1B68     		ldr	r3, [r3]
 165 006c FCEEE77A 		vcvt.u32.f32	s15, s15
 166              	.LVL14:
  23:Lib/PWMSingle/PWMSingle.hpp ****             __HAL_TIM_SET_COMPARE(_htim, _channel, duty);
 167              		.loc 2 23 13 discriminator 6 view .LVU31
 168 0070 C3ED107A 		vstr.32	s15, [r3, #64]	@ int
 169              		.loc 2 24 7 discriminator 6 view .LVU32
 170 0074 F3E7     		b	.L3
 171              	.LVL15:
 172              	.L13:
  23:Lib/PWMSingle/PWMSingle.hpp ****             __HAL_TIM_SET_COMPARE(_htim, _channel, duty);
 173              		.loc 2 23 13 discriminator 3 view .LVU33
 174 0076 2368     		ldr	r3, [r4]
 175 0078 1B68     		ldr	r3, [r3]
 176 007a FCEEE77A 		vcvt.u32.f32	s15, s15
 177              	.LVL16:
  23:Lib/PWMSingle/PWMSingle.hpp ****             __HAL_TIM_SET_COMPARE(_htim, _channel, duty);
 178              		.loc 2 23 13 discriminator 3 view .LVU34
 179 007e C3ED0E7A 		vstr.32	s15, [r3, #56]	@ int
 180 0082 ECE7     		b	.L3
 181              	.LVL17:
 182              	.L14:
  23:Lib/PWMSingle/PWMSingle.hpp ****             __HAL_TIM_SET_COMPARE(_htim, _channel, duty);
 183              		.loc 2 23 13 discriminator 5 view .LVU35
 184 0084 2368     		ldr	r3, [r4]
 185 0086 1B68     		ldr	r3, [r3]
 186 0088 FCEEE77A 		vcvt.u32.f32	s15, s15
 187              	.LVL18:
  23:Lib/PWMSingle/PWMSingle.hpp ****             __HAL_TIM_SET_COMPARE(_htim, _channel, duty);
 188              		.loc 2 23 13 discriminator 5 view .LVU36
 189 008c C3ED0F7A 		vstr.32	s15, [r3, #60]	@ int
 190 0090 E5E7     		b	.L3
 191              	.L16:
 192 0092 00BF     		.align	2
 193              	.L15:
 194 0094 0000F03F 		.word	1072693248
 195              		.cfi_endproc
 196              	.LFE246:
 197              		.cantunwind
 198              		.fnend
 200              		.section	.text._ZN10MotorDriveC2EP12PwmSingleOutS1_S1_S1_PtS2_,"ax",%progbits
ARM GAS  /var/folders/5c/srt4fy4j1pd641bjfx75k5000000gn/T//ccMRDjtJ.s 			page 5


 201              		.align	1
 202              		.global	_ZN10MotorDriveC2EP12PwmSingleOutS1_S1_S1_PtS2_
 203              		.syntax unified
 204              		.thumb
 205              		.thumb_func
 207              	_ZN10MotorDriveC2EP12PwmSingleOutS1_S1_S1_PtS2_:
 208              		.fnstart
 209              	.LVL19:
 210              	.LFB249:
   1:src/unit/motor_drive.cpp **** #include "motor_drive.hpp"
   2:src/unit/motor_drive.cpp **** 
   3:src/unit/motor_drive.cpp **** MotorDrive::MotorDrive(PwmSingleOut *motor1a, PwmSingleOut *motor1b, PwmSingleOut *motor2a, PwmSing
 211              		.loc 1 3 1 is_stmt 1 view -0
 212              		.cfi_startproc
 213              		@ args = 12, pretend = 0, frame = 0
 214              		@ frame_needed = 0, uses_anonymous_args = 0
 215              		.loc 1 3 1 is_stmt 0 view .LVU38
 216 0000 10B5     		push	{r4, lr}
 217              		.save {r4, lr}
 218              	.LCFI2:
 219              		.cfi_def_cfa_offset 8
 220              		.cfi_offset 4, -8
 221              		.cfi_offset 14, -4
 222 0002 0446     		mov	r4, r0
 223              	.LBB2:
   4:src/unit/motor_drive.cpp ****     : motor1a_(motor1a), motor1b_(motor1b), motor2a_(motor2a), motor2b_(motor2b) {
 224              		.loc 1 4 7 view .LVU39
 225 0004 8164     		str	r1, [r0, #72]
 226              		.loc 1 4 26 view .LVU40
 227 0006 C264     		str	r2, [r0, #76]
 228              		.loc 1 4 45 view .LVU41
 229 0008 0365     		str	r3, [r0, #80]
 230              		.loc 1 4 64 view .LVU42
 231 000a 029B     		ldr	r3, [sp, #8]
 232              	.LVL20:
 233              		.loc 1 4 64 view .LVU43
 234 000c 4365     		str	r3, [r0, #84]
 235              		.loc 1 4 80 view .LVU44
 236 000e 6030     		adds	r0, r0, #96
 237              	.LVL21:
 238              		.loc 1 4 80 view .LVU45
 239 0010 FFF7FEFF 		bl	_ZN5TimerC1Ev
 240              	.LVL22:
   5:src/unit/motor_drive.cpp ****       this->encoder_val_left_ = encoder_val_left;
 241              		.loc 1 5 7 is_stmt 1 view .LVU46
 242              		.loc 1 5 31 is_stmt 0 view .LVU47
 243 0014 039B     		ldr	r3, [sp, #12]
 244 0016 A365     		str	r3, [r4, #88]
   6:src/unit/motor_drive.cpp ****       this->encoder_val_right_ = encoder_val_right;
 245              		.loc 1 6 7 is_stmt 1 view .LVU48
 246              		.loc 1 6 32 is_stmt 0 view .LVU49
 247 0018 049B     		ldr	r3, [sp, #16]
 248 001a E365     		str	r3, [r4, #92]
   7:src/unit/motor_drive.cpp ****       this->kp = 5;
 249              		.loc 1 7 7 is_stmt 1 view .LVU50
 250              		.loc 1 7 16 is_stmt 0 view .LVU51
 251 001c 0022     		movs	r2, #0
ARM GAS  /var/folders/5c/srt4fy4j1pd641bjfx75k5000000gn/T//ccMRDjtJ.s 			page 6


 252 001e 034B     		ldr	r3, .L19
 253 0020 C4E92823 		strd	r2, [r4, #160]
   8:src/unit/motor_drive.cpp ****       this->ki = 5;
 254              		.loc 1 8 7 is_stmt 1 view .LVU52
 255              		.loc 1 8 16 is_stmt 0 view .LVU53
 256 0024 C4E92A23 		strd	r2, [r4, #168]
 257              	.LBE2:
   9:src/unit/motor_drive.cpp **** }
 258              		.loc 1 9 1 view .LVU54
 259 0028 2046     		mov	r0, r4
 260 002a 10BD     		pop	{r4, pc}
 261              	.LVL23:
 262              	.L20:
 263              		.loc 1 9 1 view .LVU55
 264              		.align	2
 265              	.L19:
 266 002c 00001440 		.word	1075052544
 267              		.cfi_endproc
 268              	.LFE249:
 269              		.fnend
 271              		.global	_ZN10MotorDriveC1EP12PwmSingleOutS1_S1_S1_PtS2_
 272              		.thumb_set _ZN10MotorDriveC1EP12PwmSingleOutS1_S1_S1_PtS2_,_ZN10MotorDriveC2EP12PwmSingleOutS1_S1_
 273              		.section	.text._ZN10MotorDrive4InitEv,"ax",%progbits
 274              		.align	1
 275              		.global	_ZN10MotorDrive4InitEv
 276              		.syntax unified
 277              		.thumb
 278              		.thumb_func
 280              	_ZN10MotorDrive4InitEv:
 281              		.fnstart
 282              	.LVL24:
 283              	.LFB251:
  10:src/unit/motor_drive.cpp **** 
  11:src/unit/motor_drive.cpp **** void MotorDrive::Init() {
 284              		.loc 1 11 25 is_stmt 1 view -0
 285              		.cfi_startproc
 286              		@ args = 0, pretend = 0, frame = 0
 287              		@ frame_needed = 0, uses_anonymous_args = 0
 288              		.loc 1 11 25 is_stmt 0 view .LVU57
 289 0000 10B5     		push	{r4, lr}
 290              		.save {r4, lr}
 291              	.LCFI3:
 292              		.cfi_def_cfa_offset 8
 293              		.cfi_offset 4, -8
 294              		.cfi_offset 14, -4
 295 0002 0446     		mov	r4, r0
  12:src/unit/motor_drive.cpp ****       motor1a_->init();
 296              		.loc 1 12 7 is_stmt 1 view .LVU58
 297              		.loc 1 12 21 is_stmt 0 view .LVU59
 298 0004 806C     		ldr	r0, [r0, #72]
 299              	.LVL25:
 300              		.loc 1 12 21 view .LVU60
 301 0006 FFF7FEFF 		bl	_ZN12PwmSingleOut4initEv
 302              	.LVL26:
  13:src/unit/motor_drive.cpp ****       motor1b_->init();
 303              		.loc 1 13 7 is_stmt 1 view .LVU61
 304              		.loc 1 13 21 is_stmt 0 view .LVU62
ARM GAS  /var/folders/5c/srt4fy4j1pd641bjfx75k5000000gn/T//ccMRDjtJ.s 			page 7


 305 000a E06C     		ldr	r0, [r4, #76]
 306 000c FFF7FEFF 		bl	_ZN12PwmSingleOut4initEv
 307              	.LVL27:
  14:src/unit/motor_drive.cpp ****       motor2a_->init();
 308              		.loc 1 14 7 is_stmt 1 view .LVU63
 309              		.loc 1 14 21 is_stmt 0 view .LVU64
 310 0010 206D     		ldr	r0, [r4, #80]
 311 0012 FFF7FEFF 		bl	_ZN12PwmSingleOut4initEv
 312              	.LVL28:
  15:src/unit/motor_drive.cpp ****       motor2b_->init();
 313              		.loc 1 15 7 is_stmt 1 view .LVU65
 314              		.loc 1 15 21 is_stmt 0 view .LVU66
 315 0016 606D     		ldr	r0, [r4, #84]
 316 0018 FFF7FEFF 		bl	_ZN12PwmSingleOut4initEv
 317              	.LVL29:
  16:src/unit/motor_drive.cpp **** }
 318              		.loc 1 16 1 view .LVU67
 319 001c 10BD     		pop	{r4, pc}
 320              		.loc 1 16 1 view .LVU68
 321              		.cfi_endproc
 322              	.LFE251:
 323              		.fnend
 325              		.global	__aeabi_dcmpgt
 326              		.global	__aeabi_ddiv
 327              		.global	__aeabi_d2f
 328              		.section	.text._ZN10MotorDrive3RunEdd,"ax",%progbits
 329              		.align	1
 330              		.global	_ZN10MotorDrive3RunEdd
 331              		.syntax unified
 332              		.thumb
 333              		.thumb_func
 335              	_ZN10MotorDrive3RunEdd:
 336              		.fnstart
 337              	.LVL30:
 338              	.LFB254:
  17:src/unit/motor_drive.cpp **** 
  18:src/unit/motor_drive.cpp **** void MotorDrive::EncoderCompute() {
  19:src/unit/motor_drive.cpp ****       if (*encoder_val_left_ != 0 && *encoder_val_right_ != 0) {
  20:src/unit/motor_drive.cpp ****             // 最大値を求める
  21:src/unit/motor_drive.cpp ****             if (*encoder_val_left_ > encoder.max_val_left) encoder.max_val_left = *encoder_val_left
  22:src/unit/motor_drive.cpp ****             if (*encoder_val_right_ > encoder.max_val_right) encoder.max_val_right = *encoder_val_r
  23:src/unit/motor_drive.cpp ****             // radianに変換
  24:src/unit/motor_drive.cpp ****             encoder.rad_left = *encoder_val_left_ * (2 * PI / encoder.max_val_left);
  25:src/unit/motor_drive.cpp ****             encoder.rad_right = *encoder_val_right_ * (2 * PI / encoder.max_val_right);
  26:src/unit/motor_drive.cpp ****             SpeedControl();
  27:src/unit/motor_drive.cpp ****       }
  28:src/unit/motor_drive.cpp **** }
  29:src/unit/motor_drive.cpp **** 
  30:src/unit/motor_drive.cpp **** void MotorDrive::SpeedControl() {
  31:src/unit/motor_drive.cpp ****       if (encoder.pre_rad_left != encoder.rad_left || encoder.pre_rad_right != encoder.rad_right) {
  32:src/unit/motor_drive.cpp ****             dt = periodTimer.read_us() * 0.000001f;                                                
  33:src/unit/motor_drive.cpp ****             periodTimer.reset();
  34:src/unit/motor_drive.cpp **** 
  35:src/unit/motor_drive.cpp ****             // 角度の差を求める
  36:src/unit/motor_drive.cpp ****             encoder.dif_rad_left = encoder.rad_left - encoder.pre_rad_left;
  37:src/unit/motor_drive.cpp ****             encoder.dif_rad_right = encoder.rad_right - encoder.pre_rad_right;
  38:src/unit/motor_drive.cpp ****             encoder.pre_rad_left = encoder.rad_left;
ARM GAS  /var/folders/5c/srt4fy4j1pd641bjfx75k5000000gn/T//ccMRDjtJ.s 			page 8


  39:src/unit/motor_drive.cpp ****             encoder.pre_rad_right = encoder.rad_right;
  40:src/unit/motor_drive.cpp **** 
  41:src/unit/motor_drive.cpp ****             // PI以上変わった時に修正
  42:src/unit/motor_drive.cpp ****             if (abs(encoder.dif_rad_left) > PI) encoder.dif_rad_left -= 2 * PI * (abs(encoder.dif_r
  43:src/unit/motor_drive.cpp ****             if (abs(encoder.dif_rad_right) > PI) encoder.dif_rad_right -= 2 * PI * (abs(encoder.dif
  44:src/unit/motor_drive.cpp **** 
  45:src/unit/motor_drive.cpp ****             // rad/sに変換
  46:src/unit/motor_drive.cpp ****             encoder.speed_left = encoder.dif_rad_left / dt * -1;
  47:src/unit/motor_drive.cpp ****             encoder.speed_right = encoder.dif_rad_right / dt;
  48:src/unit/motor_drive.cpp **** 
  49:src/unit/motor_drive.cpp ****             // PIの計算
  50:src/unit/motor_drive.cpp ****             // 比例成分
  51:src/unit/motor_drive.cpp ****             p_left_ = encoder.speed_left - speed_left_;
  52:src/unit/motor_drive.cpp ****             p_right_ = encoder.speed_right - speed_right_;
  53:src/unit/motor_drive.cpp ****             // 積分成分
  54:src/unit/motor_drive.cpp ****             i_left_ += p_left_ * dt;
  55:src/unit/motor_drive.cpp ****             i_right_ += p_right_ * dt;
  56:src/unit/motor_drive.cpp ****             // 積分値の範囲制限
  57:src/unit/motor_drive.cpp ****             if (abs(i_left_ * ki) > 300) i_left_ = 300 / ki * (abs(i_left_) / i_left_);
  58:src/unit/motor_drive.cpp ****             if (abs(i_right_ * ki) > 300) i_right_ = 300 / ki * (abs(i_right_) / i_right_);
  59:src/unit/motor_drive.cpp ****             // speedが0に指定されたらi成分を減らしていく
  60:src/unit/motor_drive.cpp ****             if (speed_left_ == 0) i_left_ *= 0.5;
  61:src/unit/motor_drive.cpp ****             if (speed_right_ == 0) i_right_ *= 0.5;
  62:src/unit/motor_drive.cpp ****             // 合算
  63:src/unit/motor_drive.cpp ****             power_left_ = 0 - kp * p_left_ - ki * i_left_;
  64:src/unit/motor_drive.cpp ****             power_right_ = 0 - kp * p_right_ - ki * i_right_;
  65:src/unit/motor_drive.cpp **** 
  66:src/unit/motor_drive.cpp ****             // スピードが正の値であればパワーも正の値・これがなかったら
  67:src/unit/motor_drive.cpp ****             if (speed_left_ > 0 && power_left_ < 1) power_left_ = 1;
  68:src/unit/motor_drive.cpp ****             if (speed_right_ > 0 && power_right_ < 1) power_right_ = 1;
  69:src/unit/motor_drive.cpp ****             if (speed_left_ < 0 && power_left_ > -1) power_left_ = -1;
  70:src/unit/motor_drive.cpp ****             if (speed_right_ < 0 && power_right_ > -1) power_right_ = -1;
  71:src/unit/motor_drive.cpp **** 
  72:src/unit/motor_drive.cpp ****             Run(power_left_, power_right_);
  73:src/unit/motor_drive.cpp ****       }
  74:src/unit/motor_drive.cpp **** }
  75:src/unit/motor_drive.cpp **** 
  76:src/unit/motor_drive.cpp **** void MotorDrive::Run(double left, double right) {
 339              		.loc 1 76 49 is_stmt 1 view -0
 340              		.cfi_startproc
 341              		@ args = 0, pretend = 0, frame = 0
 342              		@ frame_needed = 0, uses_anonymous_args = 0
 343              		.loc 1 76 49 is_stmt 0 view .LVU70
 344 0000 2DE9F047 		push	{r4, r5, r6, r7, r8, r9, r10, lr}
 345              		.save {r4, r5, r6, r7, r8, r9, r10, lr}
 346              	.LCFI4:
 347              		.cfi_def_cfa_offset 32
 348              		.cfi_offset 4, -32
 349              		.cfi_offset 5, -28
 350              		.cfi_offset 6, -24
 351              		.cfi_offset 7, -20
 352              		.cfi_offset 8, -16
 353              		.cfi_offset 9, -12
 354              		.cfi_offset 10, -8
 355              		.cfi_offset 14, -4
 356 0004 8246     		mov	r10, r0
 357 0006 57EC106B 		vmov	r6, r7, d0
ARM GAS  /var/folders/5c/srt4fy4j1pd641bjfx75k5000000gn/T//ccMRDjtJ.s 			page 9


 358 000a 55EC114B 		vmov	r4, r5, d1
  77:src/unit/motor_drive.cpp ****       output_left = left;
 359              		.loc 1 77 7 is_stmt 1 view .LVU71
 360              		.loc 1 77 19 is_stmt 0 view .LVU72
 361 000e 80ED2C0B 		vstr.64	d0, [r0, #176]
  78:src/unit/motor_drive.cpp ****       output_right = right;
 362              		.loc 1 78 7 is_stmt 1 view .LVU73
 363              		.loc 1 78 20 is_stmt 0 view .LVU74
 364 0012 80ED2E1B 		vstr.64	d1, [r0, #184]
  79:src/unit/motor_drive.cpp **** 
  80:src/unit/motor_drive.cpp ****       // 範囲保証
  81:src/unit/motor_drive.cpp ****       if (abs(output_left) > MAX_POWER) output_left = MAX_POWER * (abs(output_left) / output_left);
 365              		.loc 1 81 7 is_stmt 1 view .LVU75
 366              		.loc 1 81 11 is_stmt 0 view .LVU76
 367 0016 0022     		movs	r2, #0
 368 0018 0023     		movs	r3, #0
 369 001a 3046     		mov	r0, r6
 370              	.LVL31:
 371              		.loc 1 81 11 view .LVU77
 372 001c 3946     		mov	r1, r7
 373 001e FFF7FEFF 		bl	__aeabi_dcmpgt
 374              	.LVL32:
 375              		.loc 1 81 11 view .LVU78
 376 0022 0028     		cmp	r0, #0
 377 0024 7BD0     		beq	.L45
 378 0026 B046     		mov	r8, r6
 379 0028 B946     		mov	r9, r7
 380              	.L24:
 381              		.loc 1 81 7 discriminator 4 view .LVU79
 382 002a 0022     		movs	r2, #0
 383 002c 5C4B     		ldr	r3, .L47+16
 384 002e 4046     		mov	r0, r8
 385 0030 4946     		mov	r1, r9
 386 0032 FFF7FEFF 		bl	__aeabi_dcmpgt
 387              	.LVL33:
 388 0036 58B1     		cbz	r0, .L25
 389              		.loc 1 81 41 is_stmt 1 discriminator 9 view .LVU80
 390              		.loc 1 81 85 is_stmt 0 discriminator 9 view .LVU81
 391 0038 3246     		mov	r2, r6
 392 003a 3B46     		mov	r3, r7
 393 003c 4046     		mov	r0, r8
 394 003e 4946     		mov	r1, r9
 395 0040 FFF7FEFF 		bl	__aeabi_ddiv
 396              	.LVL34:
 397              		.loc 1 81 65 discriminator 9 view .LVU82
 398 0044 0022     		movs	r2, #0
 399 0046 564B     		ldr	r3, .L47+16
 400 0048 FFF7FEFF 		bl	__aeabi_dmul
 401              	.LVL35:
 402              		.loc 1 81 53 discriminator 9 view .LVU83
 403 004c CAE92C01 		strd	r0, [r10, #176]
 404              	.L25:
  82:src/unit/motor_drive.cpp ****       if (abs(output_right) > MAX_POWER) output_right = MAX_POWER * (abs(output_right) / output_rig
 405              		.loc 1 82 7 is_stmt 1 view .LVU84
 406              		.loc 1 82 11 is_stmt 0 view .LVU85
 407 0050 0022     		movs	r2, #0
 408 0052 0023     		movs	r3, #0
ARM GAS  /var/folders/5c/srt4fy4j1pd641bjfx75k5000000gn/T//ccMRDjtJ.s 			page 10


 409 0054 2046     		mov	r0, r4
 410 0056 2946     		mov	r1, r5
 411 0058 FFF7FEFF 		bl	__aeabi_dcmpgt
 412              	.LVL36:
 413 005c 0028     		cmp	r0, #0
 414 005e 62D0     		beq	.L46
 415 0060 2646     		mov	r6, r4
 416              	.LVL37:
 417              		.loc 1 82 11 view .LVU86
 418 0062 2F46     		mov	r7, r5
 419              	.L27:
 420              		.loc 1 82 7 discriminator 4 view .LVU87
 421 0064 0022     		movs	r2, #0
 422 0066 4E4B     		ldr	r3, .L47+16
 423 0068 3046     		mov	r0, r6
 424 006a 3946     		mov	r1, r7
 425 006c FFF7FEFF 		bl	__aeabi_dcmpgt
 426              	.LVL38:
 427 0070 58B1     		cbz	r0, .L28
 428              		.loc 1 82 42 is_stmt 1 discriminator 9 view .LVU88
 429              		.loc 1 82 88 is_stmt 0 discriminator 9 view .LVU89
 430 0072 2246     		mov	r2, r4
 431 0074 2B46     		mov	r3, r5
 432 0076 3046     		mov	r0, r6
 433 0078 3946     		mov	r1, r7
 434 007a FFF7FEFF 		bl	__aeabi_ddiv
 435              	.LVL39:
 436              		.loc 1 82 67 discriminator 9 view .LVU90
 437 007e 0022     		movs	r2, #0
 438 0080 474B     		ldr	r3, .L47+16
 439 0082 FFF7FEFF 		bl	__aeabi_dmul
 440              	.LVL40:
 441              		.loc 1 82 55 discriminator 9 view .LVU91
 442 0086 CAE92E01 		strd	r0, [r10, #184]
 443              	.L28:
  83:src/unit/motor_drive.cpp **** 
  84:src/unit/motor_drive.cpp ****       // 出力
  85:src/unit/motor_drive.cpp ****       Init();  // なぜか毎回PWMをリセットしないと動かない
 444              		.loc 1 85 7 is_stmt 1 view .LVU92
 445              		.loc 1 85 11 is_stmt 0 view .LVU93
 446 008a 5046     		mov	r0, r10
 447 008c FFF7FEFF 		bl	_ZN10MotorDrive4InitEv
 448              	.LVL41:
  86:src/unit/motor_drive.cpp ****       if (speed_left_ != 0) {
 449              		.loc 1 86 7 is_stmt 1 view .LVU94
 450              		.loc 1 86 11 is_stmt 0 view .LVU95
 451 0090 BAF96430 		ldrsh	r3, [r10, #100]
 452              		.loc 1 86 7 view .LVU96
 453 0094 FBB1     		cbz	r3, .L30
  87:src/unit/motor_drive.cpp ****             if (output_left > 0) {
 454              		.loc 1 87 13 is_stmt 1 view .LVU97
 455              		.loc 1 87 17 is_stmt 0 view .LVU98
 456 0096 DAE92C45 		ldrd	r4, [r10, #176]
 457              	.LVL42:
 458              		.loc 1 87 13 view .LVU99
 459 009a 0022     		movs	r2, #0
 460 009c 0023     		movs	r3, #0
ARM GAS  /var/folders/5c/srt4fy4j1pd641bjfx75k5000000gn/T//ccMRDjtJ.s 			page 11


 461 009e 2046     		mov	r0, r4
 462 00a0 2946     		mov	r1, r5
 463 00a2 FFF7FEFF 		bl	__aeabi_dcmpgt
 464              	.LVL43:
 465 00a6 0028     		cmp	r0, #0
 466 00a8 41D0     		beq	.L42
  88:src/unit/motor_drive.cpp ****                   motor1a_->write(output_left * 0.001f);
 467              		.loc 1 88 19 is_stmt 1 view .LVU100
 468 00aa DAF84860 		ldr	r6, [r10, #72]
 469              		.loc 1 88 47 is_stmt 0 view .LVU101
 470 00ae 38A3     		adr	r3, .L47
 471 00b0 D3E90023 		ldrd	r2, [r3]
 472 00b4 2046     		mov	r0, r4
 473 00b6 2946     		mov	r1, r5
 474 00b8 FFF7FEFF 		bl	__aeabi_dmul
 475              	.LVL44:
 476              		.loc 1 88 34 view .LVU102
 477 00bc FFF7FEFF 		bl	__aeabi_d2f
 478              	.LVL45:
 479 00c0 00EE100A 		vmov	s0, r0
 480 00c4 3046     		mov	r0, r6
 481 00c6 FFF7FEFF 		bl	_ZN12PwmSingleOut5writeEf
 482              	.LVL46:
  89:src/unit/motor_drive.cpp ****                   motor1b_->write(0);
 483              		.loc 1 89 19 is_stmt 1 view .LVU103
 484              		.loc 1 89 34 is_stmt 0 view .LVU104
 485 00ca 9FED360A 		vldr.32	s0, .L47+20
 486 00ce DAF84C00 		ldr	r0, [r10, #76]
 487 00d2 FFF7FEFF 		bl	_ZN12PwmSingleOut5writeEf
 488              	.LVL47:
 489              	.L30:
  90:src/unit/motor_drive.cpp ****             } else {
  91:src/unit/motor_drive.cpp ****                   motor1a_->write(0);
  92:src/unit/motor_drive.cpp ****                   motor1b_->write(output_left * -0.001f);
  93:src/unit/motor_drive.cpp ****             }
  94:src/unit/motor_drive.cpp ****       }
  95:src/unit/motor_drive.cpp ****       if (speed_right_ != 0) {
 490              		.loc 1 95 7 is_stmt 1 view .LVU105
 491              		.loc 1 95 11 is_stmt 0 view .LVU106
 492 00d6 BAF96630 		ldrsh	r3, [r10, #102]
 493              		.loc 1 95 7 view .LVU107
 494 00da F3B1     		cbz	r3, .L23
  96:src/unit/motor_drive.cpp ****             if (output_right > 0) {
 495              		.loc 1 96 13 is_stmt 1 view .LVU108
 496              		.loc 1 96 17 is_stmt 0 view .LVU109
 497 00dc DAE92E45 		ldrd	r4, [r10, #184]
 498              		.loc 1 96 13 view .LVU110
 499 00e0 0022     		movs	r2, #0
 500 00e2 0023     		movs	r3, #0
 501 00e4 2046     		mov	r0, r4
 502 00e6 2946     		mov	r1, r5
 503 00e8 FFF7FEFF 		bl	__aeabi_dcmpgt
 504              	.LVL48:
 505 00ec B0B3     		cbz	r0, .L43
  97:src/unit/motor_drive.cpp ****                   motor2a_->write(output_right * 0.001f);
 506              		.loc 1 97 19 is_stmt 1 view .LVU111
 507 00ee DAF85060 		ldr	r6, [r10, #80]
ARM GAS  /var/folders/5c/srt4fy4j1pd641bjfx75k5000000gn/T//ccMRDjtJ.s 			page 12


 508              		.loc 1 97 48 is_stmt 0 view .LVU112
 509 00f2 27A3     		adr	r3, .L47
 510 00f4 D3E90023 		ldrd	r2, [r3]
 511 00f8 2046     		mov	r0, r4
 512 00fa 2946     		mov	r1, r5
 513 00fc FFF7FEFF 		bl	__aeabi_dmul
 514              	.LVL49:
 515              		.loc 1 97 34 view .LVU113
 516 0100 FFF7FEFF 		bl	__aeabi_d2f
 517              	.LVL50:
 518 0104 00EE100A 		vmov	s0, r0
 519 0108 3046     		mov	r0, r6
 520 010a FFF7FEFF 		bl	_ZN12PwmSingleOut5writeEf
 521              	.LVL51:
  98:src/unit/motor_drive.cpp ****                   motor2b_->write(0);
 522              		.loc 1 98 19 is_stmt 1 view .LVU114
 523              		.loc 1 98 34 is_stmt 0 view .LVU115
 524 010e 9FED250A 		vldr.32	s0, .L47+20
 525 0112 DAF85400 		ldr	r0, [r10, #84]
 526 0116 FFF7FEFF 		bl	_ZN12PwmSingleOut5writeEf
 527              	.LVL52:
 528              	.L23:
  99:src/unit/motor_drive.cpp ****             } else {
 100:src/unit/motor_drive.cpp ****                   motor2a_->write(0);
 101:src/unit/motor_drive.cpp ****                   motor2b_->write(output_right * -0.001f);
 102:src/unit/motor_drive.cpp ****             }
 103:src/unit/motor_drive.cpp ****       }
 104:src/unit/motor_drive.cpp **** }
 529              		.loc 1 104 1 view .LVU116
 530 011a BDE8F087 		pop	{r4, r5, r6, r7, r8, r9, r10, pc}
 531              	.LVL53:
 532              	.L45:
  81:src/unit/motor_drive.cpp ****       if (abs(output_right) > MAX_POWER) output_right = MAX_POWER * (abs(output_right) / output_rig
 533              		.loc 1 81 11 discriminator 2 view .LVU117
 534 011e B046     		mov	r8, r6
 535 0120 07F10049 		add	r9, r7, #-2147483648
 536 0124 81E7     		b	.L24
 537              	.L46:
  82:src/unit/motor_drive.cpp **** 
 538              		.loc 1 82 11 discriminator 2 view .LVU118
 539 0126 2646     		mov	r6, r4
 540              	.LVL54:
  82:src/unit/motor_drive.cpp **** 
 541              		.loc 1 82 11 discriminator 2 view .LVU119
 542 0128 05F10047 		add	r7, r5, #-2147483648
 543 012c 9AE7     		b	.L27
 544              	.LVL55:
 545              	.L42:
  91:src/unit/motor_drive.cpp ****                   motor1b_->write(output_left * -0.001f);
 546              		.loc 1 91 19 is_stmt 1 view .LVU120
  91:src/unit/motor_drive.cpp ****                   motor1b_->write(output_left * -0.001f);
 547              		.loc 1 91 34 is_stmt 0 view .LVU121
 548 012e 9FED1D0A 		vldr.32	s0, .L47+20
 549 0132 DAF84800 		ldr	r0, [r10, #72]
 550 0136 FFF7FEFF 		bl	_ZN12PwmSingleOut5writeEf
 551              	.LVL56:
  92:src/unit/motor_drive.cpp ****             }
ARM GAS  /var/folders/5c/srt4fy4j1pd641bjfx75k5000000gn/T//ccMRDjtJ.s 			page 13


 552              		.loc 1 92 19 is_stmt 1 view .LVU122
 553 013a DAF84C40 		ldr	r4, [r10, #76]
  92:src/unit/motor_drive.cpp ****             }
 554              		.loc 1 92 47 is_stmt 0 view .LVU123
 555 013e 16A3     		adr	r3, .L47+8
 556 0140 D3E90023 		ldrd	r2, [r3]
 557 0144 DAE92C01 		ldrd	r0, [r10, #176]
 558 0148 FFF7FEFF 		bl	__aeabi_dmul
 559              	.LVL57:
  92:src/unit/motor_drive.cpp ****             }
 560              		.loc 1 92 34 view .LVU124
 561 014c FFF7FEFF 		bl	__aeabi_d2f
 562              	.LVL58:
 563 0150 00EE100A 		vmov	s0, r0
 564 0154 2046     		mov	r0, r4
 565 0156 FFF7FEFF 		bl	_ZN12PwmSingleOut5writeEf
 566              	.LVL59:
 567 015a BCE7     		b	.L30
 568              	.L43:
 100:src/unit/motor_drive.cpp ****                   motor2b_->write(output_right * -0.001f);
 569              		.loc 1 100 19 is_stmt 1 view .LVU125
 100:src/unit/motor_drive.cpp ****                   motor2b_->write(output_right * -0.001f);
 570              		.loc 1 100 34 is_stmt 0 view .LVU126
 571 015c 9FED110A 		vldr.32	s0, .L47+20
 572 0160 DAF85000 		ldr	r0, [r10, #80]
 573 0164 FFF7FEFF 		bl	_ZN12PwmSingleOut5writeEf
 574              	.LVL60:
 101:src/unit/motor_drive.cpp ****             }
 575              		.loc 1 101 19 is_stmt 1 view .LVU127
 576 0168 DAF85440 		ldr	r4, [r10, #84]
 101:src/unit/motor_drive.cpp ****             }
 577              		.loc 1 101 48 is_stmt 0 view .LVU128
 578 016c 0AA3     		adr	r3, .L47+8
 579 016e D3E90023 		ldrd	r2, [r3]
 580 0172 DAE92E01 		ldrd	r0, [r10, #184]
 581 0176 FFF7FEFF 		bl	__aeabi_dmul
 582              	.LVL61:
 101:src/unit/motor_drive.cpp ****             }
 583              		.loc 1 101 34 view .LVU129
 584 017a FFF7FEFF 		bl	__aeabi_d2f
 585              	.LVL62:
 586 017e 00EE100A 		vmov	s0, r0
 587 0182 2046     		mov	r0, r4
 588 0184 FFF7FEFF 		bl	_ZN12PwmSingleOut5writeEf
 589              	.LVL63:
 590              		.loc 1 104 1 view .LVU130
 591 0188 C7E7     		b	.L23
 592              	.L48:
 593 018a 00BFAFF3 		.align	3
 593      0080
 594              	.L47:
 595 0190 000000E0 		.word	-536870912
 596 0194 4D62503F 		.word	1062232653
 597 0198 000000E0 		.word	-536870912
 598 019c 4D6250BF 		.word	-1085250995
 599 01a0 00C08240 		.word	1082310656
 600 01a4 00000000 		.word	0
ARM GAS  /var/folders/5c/srt4fy4j1pd641bjfx75k5000000gn/T//ccMRDjtJ.s 			page 14


 601              		.cfi_endproc
 602              	.LFE254:
 603              		.fnend
 605              		.global	__aeabi_dcmpeq
 606              		.global	__aeabi_dsub
 607              		.global	__aeabi_i2d
 608              		.global	__aeabi_dadd
 609              		.global	__aeabi_dcmplt
 610              		.section	.text._ZN10MotorDrive12SpeedControlEv,"ax",%progbits
 611              		.align	1
 612              		.global	_ZN10MotorDrive12SpeedControlEv
 613              		.syntax unified
 614              		.thumb
 615              		.thumb_func
 617              	_ZN10MotorDrive12SpeedControlEv:
 618              		.fnstart
 619              	.LVL64:
 620              	.LFB253:
  30:src/unit/motor_drive.cpp ****       if (encoder.pre_rad_left != encoder.rad_left || encoder.pre_rad_right != encoder.rad_right) {
 621              		.loc 1 30 33 is_stmt 1 view -0
 622              		.cfi_startproc
 623              		@ args = 0, pretend = 0, frame = 16
 624              		@ frame_needed = 0, uses_anonymous_args = 0
  30:src/unit/motor_drive.cpp ****       if (encoder.pre_rad_left != encoder.rad_left || encoder.pre_rad_right != encoder.rad_right) {
 625              		.loc 1 30 33 is_stmt 0 view .LVU132
 626 0000 2DE9F04F 		push	{r4, r5, r6, r7, r8, r9, r10, fp, lr}
 627              		.save {r4, r5, r6, r7, r8, r9, r10, fp, lr}
 628              	.LCFI5:
 629              		.cfi_def_cfa_offset 36
 630              		.cfi_offset 4, -36
 631              		.cfi_offset 5, -32
 632              		.cfi_offset 6, -28
 633              		.cfi_offset 7, -24
 634              		.cfi_offset 8, -20
 635              		.cfi_offset 9, -16
 636              		.cfi_offset 10, -12
 637              		.cfi_offset 11, -8
 638              		.cfi_offset 14, -4
 639 0004 2DED048B 		vpush.64	{d8, d9}
 640              		.vsave {d8, d9}
 641              	.LCFI6:
 642              		.cfi_def_cfa_offset 52
 643              		.cfi_offset 80, -52
 644              		.cfi_offset 81, -48
 645              		.cfi_offset 82, -44
 646              		.cfi_offset 83, -40
 647              		.pad #20
 648 0008 85B0     		sub	sp, sp, #20
 649              	.LCFI7:
 650              		.cfi_def_cfa_offset 72
 651 000a 8246     		mov	r10, r0
  31:src/unit/motor_drive.cpp ****             dt = periodTimer.read_us() * 0.000001f;                                                
 652              		.loc 1 31 7 is_stmt 1 view .LVU133
 653 000c D0E90823 		ldrd	r2, [r0, #32]
 654 0010 D0E90401 		ldrd	r0, [r0, #16]
 655              	.LVL65:
  31:src/unit/motor_drive.cpp ****             dt = periodTimer.read_us() * 0.000001f;                                                
ARM GAS  /var/folders/5c/srt4fy4j1pd641bjfx75k5000000gn/T//ccMRDjtJ.s 			page 15


 656              		.loc 1 31 7 is_stmt 0 view .LVU134
 657 0014 FFF7FEFF 		bl	__aeabi_dcmpeq
 658              	.LVL66:
 659 0018 40B1     		cbz	r0, .L50
  31:src/unit/motor_drive.cpp ****             dt = periodTimer.read_us() * 0.000001f;                                                
 660              		.loc 1 31 52 discriminator 1 view .LVU135
 661 001a DAE90A23 		ldrd	r2, [r10, #40]
 662 001e DAE90601 		ldrd	r0, [r10, #24]
 663 0022 FFF7FEFF 		bl	__aeabi_dcmpeq
 664              	.LVL67:
 665 0026 0028     		cmp	r0, #0
 666 0028 40F0CB81 		bne	.L49
 667              	.L50:
  32:src/unit/motor_drive.cpp ****             periodTimer.reset();
 668              		.loc 1 32 13 is_stmt 1 view .LVU136
  32:src/unit/motor_drive.cpp ****             periodTimer.reset();
 669              		.loc 1 32 37 is_stmt 0 view .LVU137
 670 002c 0AF16004 		add	r4, r10, #96
 671 0030 2046     		mov	r0, r4
 672 0032 FFF7FEFF 		bl	_ZN5Timer7read_usEv
 673              	.LVL68:
 674 0036 07EE900A 		vmov	s15, r0	@ int
  32:src/unit/motor_drive.cpp ****             periodTimer.reset();
 675              		.loc 1 32 40 view .LVU138
 676 003a F8EE677A 		vcvt.f32.u32	s15, s15
 677 003e 9FEDB07A 		vldr.32	s14, .L100+24
 678 0042 67EE877A 		vmul.f32	s15, s15, s14
 679 0046 17EE900A 		vmov	r0, s15
 680 004a FFF7FEFF 		bl	__aeabi_f2d
 681              	.LVL69:
  32:src/unit/motor_drive.cpp ****             periodTimer.reset();
 682              		.loc 1 32 16 view .LVU139
 683 004e CAE92601 		strd	r0, [r10, #152]
  33:src/unit/motor_drive.cpp **** 
 684              		.loc 1 33 13 is_stmt 1 view .LVU140
  33:src/unit/motor_drive.cpp **** 
 685              		.loc 1 33 30 is_stmt 0 view .LVU141
 686 0052 2046     		mov	r0, r4
 687 0054 FFF7FEFF 		bl	_ZN5Timer5resetEv
 688              	.LVL70:
  36:src/unit/motor_drive.cpp ****             encoder.dif_rad_right = encoder.rad_right - encoder.pre_rad_right;
 689              		.loc 1 36 13 is_stmt 1 view .LVU142
  36:src/unit/motor_drive.cpp ****             encoder.dif_rad_right = encoder.rad_right - encoder.pre_rad_right;
 690              		.loc 1 36 44 is_stmt 0 view .LVU143
 691 0058 9AED088B 		vldr.64	d8, [r10, #32]
  36:src/unit/motor_drive.cpp ****             encoder.dif_rad_right = encoder.rad_right - encoder.pre_rad_right;
 692              		.loc 1 36 53 view .LVU144
 693 005c DAE90423 		ldrd	r2, [r10, #16]
 694 0060 51EC180B 		vmov	r0, r1, d8
 695 0064 FFF7FEFF 		bl	__aeabi_dsub
 696              	.LVL71:
 697 0068 0646     		mov	r6, r0
 698 006a 0F46     		mov	r7, r1
  36:src/unit/motor_drive.cpp ****             encoder.dif_rad_right = encoder.rad_right - encoder.pre_rad_right;
 699              		.loc 1 36 34 view .LVU145
 700 006c CAE90C67 		strd	r6, [r10, #48]
  37:src/unit/motor_drive.cpp ****             encoder.pre_rad_left = encoder.rad_left;
ARM GAS  /var/folders/5c/srt4fy4j1pd641bjfx75k5000000gn/T//ccMRDjtJ.s 			page 16


 701              		.loc 1 37 13 is_stmt 1 view .LVU146
  37:src/unit/motor_drive.cpp ****             encoder.pre_rad_left = encoder.rad_left;
 702              		.loc 1 37 45 is_stmt 0 view .LVU147
 703 0070 DAE90A89 		ldrd	r8, [r10, #40]
  37:src/unit/motor_drive.cpp ****             encoder.pre_rad_left = encoder.rad_left;
 704              		.loc 1 37 55 view .LVU148
 705 0074 DAE90623 		ldrd	r2, [r10, #24]
 706 0078 4046     		mov	r0, r8
 707 007a 4946     		mov	r1, r9
 708 007c FFF7FEFF 		bl	__aeabi_dsub
 709              	.LVL72:
 710 0080 0446     		mov	r4, r0
 711 0082 0D46     		mov	r5, r1
  37:src/unit/motor_drive.cpp ****             encoder.pre_rad_left = encoder.rad_left;
 712              		.loc 1 37 35 view .LVU149
 713 0084 CAE90E45 		strd	r4, [r10, #56]
  38:src/unit/motor_drive.cpp ****             encoder.pre_rad_right = encoder.rad_right;
 714              		.loc 1 38 13 is_stmt 1 view .LVU150
  38:src/unit/motor_drive.cpp ****             encoder.pre_rad_right = encoder.rad_right;
 715              		.loc 1 38 34 is_stmt 0 view .LVU151
 716 0088 8AED048B 		vstr.64	d8, [r10, #16]
  39:src/unit/motor_drive.cpp **** 
 717              		.loc 1 39 13 is_stmt 1 view .LVU152
  39:src/unit/motor_drive.cpp **** 
 718              		.loc 1 39 35 is_stmt 0 view .LVU153
 719 008c CAE90689 		strd	r8, [r10, #24]
  42:src/unit/motor_drive.cpp ****             if (abs(encoder.dif_rad_right) > PI) encoder.dif_rad_right -= 2 * PI * (abs(encoder.dif
 720              		.loc 1 42 13 is_stmt 1 view .LVU154
  42:src/unit/motor_drive.cpp ****             if (abs(encoder.dif_rad_right) > PI) encoder.dif_rad_right -= 2 * PI * (abs(encoder.dif
 721              		.loc 1 42 17 is_stmt 0 view .LVU155
 722 0090 0022     		movs	r2, #0
 723 0092 0023     		movs	r3, #0
 724 0094 3046     		mov	r0, r6
 725 0096 3946     		mov	r1, r7
 726 0098 FFF7FEFF 		bl	__aeabi_dcmpgt
 727              	.LVL73:
 728 009c 0028     		cmp	r0, #0
 729 009e 00F09581 		beq	.L90
 730 00a2 B046     		mov	r8, r6
 731 00a4 B946     		mov	r9, r7
 732              	.L53:
  42:src/unit/motor_drive.cpp ****             if (abs(encoder.dif_rad_right) > PI) encoder.dif_rad_right -= 2 * PI * (abs(encoder.dif
 733              		.loc 1 42 13 discriminator 4 view .LVU156
 734 00a6 90A3     		adr	r3, .L100
 735 00a8 D3E90023 		ldrd	r2, [r3]
 736 00ac 4046     		mov	r0, r8
 737 00ae 4946     		mov	r1, r9
 738 00b0 FFF7FEFF 		bl	__aeabi_dcmpgt
 739              	.LVL74:
 740 00b4 90B1     		cbz	r0, .L54
  42:src/unit/motor_drive.cpp ****             if (abs(encoder.dif_rad_right) > PI) encoder.dif_rad_right -= 2 * PI * (abs(encoder.dif
 741              		.loc 1 42 49 is_stmt 1 discriminator 9 view .LVU157
  42:src/unit/motor_drive.cpp ****             if (abs(encoder.dif_rad_right) > PI) encoder.dif_rad_right -= 2 * PI * (abs(encoder.dif
 742              		.loc 1 42 109 is_stmt 0 discriminator 9 view .LVU158
 743 00b6 3246     		mov	r2, r6
 744 00b8 3B46     		mov	r3, r7
 745 00ba 4046     		mov	r0, r8
ARM GAS  /var/folders/5c/srt4fy4j1pd641bjfx75k5000000gn/T//ccMRDjtJ.s 			page 17


 746 00bc 4946     		mov	r1, r9
 747 00be FFF7FEFF 		bl	__aeabi_ddiv
 748              	.LVL75:
  42:src/unit/motor_drive.cpp ****             if (abs(encoder.dif_rad_right) > PI) encoder.dif_rad_right -= 2 * PI * (abs(encoder.dif
 749              		.loc 1 42 80 discriminator 9 view .LVU159
 750 00c2 8BA3     		adr	r3, .L100+8
 751 00c4 D3E90023 		ldrd	r2, [r3]
 752 00c8 FFF7FEFF 		bl	__aeabi_dmul
 753              	.LVL76:
 754 00cc 0246     		mov	r2, r0
 755 00ce 0B46     		mov	r3, r1
  42:src/unit/motor_drive.cpp ****             if (abs(encoder.dif_rad_right) > PI) encoder.dif_rad_right -= 2 * PI * (abs(encoder.dif
 756              		.loc 1 42 70 discriminator 9 view .LVU160
 757 00d0 3046     		mov	r0, r6
 758 00d2 3946     		mov	r1, r7
 759 00d4 FFF7FEFF 		bl	__aeabi_dsub
 760              	.LVL77:
 761 00d8 CAE90C01 		strd	r0, [r10, #48]
 762              	.L54:
  43:src/unit/motor_drive.cpp **** 
 763              		.loc 1 43 13 is_stmt 1 view .LVU161
  43:src/unit/motor_drive.cpp **** 
 764              		.loc 1 43 17 is_stmt 0 view .LVU162
 765 00dc 0022     		movs	r2, #0
 766 00de 0023     		movs	r3, #0
 767 00e0 2046     		mov	r0, r4
 768 00e2 2946     		mov	r1, r5
 769 00e4 FFF7FEFF 		bl	__aeabi_dcmpgt
 770              	.LVL78:
 771 00e8 0028     		cmp	r0, #0
 772 00ea 00F07381 		beq	.L91
 773 00ee 2646     		mov	r6, r4
 774 00f0 2F46     		mov	r7, r5
 775              	.L56:
  43:src/unit/motor_drive.cpp **** 
 776              		.loc 1 43 13 discriminator 4 view .LVU163
 777 00f2 7DA3     		adr	r3, .L100
 778 00f4 D3E90023 		ldrd	r2, [r3]
 779 00f8 3046     		mov	r0, r6
 780 00fa 3946     		mov	r1, r7
 781 00fc FFF7FEFF 		bl	__aeabi_dcmpgt
 782              	.LVL79:
 783 0100 90B1     		cbz	r0, .L57
  43:src/unit/motor_drive.cpp **** 
 784              		.loc 1 43 50 is_stmt 1 discriminator 9 view .LVU164
  43:src/unit/motor_drive.cpp **** 
 785              		.loc 1 43 112 is_stmt 0 discriminator 9 view .LVU165
 786 0102 2246     		mov	r2, r4
 787 0104 2B46     		mov	r3, r5
 788 0106 3046     		mov	r0, r6
 789 0108 3946     		mov	r1, r7
 790 010a FFF7FEFF 		bl	__aeabi_ddiv
 791              	.LVL80:
  43:src/unit/motor_drive.cpp **** 
 792              		.loc 1 43 82 discriminator 9 view .LVU166
 793 010e 78A3     		adr	r3, .L100+8
 794 0110 D3E90023 		ldrd	r2, [r3]
ARM GAS  /var/folders/5c/srt4fy4j1pd641bjfx75k5000000gn/T//ccMRDjtJ.s 			page 18


 795 0114 FFF7FEFF 		bl	__aeabi_dmul
 796              	.LVL81:
 797 0118 0246     		mov	r2, r0
 798 011a 0B46     		mov	r3, r1
  43:src/unit/motor_drive.cpp **** 
 799              		.loc 1 43 72 discriminator 9 view .LVU167
 800 011c 2046     		mov	r0, r4
 801 011e 2946     		mov	r1, r5
 802 0120 FFF7FEFF 		bl	__aeabi_dsub
 803              	.LVL82:
 804 0124 CAE90E01 		strd	r0, [r10, #56]
 805              	.L57:
  46:src/unit/motor_drive.cpp ****             encoder.speed_right = encoder.dif_rad_right / dt;
 806              		.loc 1 46 13 is_stmt 1 view .LVU168
  46:src/unit/motor_drive.cpp ****             encoder.speed_right = encoder.dif_rad_right / dt;
 807              		.loc 1 46 57 is_stmt 0 view .LVU169
 808 0128 DAE92645 		ldrd	r4, [r10, #152]
  46:src/unit/motor_drive.cpp ****             encoder.speed_right = encoder.dif_rad_right / dt;
 809              		.loc 1 46 55 view .LVU170
 810 012c 2246     		mov	r2, r4
 811 012e 2B46     		mov	r3, r5
 812 0130 DAE90C01 		ldrd	r0, [r10, #48]
 813 0134 FFF7FEFF 		bl	__aeabi_ddiv
 814              	.LVL83:
  46:src/unit/motor_drive.cpp ****             encoder.speed_right = encoder.dif_rad_right / dt;
 815              		.loc 1 46 60 view .LVU171
 816 0138 0646     		mov	r6, r0
 817 013a 01F10047 		add	r7, r1, #-2147483648
  46:src/unit/motor_drive.cpp ****             encoder.speed_right = encoder.dif_rad_right / dt;
 818              		.loc 1 46 32 view .LVU172
 819 013e CAE90067 		strd	r6, [r10]
  47:src/unit/motor_drive.cpp **** 
 820              		.loc 1 47 13 is_stmt 1 view .LVU173
  47:src/unit/motor_drive.cpp **** 
 821              		.loc 1 47 57 is_stmt 0 view .LVU174
 822 0142 2246     		mov	r2, r4
 823 0144 2B46     		mov	r3, r5
 824 0146 DAE90E01 		ldrd	r0, [r10, #56]
 825 014a FFF7FEFF 		bl	__aeabi_ddiv
 826              	.LVL84:
 827 014e 8046     		mov	r8, r0
 828 0150 8946     		mov	r9, r1
  47:src/unit/motor_drive.cpp **** 
 829              		.loc 1 47 33 view .LVU175
 830 0152 CAE90289 		strd	r8, [r10, #8]
  51:src/unit/motor_drive.cpp ****             p_right_ = encoder.speed_right - speed_right_;
 831              		.loc 1 51 13 is_stmt 1 view .LVU176
  51:src/unit/motor_drive.cpp ****             p_right_ = encoder.speed_right - speed_right_;
 832              		.loc 1 51 44 is_stmt 0 view .LVU177
 833 0156 BAF964B0 		ldrsh	fp, [r10, #100]
  51:src/unit/motor_drive.cpp ****             p_right_ = encoder.speed_right - speed_right_;
 834              		.loc 1 51 42 view .LVU178
 835 015a 5846     		mov	r0, fp
 836 015c FFF7FEFF 		bl	__aeabi_i2d
 837              	.LVL85:
 838 0160 0246     		mov	r2, r0
 839 0162 0B46     		mov	r3, r1
ARM GAS  /var/folders/5c/srt4fy4j1pd641bjfx75k5000000gn/T//ccMRDjtJ.s 			page 19


 840 0164 3046     		mov	r0, r6
 841 0166 3946     		mov	r1, r7
 842 0168 FFF7FEFF 		bl	__aeabi_dsub
 843              	.LVL86:
 844 016c 41EC190B 		vmov	d9, r0, r1
  51:src/unit/motor_drive.cpp ****             p_right_ = encoder.speed_right - speed_right_;
 845              		.loc 1 51 21 view .LVU179
 846 0170 CAE91E01 		strd	r0, [r10, #120]
  52:src/unit/motor_drive.cpp ****             // 積分成分
 847              		.loc 1 52 13 is_stmt 1 view .LVU180
  52:src/unit/motor_drive.cpp ****             // 積分成分
 848              		.loc 1 52 46 is_stmt 0 view .LVU181
 849 0174 BAF96660 		ldrsh	r6, [r10, #102]
  52:src/unit/motor_drive.cpp ****             // 積分成分
 850              		.loc 1 52 44 view .LVU182
 851 0178 3046     		mov	r0, r6
 852 017a FFF7FEFF 		bl	__aeabi_i2d
 853              	.LVL87:
 854 017e 0246     		mov	r2, r0
 855 0180 0B46     		mov	r3, r1
 856 0182 4046     		mov	r0, r8
 857 0184 4946     		mov	r1, r9
 858 0186 FFF7FEFF 		bl	__aeabi_dsub
 859              	.LVL88:
 860 018a 41EC180B 		vmov	d8, r0, r1
  52:src/unit/motor_drive.cpp ****             // 積分成分
 861              		.loc 1 52 22 view .LVU183
 862 018e CAE92001 		strd	r0, [r10, #128]
  54:src/unit/motor_drive.cpp ****             i_right_ += p_right_ * dt;
 863              		.loc 1 54 13 is_stmt 1 view .LVU184
 864 0192 DAE92289 		ldrd	r8, [r10, #136]
  54:src/unit/motor_drive.cpp ****             i_right_ += p_right_ * dt;
 865              		.loc 1 54 32 is_stmt 0 view .LVU185
 866 0196 53EC192B 		vmov	r2, r3, d9
 867 019a 2046     		mov	r0, r4
 868 019c 2946     		mov	r1, r5
 869 019e FFF7FEFF 		bl	__aeabi_dmul
 870              	.LVL89:
 871 01a2 0246     		mov	r2, r0
 872 01a4 0B46     		mov	r3, r1
  54:src/unit/motor_drive.cpp ****             i_right_ += p_right_ * dt;
 873              		.loc 1 54 21 view .LVU186
 874 01a6 4046     		mov	r0, r8
 875 01a8 4946     		mov	r1, r9
 876 01aa FFF7FEFF 		bl	__aeabi_dadd
 877              	.LVL90:
 878 01ae CDE90001 		strd	r0, [sp]
 879 01b2 CAE92201 		strd	r0, [r10, #136]
  55:src/unit/motor_drive.cpp ****             // 積分値の範囲制限
 880              		.loc 1 55 13 is_stmt 1 view .LVU187
 881 01b6 DAE92489 		ldrd	r8, [r10, #144]
  55:src/unit/motor_drive.cpp ****             // 積分値の範囲制限
 882              		.loc 1 55 34 is_stmt 0 view .LVU188
 883 01ba 53EC182B 		vmov	r2, r3, d8
 884 01be 2046     		mov	r0, r4
 885 01c0 2946     		mov	r1, r5
 886 01c2 FFF7FEFF 		bl	__aeabi_dmul
ARM GAS  /var/folders/5c/srt4fy4j1pd641bjfx75k5000000gn/T//ccMRDjtJ.s 			page 20


 887              	.LVL91:
 888 01c6 0246     		mov	r2, r0
 889 01c8 0B46     		mov	r3, r1
  55:src/unit/motor_drive.cpp ****             // 積分値の範囲制限
 890              		.loc 1 55 22 view .LVU189
 891 01ca 4046     		mov	r0, r8
 892 01cc 4946     		mov	r1, r9
 893 01ce FFF7FEFF 		bl	__aeabi_dadd
 894              	.LVL92:
 895 01d2 CDE90201 		strd	r0, [sp, #8]
 896 01d6 CAE92401 		strd	r0, [r10, #144]
  57:src/unit/motor_drive.cpp ****             if (abs(i_right_ * ki) > 300) i_right_ = 300 / ki * (abs(i_right_) / i_right_);
 897              		.loc 1 57 13 is_stmt 1 view .LVU190
  57:src/unit/motor_drive.cpp ****             if (abs(i_right_ * ki) > 300) i_right_ = 300 / ki * (abs(i_right_) / i_right_);
 898              		.loc 1 57 17 is_stmt 0 view .LVU191
 899 01da DAE92A89 		ldrd	r8, [r10, #168]
 900 01de 4246     		mov	r2, r8
 901 01e0 4B46     		mov	r3, r9
 902 01e2 DDE90001 		ldrd	r0, [sp]
 903 01e6 FFF7FEFF 		bl	__aeabi_dmul
 904              	.LVL93:
 905 01ea 0446     		mov	r4, r0
 906 01ec 0D46     		mov	r5, r1
 907 01ee 0022     		movs	r2, #0
 908 01f0 0023     		movs	r3, #0
 909 01f2 FFF7FEFF 		bl	__aeabi_dcmpgt
 910              	.LVL94:
 911 01f6 0028     		cmp	r0, #0
 912 01f8 00F0F080 		beq	.L92
 913              	.L59:
  57:src/unit/motor_drive.cpp ****             if (abs(i_right_ * ki) > 300) i_right_ = 300 / ki * (abs(i_right_) / i_right_);
 914              		.loc 1 57 13 discriminator 4 view .LVU192
 915 01fc 3EA3     		adr	r3, .L100+16
 916 01fe D3E90023 		ldrd	r2, [r3]
 917 0202 2046     		mov	r0, r4
 918 0204 2946     		mov	r1, r5
 919 0206 FFF7FEFF 		bl	__aeabi_dcmpgt
 920              	.LVL95:
 921 020a F8B1     		cbz	r0, .L60
  57:src/unit/motor_drive.cpp ****             if (abs(i_right_ * ki) > 300) i_right_ = 300 / ki * (abs(i_right_) / i_right_);
 922              		.loc 1 57 42 is_stmt 1 discriminator 5 view .LVU193
  57:src/unit/motor_drive.cpp ****             if (abs(i_right_ * ki) > 300) i_right_ = 300 / ki * (abs(i_right_) / i_right_);
 923              		.loc 1 57 56 is_stmt 0 discriminator 5 view .LVU194
 924 020c 4246     		mov	r2, r8
 925 020e 4B46     		mov	r3, r9
 926 0210 39A1     		adr	r1, .L100+16
 927 0212 D1E90001 		ldrd	r0, [r1]
 928 0216 FFF7FEFF 		bl	__aeabi_ddiv
 929              	.LVL96:
 930 021a 0446     		mov	r4, r0
 931 021c 0D46     		mov	r5, r1
  57:src/unit/motor_drive.cpp ****             if (abs(i_right_ * ki) > 300) i_right_ = 300 / ki * (abs(i_right_) / i_right_);
 932              		.loc 1 57 64 discriminator 5 view .LVU195
 933 021e 0022     		movs	r2, #0
 934 0220 0023     		movs	r3, #0
 935 0222 DDE90001 		ldrd	r0, [sp]
 936 0226 FFF7FEFF 		bl	__aeabi_dcmpgt
ARM GAS  /var/folders/5c/srt4fy4j1pd641bjfx75k5000000gn/T//ccMRDjtJ.s 			page 21


 937              	.LVL97:
 938 022a 0028     		cmp	r0, #0
 939 022c 00F0DA80 		beq	.L93
  57:src/unit/motor_drive.cpp ****             if (abs(i_right_ * ki) > 300) i_right_ = 300 / ki * (abs(i_right_) / i_right_);
 940              		.loc 1 57 64 view .LVU196
 941 0230 DDE90001 		ldrd	r0, [sp]
 942              	.L62:
  57:src/unit/motor_drive.cpp ****             if (abs(i_right_ * ki) > 300) i_right_ = 300 / ki * (abs(i_right_) / i_right_);
 943              		.loc 1 57 77 discriminator 9 view .LVU197
 944 0234 DDE90023 		ldrd	r2, [sp]
 945 0238 FFF7FEFF 		bl	__aeabi_ddiv
 946              	.LVL98:
 947 023c 0246     		mov	r2, r0
 948 023e 0B46     		mov	r3, r1
  57:src/unit/motor_drive.cpp ****             if (abs(i_right_ * ki) > 300) i_right_ = 300 / ki * (abs(i_right_) / i_right_);
 949              		.loc 1 57 61 discriminator 9 view .LVU198
 950 0240 2046     		mov	r0, r4
 951 0242 2946     		mov	r1, r5
 952 0244 FFF7FEFF 		bl	__aeabi_dmul
 953              	.LVL99:
  57:src/unit/motor_drive.cpp ****             if (abs(i_right_ * ki) > 300) i_right_ = 300 / ki * (abs(i_right_) / i_right_);
 954              		.loc 1 57 50 discriminator 9 view .LVU199
 955 0248 CAE92201 		strd	r0, [r10, #136]
 956              	.L60:
  58:src/unit/motor_drive.cpp ****             // speedが0に指定されたらi成分を減らしていく
 957              		.loc 1 58 13 is_stmt 1 view .LVU200
  58:src/unit/motor_drive.cpp ****             // speedが0に指定されたらi成分を減らしていく
 958              		.loc 1 58 17 is_stmt 0 view .LVU201
 959 024c 4246     		mov	r2, r8
 960 024e 4B46     		mov	r3, r9
 961 0250 DDE90201 		ldrd	r0, [sp, #8]
 962 0254 FFF7FEFF 		bl	__aeabi_dmul
 963              	.LVL100:
 964 0258 0446     		mov	r4, r0
 965 025a 0D46     		mov	r5, r1
 966 025c 0022     		movs	r2, #0
 967 025e 0023     		movs	r3, #0
 968 0260 FFF7FEFF 		bl	__aeabi_dcmpgt
 969              	.LVL101:
 970 0264 0028     		cmp	r0, #0
 971 0266 00F0C380 		beq	.L94
 972              	.L63:
  58:src/unit/motor_drive.cpp ****             // speedが0に指定されたらi成分を減らしていく
 973              		.loc 1 58 13 discriminator 4 view .LVU202
 974 026a 23A3     		adr	r3, .L100+16
 975 026c D3E90023 		ldrd	r2, [r3]
 976 0270 2046     		mov	r0, r4
 977 0272 2946     		mov	r1, r5
 978 0274 FFF7FEFF 		bl	__aeabi_dcmpgt
 979              	.LVL102:
 980 0278 F8B1     		cbz	r0, .L64
  58:src/unit/motor_drive.cpp ****             // speedが0に指定されたらi成分を減らしていく
 981              		.loc 1 58 43 is_stmt 1 discriminator 5 view .LVU203
  58:src/unit/motor_drive.cpp ****             // speedが0に指定されたらi成分を減らしていく
 982              		.loc 1 58 58 is_stmt 0 discriminator 5 view .LVU204
 983 027a 4246     		mov	r2, r8
 984 027c 4B46     		mov	r3, r9
ARM GAS  /var/folders/5c/srt4fy4j1pd641bjfx75k5000000gn/T//ccMRDjtJ.s 			page 22


 985 027e 1EA1     		adr	r1, .L100+16
 986 0280 D1E90001 		ldrd	r0, [r1]
 987 0284 FFF7FEFF 		bl	__aeabi_ddiv
 988              	.LVL103:
 989 0288 0446     		mov	r4, r0
 990 028a 0D46     		mov	r5, r1
  58:src/unit/motor_drive.cpp ****             // speedが0に指定されたらi成分を減らしていく
 991              		.loc 1 58 66 discriminator 5 view .LVU205
 992 028c 0022     		movs	r2, #0
 993 028e 0023     		movs	r3, #0
 994 0290 DDE90201 		ldrd	r0, [sp, #8]
 995 0294 FFF7FEFF 		bl	__aeabi_dcmpgt
 996              	.LVL104:
 997 0298 0028     		cmp	r0, #0
 998 029a 00F0AD80 		beq	.L95
  58:src/unit/motor_drive.cpp ****             // speedが0に指定されたらi成分を減らしていく
 999              		.loc 1 58 66 view .LVU206
 1000 029e DDE90201 		ldrd	r0, [sp, #8]
 1001              	.L66:
  58:src/unit/motor_drive.cpp ****             // speedが0に指定されたらi成分を減らしていく
 1002              		.loc 1 58 80 discriminator 9 view .LVU207
 1003 02a2 DDE90223 		ldrd	r2, [sp, #8]
 1004 02a6 FFF7FEFF 		bl	__aeabi_ddiv
 1005              	.LVL105:
 1006 02aa 0246     		mov	r2, r0
 1007 02ac 0B46     		mov	r3, r1
  58:src/unit/motor_drive.cpp ****             // speedが0に指定されたらi成分を減らしていく
 1008              		.loc 1 58 63 discriminator 9 view .LVU208
 1009 02ae 2046     		mov	r0, r4
 1010 02b0 2946     		mov	r1, r5
 1011 02b2 FFF7FEFF 		bl	__aeabi_dmul
 1012              	.LVL106:
  58:src/unit/motor_drive.cpp ****             // speedが0に指定されたらi成分を減らしていく
 1013              		.loc 1 58 52 discriminator 9 view .LVU209
 1014 02b6 CAE92401 		strd	r0, [r10, #144]
 1015              	.L64:
  60:src/unit/motor_drive.cpp ****             if (speed_right_ == 0) i_right_ *= 0.5;
 1016              		.loc 1 60 13 is_stmt 1 view .LVU210
 1017 02ba BBF1000F 		cmp	fp, #0
 1018 02be 07D1     		bne	.L67
  60:src/unit/motor_drive.cpp ****             if (speed_right_ == 0) i_right_ *= 0.5;
 1019              		.loc 1 60 35 discriminator 1 view .LVU211
  60:src/unit/motor_drive.cpp ****             if (speed_right_ == 0) i_right_ *= 0.5;
 1020              		.loc 1 60 43 is_stmt 0 discriminator 1 view .LVU212
 1021 02c0 0022     		movs	r2, #0
 1022 02c2 104B     		ldr	r3, .L100+28
 1023 02c4 DAE92201 		ldrd	r0, [r10, #136]
 1024 02c8 FFF7FEFF 		bl	__aeabi_dmul
 1025              	.LVL107:
 1026 02cc CAE92201 		strd	r0, [r10, #136]
 1027              	.L67:
  61:src/unit/motor_drive.cpp ****             // 合算
 1028              		.loc 1 61 13 is_stmt 1 view .LVU213
 1029 02d0 D6B9     		cbnz	r6, .L68
  61:src/unit/motor_drive.cpp ****             // 合算
 1030              		.loc 1 61 36 discriminator 1 view .LVU214
  61:src/unit/motor_drive.cpp ****             // 合算
ARM GAS  /var/folders/5c/srt4fy4j1pd641bjfx75k5000000gn/T//ccMRDjtJ.s 			page 23


 1031              		.loc 1 61 45 is_stmt 0 discriminator 1 view .LVU215
 1032 02d2 0022     		movs	r2, #0
 1033 02d4 0B4B     		ldr	r3, .L100+28
 1034 02d6 DAE92401 		ldrd	r0, [r10, #144]
 1035 02da FFF7FEFF 		bl	__aeabi_dmul
 1036              	.LVL108:
 1037 02de CAE92401 		strd	r0, [r10, #144]
 1038 02e2 11E0     		b	.L101
 1039              	.L102:
 1040 02e4 AFF30080 		.align	3
 1041              	.L100:
 1042 02e8 182D4454 		.word	1413754136
 1043 02ec FB210940 		.word	1074340347
 1044 02f0 182D4454 		.word	1413754136
 1045 02f4 FB211940 		.word	1075388923
 1046 02f8 00000000 		.word	0
 1047 02fc 00C07240 		.word	1081262080
 1048 0300 BD378635 		.word	897988541
 1049 0304 0000E03F 		.word	1071644672
 1050              	.L101:
 1051              	.L68:
  63:src/unit/motor_drive.cpp ****             power_right_ = 0 - kp * p_right_ - ki * i_right_;
 1052              		.loc 1 63 13 is_stmt 1 view .LVU216
  63:src/unit/motor_drive.cpp ****             power_right_ = 0 - kp * p_right_ - ki * i_right_;
 1053              		.loc 1 63 31 is_stmt 0 view .LVU217
 1054 0308 DAE92845 		ldrd	r4, [r10, #160]
  63:src/unit/motor_drive.cpp ****             power_right_ = 0 - kp * p_right_ - ki * i_right_;
 1055              		.loc 1 63 34 view .LVU218
 1056 030c 2246     		mov	r2, r4
 1057 030e 2B46     		mov	r3, r5
 1058 0310 51EC190B 		vmov	r0, r1, d9
 1059 0314 FFF7FEFF 		bl	__aeabi_dmul
 1060              	.LVL109:
 1061 0318 0246     		mov	r2, r0
 1062 031a 0B46     		mov	r3, r1
  63:src/unit/motor_drive.cpp ****             power_right_ = 0 - kp * p_right_ - ki * i_right_;
 1063              		.loc 1 63 29 view .LVU219
 1064 031c 0020     		movs	r0, #0
 1065 031e 0021     		movs	r1, #0
 1066 0320 FFF7FEFF 		bl	__aeabi_dsub
 1067              	.LVL110:
 1068 0324 CDE90001 		strd	r0, [sp]
  63:src/unit/motor_drive.cpp ****             power_right_ = 0 - kp * p_right_ - ki * i_right_;
 1069              		.loc 1 63 49 view .LVU220
 1070 0328 DAE92223 		ldrd	r2, [r10, #136]
 1071 032c 4046     		mov	r0, r8
 1072 032e 4946     		mov	r1, r9
 1073 0330 FFF7FEFF 		bl	__aeabi_dmul
 1074              	.LVL111:
 1075 0334 0246     		mov	r2, r0
 1076 0336 0B46     		mov	r3, r1
  63:src/unit/motor_drive.cpp ****             power_right_ = 0 - kp * p_right_ - ki * i_right_;
 1077              		.loc 1 63 44 view .LVU221
 1078 0338 DDE90001 		ldrd	r0, [sp]
 1079 033c FFF7FEFF 		bl	__aeabi_dsub
 1080              	.LVL112:
 1081 0340 41EC190B 		vmov	d9, r0, r1
ARM GAS  /var/folders/5c/srt4fy4j1pd641bjfx75k5000000gn/T//ccMRDjtJ.s 			page 24


  63:src/unit/motor_drive.cpp ****             power_right_ = 0 - kp * p_right_ - ki * i_right_;
 1082              		.loc 1 63 25 view .LVU222
 1083 0344 CAE91A01 		strd	r0, [r10, #104]
  64:src/unit/motor_drive.cpp **** 
 1084              		.loc 1 64 13 is_stmt 1 view .LVU223
  64:src/unit/motor_drive.cpp **** 
 1085              		.loc 1 64 35 is_stmt 0 view .LVU224
 1086 0348 2246     		mov	r2, r4
 1087 034a 2B46     		mov	r3, r5
 1088 034c 51EC180B 		vmov	r0, r1, d8
 1089 0350 FFF7FEFF 		bl	__aeabi_dmul
 1090              	.LVL113:
 1091 0354 0246     		mov	r2, r0
 1092 0356 0B46     		mov	r3, r1
  64:src/unit/motor_drive.cpp **** 
 1093              		.loc 1 64 30 view .LVU225
 1094 0358 0020     		movs	r0, #0
 1095 035a 0021     		movs	r1, #0
 1096 035c FFF7FEFF 		bl	__aeabi_dsub
 1097              	.LVL114:
 1098 0360 0446     		mov	r4, r0
 1099 0362 0D46     		mov	r5, r1
  64:src/unit/motor_drive.cpp **** 
 1100              		.loc 1 64 51 view .LVU226
 1101 0364 DAE92423 		ldrd	r2, [r10, #144]
 1102 0368 4046     		mov	r0, r8
 1103 036a 4946     		mov	r1, r9
 1104 036c FFF7FEFF 		bl	__aeabi_dmul
 1105              	.LVL115:
 1106 0370 0246     		mov	r2, r0
 1107 0372 0B46     		mov	r3, r1
  64:src/unit/motor_drive.cpp **** 
 1108              		.loc 1 64 46 view .LVU227
 1109 0374 2046     		mov	r0, r4
 1110 0376 2946     		mov	r1, r5
 1111 0378 FFF7FEFF 		bl	__aeabi_dsub
 1112              	.LVL116:
 1113 037c 0446     		mov	r4, r0
 1114 037e 0D46     		mov	r5, r1
  64:src/unit/motor_drive.cpp **** 
 1115              		.loc 1 64 26 view .LVU228
 1116 0380 CAE91C45 		strd	r4, [r10, #112]
  67:src/unit/motor_drive.cpp ****             if (speed_right_ > 0 && power_right_ < 1) power_right_ = 1;
 1117              		.loc 1 67 13 is_stmt 1 view .LVU229
 1118 0384 BBF1000F 		cmp	fp, #0
 1119 0388 06DD     		ble	.L69
  67:src/unit/motor_drive.cpp ****             if (speed_right_ > 0 && power_right_ < 1) power_right_ = 1;
 1120              		.loc 1 67 33 is_stmt 0 discriminator 1 view .LVU230
 1121 038a 0022     		movs	r2, #0
 1122 038c 2F4B     		ldr	r3, .L103
 1123 038e 51EC190B 		vmov	r0, r1, d9
 1124 0392 FFF7FEFF 		bl	__aeabi_dcmplt
 1125              	.LVL117:
 1126 0396 A8BB     		cbnz	r0, .L96
 1127              	.L69:
  68:src/unit/motor_drive.cpp ****             if (speed_left_ < 0 && power_left_ > -1) power_left_ = -1;
 1128              		.loc 1 68 13 is_stmt 1 view .LVU231
ARM GAS  /var/folders/5c/srt4fy4j1pd641bjfx75k5000000gn/T//ccMRDjtJ.s 			page 25


 1129 0398 002E     		cmp	r6, #0
 1130 039a 06DD     		ble	.L71
  68:src/unit/motor_drive.cpp ****             if (speed_left_ < 0 && power_left_ > -1) power_left_ = -1;
 1131              		.loc 1 68 34 is_stmt 0 discriminator 1 view .LVU232
 1132 039c 0022     		movs	r2, #0
 1133 039e 2B4B     		ldr	r3, .L103
 1134 03a0 2046     		mov	r0, r4
 1135 03a2 2946     		mov	r1, r5
 1136 03a4 FFF7FEFF 		bl	__aeabi_dcmplt
 1137              	.LVL118:
 1138 03a8 88BB     		cbnz	r0, .L97
 1139              	.L71:
  69:src/unit/motor_drive.cpp ****             if (speed_right_ < 0 && power_right_ > -1) power_right_ = -1;
 1140              		.loc 1 69 13 is_stmt 1 view .LVU233
 1141 03aa BBF1000F 		cmp	fp, #0
 1142 03ae 33DB     		blt	.L98
 1143              	.L73:
  70:src/unit/motor_drive.cpp **** 
 1144              		.loc 1 70 13 view .LVU234
 1145 03b0 002E     		cmp	r6, #0
 1146 03b2 3EDB     		blt	.L99
 1147              	.L75:
  72:src/unit/motor_drive.cpp ****       }
 1148              		.loc 1 72 13 view .LVU235
  72:src/unit/motor_drive.cpp ****       }
 1149              		.loc 1 72 16 is_stmt 0 view .LVU236
 1150 03b4 9AED1C1B 		vldr.64	d1, [r10, #112]
 1151 03b8 9AED1A0B 		vldr.64	d0, [r10, #104]
 1152 03bc 5046     		mov	r0, r10
 1153 03be FFF7FEFF 		bl	_ZN10MotorDrive3RunEdd
 1154              	.LVL119:
 1155              	.L49:
  74:src/unit/motor_drive.cpp **** 
 1156              		.loc 1 74 1 view .LVU237
 1157 03c2 05B0     		add	sp, sp, #20
 1158              	.LCFI8:
 1159              		.cfi_remember_state
 1160              		.cfi_def_cfa_offset 52
 1161              		@ sp needed
 1162 03c4 BDEC048B 		vldm	sp!, {d8-d9}
 1163              	.LCFI9:
 1164              		.cfi_restore 82
 1165              		.cfi_restore 83
 1166              		.cfi_restore 80
 1167              		.cfi_restore 81
 1168              		.cfi_def_cfa_offset 36
 1169 03c8 BDE8F08F 		pop	{r4, r5, r6, r7, r8, r9, r10, fp, pc}
 1170              	.LVL120:
 1171              	.L90:
 1172              	.LCFI10:
 1173              		.cfi_restore_state
  42:src/unit/motor_drive.cpp ****             if (abs(encoder.dif_rad_right) > PI) encoder.dif_rad_right -= 2 * PI * (abs(encoder.dif
 1174              		.loc 1 42 17 discriminator 2 view .LVU238
 1175 03cc B046     		mov	r8, r6
 1176 03ce 07F10049 		add	r9, r7, #-2147483648
 1177 03d2 68E6     		b	.L53
 1178              	.L91:
ARM GAS  /var/folders/5c/srt4fy4j1pd641bjfx75k5000000gn/T//ccMRDjtJ.s 			page 26


  43:src/unit/motor_drive.cpp **** 
 1179              		.loc 1 43 17 discriminator 2 view .LVU239
 1180 03d4 2646     		mov	r6, r4
 1181 03d6 05F10047 		add	r7, r5, #-2147483648
 1182 03da 8AE6     		b	.L56
 1183              	.L92:
  57:src/unit/motor_drive.cpp ****             if (abs(i_right_ * ki) > 300) i_right_ = 300 / ki * (abs(i_right_) / i_right_);
 1184              		.loc 1 57 17 discriminator 2 view .LVU240
 1185 03dc 05F10043 		add	r3, r5, #-2147483648
 1186 03e0 1D46     		mov	r5, r3
 1187 03e2 0BE7     		b	.L59
 1188              	.L93:
  57:src/unit/motor_drive.cpp ****             if (abs(i_right_ * ki) > 300) i_right_ = 300 / ki * (abs(i_right_) / i_right_);
 1189              		.loc 1 57 64 discriminator 7 view .LVU241
 1190 03e4 DDE90023 		ldrd	r2, [sp]
 1191 03e8 1046     		mov	r0, r2
 1192 03ea 03F10041 		add	r1, r3, #-2147483648
 1193 03ee 21E7     		b	.L62
 1194              	.L94:
  58:src/unit/motor_drive.cpp ****             // speedが0に指定されたらi成分を減らしていく
 1195              		.loc 1 58 17 discriminator 2 view .LVU242
 1196 03f0 05F10043 		add	r3, r5, #-2147483648
 1197 03f4 1D46     		mov	r5, r3
 1198 03f6 38E7     		b	.L63
 1199              	.L95:
  58:src/unit/motor_drive.cpp ****             // speedが0に指定されたらi成分を減らしていく
 1200              		.loc 1 58 66 discriminator 7 view .LVU243
 1201 03f8 DDE90223 		ldrd	r2, [sp, #8]
 1202 03fc 1046     		mov	r0, r2
 1203 03fe 03F10041 		add	r1, r3, #-2147483648
 1204 0402 4EE7     		b	.L66
 1205              	.L96:
  67:src/unit/motor_drive.cpp ****             if (speed_right_ > 0 && power_right_ < 1) power_right_ = 1;
 1206              		.loc 1 67 53 is_stmt 1 discriminator 2 view .LVU244
  67:src/unit/motor_drive.cpp ****             if (speed_right_ > 0 && power_right_ < 1) power_right_ = 1;
 1207              		.loc 1 67 65 is_stmt 0 discriminator 2 view .LVU245
 1208 0404 0022     		movs	r2, #0
 1209 0406 114B     		ldr	r3, .L103
 1210 0408 CAE91A23 		strd	r2, [r10, #104]
 1211 040c C4E7     		b	.L69
 1212              	.L97:
  68:src/unit/motor_drive.cpp ****             if (speed_left_ < 0 && power_left_ > -1) power_left_ = -1;
 1213              		.loc 1 68 55 is_stmt 1 discriminator 2 view .LVU246
  68:src/unit/motor_drive.cpp ****             if (speed_left_ < 0 && power_left_ > -1) power_left_ = -1;
 1214              		.loc 1 68 68 is_stmt 0 discriminator 2 view .LVU247
 1215 040e 0022     		movs	r2, #0
 1216 0410 0E4B     		ldr	r3, .L103
 1217 0412 CAE91C23 		strd	r2, [r10, #112]
 1218 0416 C8E7     		b	.L71
 1219              	.L98:
  69:src/unit/motor_drive.cpp ****             if (speed_right_ < 0 && power_right_ > -1) power_right_ = -1;
 1220              		.loc 1 69 33 discriminator 1 view .LVU248
 1221 0418 0022     		movs	r2, #0
 1222 041a 0D4B     		ldr	r3, .L103+4
 1223 041c DAE91A01 		ldrd	r0, [r10, #104]
 1224 0420 FFF7FEFF 		bl	__aeabi_dcmpgt
 1225              	.LVL121:
ARM GAS  /var/folders/5c/srt4fy4j1pd641bjfx75k5000000gn/T//ccMRDjtJ.s 			page 27


 1226 0424 0028     		cmp	r0, #0
 1227 0426 C3D0     		beq	.L73
  69:src/unit/motor_drive.cpp ****             if (speed_right_ < 0 && power_right_ > -1) power_right_ = -1;
 1228              		.loc 1 69 54 is_stmt 1 discriminator 2 view .LVU249
  69:src/unit/motor_drive.cpp ****             if (speed_right_ < 0 && power_right_ > -1) power_right_ = -1;
 1229              		.loc 1 69 66 is_stmt 0 discriminator 2 view .LVU250
 1230 0428 0022     		movs	r2, #0
 1231 042a 094B     		ldr	r3, .L103+4
 1232 042c CAE91A23 		strd	r2, [r10, #104]
 1233 0430 BEE7     		b	.L73
 1234              	.L99:
  70:src/unit/motor_drive.cpp **** 
 1235              		.loc 1 70 34 discriminator 1 view .LVU251
 1236 0432 0022     		movs	r2, #0
 1237 0434 064B     		ldr	r3, .L103+4
 1238 0436 DAE91C01 		ldrd	r0, [r10, #112]
 1239 043a FFF7FEFF 		bl	__aeabi_dcmpgt
 1240              	.LVL122:
 1241 043e 0028     		cmp	r0, #0
 1242 0440 B8D0     		beq	.L75
  70:src/unit/motor_drive.cpp **** 
 1243              		.loc 1 70 56 is_stmt 1 discriminator 2 view .LVU252
  70:src/unit/motor_drive.cpp **** 
 1244              		.loc 1 70 69 is_stmt 0 discriminator 2 view .LVU253
 1245 0442 0022     		movs	r2, #0
 1246 0444 024B     		ldr	r3, .L103+4
 1247 0446 CAE91C23 		strd	r2, [r10, #112]
 1248 044a B3E7     		b	.L75
 1249              	.L104:
 1250              		.align	2
 1251              	.L103:
 1252 044c 0000F03F 		.word	1072693248
 1253 0450 0000F0BF 		.word	-1074790400
 1254              		.cfi_endproc
 1255              	.LFE253:
 1256              		.fnend
 1258              		.section	.text._ZN10MotorDrive14EncoderComputeEv,"ax",%progbits
 1259              		.align	1
 1260              		.global	_ZN10MotorDrive14EncoderComputeEv
 1261              		.syntax unified
 1262              		.thumb
 1263              		.thumb_func
 1265              	_ZN10MotorDrive14EncoderComputeEv:
 1266              		.fnstart
 1267              	.LVL123:
 1268              	.LFB252:
  18:src/unit/motor_drive.cpp ****       if (*encoder_val_left_ != 0 && *encoder_val_right_ != 0) {
 1269              		.loc 1 18 35 is_stmt 1 view -0
 1270              		.cfi_startproc
 1271              		@ args = 0, pretend = 0, frame = 0
 1272              		@ frame_needed = 0, uses_anonymous_args = 0
  19:src/unit/motor_drive.cpp ****             // 最大値を求める
 1273              		.loc 1 19 7 view .LVU255
  19:src/unit/motor_drive.cpp ****             // 最大値を求める
 1274              		.loc 1 19 12 is_stmt 0 view .LVU256
 1275 0000 826D     		ldr	r2, [r0, #88]
  19:src/unit/motor_drive.cpp ****             // 最大値を求める
ARM GAS  /var/folders/5c/srt4fy4j1pd641bjfx75k5000000gn/T//ccMRDjtJ.s 			page 28


 1276              		.loc 1 19 11 view .LVU257
 1277 0002 1388     		ldrh	r3, [r2]
  19:src/unit/motor_drive.cpp ****             // 最大値を求める
 1278              		.loc 1 19 7 view .LVU258
 1279 0004 002B     		cmp	r3, #0
 1280 0006 47D0     		beq	.L110
  18:src/unit/motor_drive.cpp ****       if (*encoder_val_left_ != 0 && *encoder_val_right_ != 0) {
 1281              		.loc 1 18 35 discriminator 1 view .LVU259
 1282 0008 2DE9F041 		push	{r4, r5, r6, r7, r8, lr}
 1283              		.save {r4, r5, r6, r7, r8, lr}
 1284              	.LCFI11:
 1285              		.cfi_def_cfa_offset 24
 1286              		.cfi_offset 4, -24
 1287              		.cfi_offset 5, -20
 1288              		.cfi_offset 6, -16
 1289              		.cfi_offset 7, -12
 1290              		.cfi_offset 8, -8
 1291              		.cfi_offset 14, -4
 1292 000c 0446     		mov	r4, r0
  19:src/unit/motor_drive.cpp ****             // 最大値を求める
 1293              		.loc 1 19 39 discriminator 1 view .LVU260
 1294 000e C56D     		ldr	r5, [r0, #92]
  19:src/unit/motor_drive.cpp ****             // 最大値を求める
 1295              		.loc 1 19 38 discriminator 1 view .LVU261
 1296 0010 2988     		ldrh	r1, [r5]
  19:src/unit/motor_drive.cpp ****             // 最大値を求める
 1297              		.loc 1 19 35 discriminator 1 view .LVU262
 1298 0012 0029     		cmp	r1, #0
 1299 0014 3ED0     		beq	.L105
  21:src/unit/motor_drive.cpp ****             if (*encoder_val_right_ > encoder.max_val_right) encoder.max_val_right = *encoder_val_r
 1300              		.loc 1 21 13 is_stmt 1 view .LVU263
  21:src/unit/motor_drive.cpp ****             if (*encoder_val_right_ > encoder.max_val_right) encoder.max_val_right = *encoder_val_r
 1301              		.loc 1 21 46 is_stmt 0 view .LVU264
 1302 0016 B0F84010 		ldrh	r1, [r0, #64]
  21:src/unit/motor_drive.cpp ****             if (*encoder_val_right_ > encoder.max_val_right) encoder.max_val_right = *encoder_val_r
 1303              		.loc 1 21 13 view .LVU265
 1304 001a 8B42     		cmp	r3, r1
 1305 001c 01D9     		bls	.L107
  21:src/unit/motor_drive.cpp ****             if (*encoder_val_right_ > encoder.max_val_right) encoder.max_val_right = *encoder_val_r
 1306              		.loc 1 21 60 is_stmt 1 discriminator 1 view .LVU266
  21:src/unit/motor_drive.cpp ****             if (*encoder_val_right_ > encoder.max_val_right) encoder.max_val_right = *encoder_val_r
 1307              		.loc 1 21 81 is_stmt 0 discriminator 1 view .LVU267
 1308 001e A0F84030 		strh	r3, [r0, #64]	@ movhi
 1309              	.L107:
  22:src/unit/motor_drive.cpp ****             // radianに変換
 1310              		.loc 1 22 13 is_stmt 1 view .LVU268
  22:src/unit/motor_drive.cpp ****             // radianに変換
 1311              		.loc 1 22 17 is_stmt 0 view .LVU269
 1312 0022 2B88     		ldrh	r3, [r5]
  22:src/unit/motor_drive.cpp ****             // radianに変換
 1313              		.loc 1 22 47 view .LVU270
 1314 0024 B4F84210 		ldrh	r1, [r4, #66]
  22:src/unit/motor_drive.cpp ****             // radianに変換
 1315              		.loc 1 22 13 view .LVU271
 1316 0028 8B42     		cmp	r3, r1
 1317 002a 01D9     		bls	.L108
  22:src/unit/motor_drive.cpp ****             // radianに変換
ARM GAS  /var/folders/5c/srt4fy4j1pd641bjfx75k5000000gn/T//ccMRDjtJ.s 			page 29


 1318              		.loc 1 22 62 is_stmt 1 discriminator 1 view .LVU272
  22:src/unit/motor_drive.cpp ****             // radianに変換
 1319              		.loc 1 22 84 is_stmt 0 discriminator 1 view .LVU273
 1320 002c A4F84230 		strh	r3, [r4, #66]	@ movhi
 1321              	.L108:
  24:src/unit/motor_drive.cpp ****             encoder.rad_right = *encoder_val_right_ * (2 * PI / encoder.max_val_right);
 1322              		.loc 1 24 13 is_stmt 1 view .LVU274
  24:src/unit/motor_drive.cpp ****             encoder.rad_right = *encoder_val_right_ * (2 * PI / encoder.max_val_right);
 1323              		.loc 1 24 32 is_stmt 0 view .LVU275
 1324 0030 B2F80080 		ldrh	r8, [r2]
  24:src/unit/motor_drive.cpp ****             encoder.rad_right = *encoder_val_right_ * (2 * PI / encoder.max_val_right);
 1325              		.loc 1 24 61 view .LVU276
 1326 0034 B4F84000 		ldrh	r0, [r4, #64]
 1327              	.LVL124:
  24:src/unit/motor_drive.cpp ****             encoder.rad_right = *encoder_val_right_ * (2 * PI / encoder.max_val_right);
 1328              		.loc 1 24 61 view .LVU277
 1329 0038 FFF7FEFF 		bl	__aeabi_i2d
 1330              	.LVL125:
 1331 003c 0246     		mov	r2, r0
 1332 003e 0B46     		mov	r3, r1
 1333 0040 17A1     		adr	r1, .L113
 1334 0042 D1E90001 		ldrd	r0, [r1]
 1335 0046 FFF7FEFF 		bl	__aeabi_ddiv
 1336              	.LVL126:
 1337 004a 0646     		mov	r6, r0
 1338 004c 0F46     		mov	r7, r1
  24:src/unit/motor_drive.cpp ****             encoder.rad_right = *encoder_val_right_ * (2 * PI / encoder.max_val_right);
 1339              		.loc 1 24 51 view .LVU278
 1340 004e 4046     		mov	r0, r8
 1341 0050 FFF7FEFF 		bl	__aeabi_i2d
 1342              	.LVL127:
 1343 0054 3246     		mov	r2, r6
 1344 0056 3B46     		mov	r3, r7
 1345 0058 FFF7FEFF 		bl	__aeabi_dmul
 1346              	.LVL128:
  24:src/unit/motor_drive.cpp ****             encoder.rad_right = *encoder_val_right_ * (2 * PI / encoder.max_val_right);
 1347              		.loc 1 24 30 view .LVU279
 1348 005c C4E90801 		strd	r0, [r4, #32]
  25:src/unit/motor_drive.cpp ****             SpeedControl();
 1349              		.loc 1 25 13 is_stmt 1 view .LVU280
  25:src/unit/motor_drive.cpp ****             SpeedControl();
 1350              		.loc 1 25 33 is_stmt 0 view .LVU281
 1351 0060 2D88     		ldrh	r5, [r5]
  25:src/unit/motor_drive.cpp ****             SpeedControl();
 1352              		.loc 1 25 63 view .LVU282
 1353 0062 B4F84200 		ldrh	r0, [r4, #66]
 1354 0066 FFF7FEFF 		bl	__aeabi_i2d
 1355              	.LVL129:
 1356 006a 0246     		mov	r2, r0
 1357 006c 0B46     		mov	r3, r1
 1358 006e 0CA1     		adr	r1, .L113
 1359 0070 D1E90001 		ldrd	r0, [r1]
 1360 0074 FFF7FEFF 		bl	__aeabi_ddiv
 1361              	.LVL130:
 1362 0078 0646     		mov	r6, r0
 1363 007a 0F46     		mov	r7, r1
  25:src/unit/motor_drive.cpp ****             SpeedControl();
ARM GAS  /var/folders/5c/srt4fy4j1pd641bjfx75k5000000gn/T//ccMRDjtJ.s 			page 30


 1364              		.loc 1 25 53 view .LVU283
 1365 007c 2846     		mov	r0, r5
 1366 007e FFF7FEFF 		bl	__aeabi_i2d
 1367              	.LVL131:
 1368 0082 3246     		mov	r2, r6
 1369 0084 3B46     		mov	r3, r7
 1370 0086 FFF7FEFF 		bl	__aeabi_dmul
 1371              	.LVL132:
  25:src/unit/motor_drive.cpp ****             SpeedControl();
 1372              		.loc 1 25 31 view .LVU284
 1373 008a C4E90A01 		strd	r0, [r4, #40]
  26:src/unit/motor_drive.cpp ****       }
 1374              		.loc 1 26 13 is_stmt 1 view .LVU285
  26:src/unit/motor_drive.cpp ****       }
 1375              		.loc 1 26 25 is_stmt 0 view .LVU286
 1376 008e 2046     		mov	r0, r4
 1377 0090 FFF7FEFF 		bl	_ZN10MotorDrive12SpeedControlEv
 1378              	.LVL133:
 1379              	.L105:
  28:src/unit/motor_drive.cpp **** 
 1380              		.loc 1 28 1 view .LVU287
 1381 0094 BDE8F081 		pop	{r4, r5, r6, r7, r8, pc}
 1382              	.LVL134:
 1383              	.L110:
 1384              	.LCFI12:
 1385              		.cfi_def_cfa_offset 0
 1386              		.cfi_restore 4
 1387              		.cfi_restore 5
 1388              		.cfi_restore 6
 1389              		.cfi_restore 7
 1390              		.cfi_restore 8
 1391              		.cfi_restore 14
  28:src/unit/motor_drive.cpp **** 
 1392              		.loc 1 28 1 view .LVU288
 1393 0098 7047     		bx	lr
 1394              	.L114:
 1395 009a 00BFAFF3 		.align	3
 1395      0080
 1396              	.L113:
 1397 00a0 182D4454 		.word	1413754136
 1398 00a4 FB211940 		.word	1075388923
 1399              		.cfi_endproc
 1400              	.LFE252:
 1401              		.fnend
 1403              		.section	.text._ZN10MotorDrive5DriveEss,"ax",%progbits
 1404              		.align	1
 1405              		.global	_ZN10MotorDrive5DriveEss
 1406              		.syntax unified
 1407              		.thumb
 1408              		.thumb_func
 1410              	_ZN10MotorDrive5DriveEss:
 1411              		.fnstart
 1412              	.LVL135:
 1413              	.LFB255:
 105:src/unit/motor_drive.cpp **** 
 106:src/unit/motor_drive.cpp **** void MotorDrive::Drive(int16_t left, int16_t right) {
 1414              		.loc 1 106 53 is_stmt 1 view -0
ARM GAS  /var/folders/5c/srt4fy4j1pd641bjfx75k5000000gn/T//ccMRDjtJ.s 			page 31


 1415              		.cfi_startproc
 1416              		@ args = 0, pretend = 0, frame = 0
 1417              		@ frame_needed = 0, uses_anonymous_args = 0
 1418              		@ link register save eliminated.
 107:src/unit/motor_drive.cpp ****       speed_left_ = left;
 1419              		.loc 1 107 7 view .LVU290
 1420              		.loc 1 107 19 is_stmt 0 view .LVU291
 1421 0000 A0F86410 		strh	r1, [r0, #100]	@ movhi
 108:src/unit/motor_drive.cpp ****       speed_right_ = right;
 1422              		.loc 1 108 7 is_stmt 1 view .LVU292
 1423              		.loc 1 108 20 is_stmt 0 view .LVU293
 1424 0004 A0F86620 		strh	r2, [r0, #102]	@ movhi
 109:src/unit/motor_drive.cpp ****       // スピードの範囲保証
 110:src/unit/motor_drive.cpp ****       if (abs(speed_left_) > MAX_POWER) speed_left_ = MAX_POWER * (abs(speed_left_) / speed_left_);
 1425              		.loc 1 110 7 is_stmt 1 view .LVU294
 1426              		.loc 1 110 11 is_stmt 0 view .LVU295
 1427 0008 81EAE173 		eor	r3, r1, r1, asr #31
 1428 000c A3EBE173 		sub	r3, r3, r1, asr #31
 1429 0010 9BB2     		uxth	r3, r3
 1430              		.loc 1 110 7 view .LVU296
 1431 0012 B3F5167F 		cmp	r3, #600
 1432 0016 08D9     		bls	.L116
 1433              		.loc 1 110 41 is_stmt 1 discriminator 1 view .LVU297
 1434              		.loc 1 110 85 is_stmt 0 discriminator 1 view .LVU298
 1435 0018 93FBF1F3 		sdiv	r3, r3, r1
 1436              		.loc 1 110 53 discriminator 1 view .LVU299
 1437 001c 03EB8303 		add	r3, r3, r3, lsl #2
 1438 0020 C3EB0313 		rsb	r3, r3, r3, lsl #4
 1439 0024 DB00     		lsls	r3, r3, #3
 1440 0026 A0F86430 		strh	r3, [r0, #100]	@ movhi
 1441              	.L116:
 111:src/unit/motor_drive.cpp ****       if (abs(speed_right_) > MAX_POWER) speed_right_ = MAX_POWER * (abs(speed_right_) / speed_righ
 1442              		.loc 1 111 7 is_stmt 1 view .LVU300
 1443              		.loc 1 111 11 is_stmt 0 view .LVU301
 1444 002a 82EAE273 		eor	r3, r2, r2, asr #31
 1445 002e A3EBE273 		sub	r3, r3, r2, asr #31
 1446 0032 9BB2     		uxth	r3, r3
 1447              		.loc 1 111 7 view .LVU302
 1448 0034 B3F5167F 		cmp	r3, #600
 1449 0038 08D9     		bls	.L115
 1450              		.loc 1 111 42 is_stmt 1 discriminator 1 view .LVU303
 1451              		.loc 1 111 88 is_stmt 0 discriminator 1 view .LVU304
 1452 003a 93FBF2F3 		sdiv	r3, r3, r2
 1453              		.loc 1 111 55 discriminator 1 view .LVU305
 1454 003e 03EB8303 		add	r3, r3, r3, lsl #2
 1455 0042 C3EB0313 		rsb	r3, r3, r3, lsl #4
 1456 0046 DB00     		lsls	r3, r3, #3
 1457 0048 A0F86630 		strh	r3, [r0, #102]	@ movhi
 1458              	.L115:
 112:src/unit/motor_drive.cpp **** }
 1459              		.loc 1 112 1 view .LVU306
 1460 004c 7047     		bx	lr
 1461              		.cfi_endproc
 1462              	.LFE255:
 1463              		.cantunwind
 1464              		.fnend
 1466              		.section	.text._ZN10MotorDrive5BrakeEv,"ax",%progbits
ARM GAS  /var/folders/5c/srt4fy4j1pd641bjfx75k5000000gn/T//ccMRDjtJ.s 			page 32


 1467              		.align	1
 1468              		.global	_ZN10MotorDrive5BrakeEv
 1469              		.syntax unified
 1470              		.thumb
 1471              		.thumb_func
 1473              	_ZN10MotorDrive5BrakeEv:
 1474              		.fnstart
 1475              	.LVL136:
 1476              	.LFB256:
 113:src/unit/motor_drive.cpp **** 
 114:src/unit/motor_drive.cpp **** void MotorDrive::Brake() {
 1477              		.loc 1 114 26 is_stmt 1 view -0
 1478              		.cfi_startproc
 1479              		@ args = 0, pretend = 0, frame = 0
 1480              		@ frame_needed = 0, uses_anonymous_args = 0
 1481              		.loc 1 114 26 is_stmt 0 view .LVU308
 1482 0000 10B5     		push	{r4, lr}
 1483              	.LCFI13:
 1484              		.cfi_def_cfa_offset 8
 1485              		.cfi_offset 4, -8
 1486              		.cfi_offset 14, -4
 1487 0002 0446     		mov	r4, r0
 115:src/unit/motor_drive.cpp ****       motor1a_->write(1);
 1488              		.loc 1 115 7 is_stmt 1 view .LVU309
 1489              		.loc 1 115 22 is_stmt 0 view .LVU310
 1490 0004 B7EE000A 		vmov.f32	s0, #1.0e+0
 1491 0008 806C     		ldr	r0, [r0, #72]
 1492              	.LVL137:
 1493              		.loc 1 115 22 view .LVU311
 1494 000a FFF7FEFF 		bl	_ZN12PwmSingleOut5writeEf
 1495              	.LVL138:
 116:src/unit/motor_drive.cpp ****       motor1b_->write(1);
 1496              		.loc 1 116 7 is_stmt 1 view .LVU312
 1497              		.loc 1 116 22 is_stmt 0 view .LVU313
 1498 000e B7EE000A 		vmov.f32	s0, #1.0e+0
 1499 0012 E06C     		ldr	r0, [r4, #76]
 1500 0014 FFF7FEFF 		bl	_ZN12PwmSingleOut5writeEf
 1501              	.LVL139:
 117:src/unit/motor_drive.cpp ****       motor2a_->write(1);
 1502              		.loc 1 117 7 is_stmt 1 view .LVU314
 1503              		.loc 1 117 22 is_stmt 0 view .LVU315
 1504 0018 B7EE000A 		vmov.f32	s0, #1.0e+0
 1505 001c 206D     		ldr	r0, [r4, #80]
 1506 001e FFF7FEFF 		bl	_ZN12PwmSingleOut5writeEf
 1507              	.LVL140:
 118:src/unit/motor_drive.cpp ****       motor2b_->write(1);
 1508              		.loc 1 118 7 is_stmt 1 view .LVU316
 1509              		.loc 1 118 22 is_stmt 0 view .LVU317
 1510 0022 B7EE000A 		vmov.f32	s0, #1.0e+0
 1511 0026 606D     		ldr	r0, [r4, #84]
 1512 0028 FFF7FEFF 		bl	_ZN12PwmSingleOut5writeEf
 1513              	.LVL141:
 119:src/unit/motor_drive.cpp **** }...
 1514              		.loc 1 119 1 view .LVU318
 1515 002c 10BD     		pop	{r4, pc}
 1516              		.loc 1 119 1 view .LVU319
 1517              		.cfi_endproc
ARM GAS  /var/folders/5c/srt4fy4j1pd641bjfx75k5000000gn/T//ccMRDjtJ.s 			page 33


 1518              	.LFE256:
 1519              		.cantunwind
 1520              		.fnend
 1522              		.text
 1523              	.Letext0:
 1524              		.file 3 "/opt/ST/STM32CubeCLT_1.16.0/GNU-tools-for-STM32/arm-none-eabi/include/c++/12.3.1/cstdio"
 1525              		.file 4 "/opt/ST/STM32CubeCLT_1.16.0/GNU-tools-for-STM32/arm-none-eabi/include/c++/12.3.1/arm-none
 1526              		.file 5 "/opt/ST/STM32CubeCLT_1.16.0/GNU-tools-for-STM32/arm-none-eabi/include/machine/_default_ty
 1527              		.file 6 "/opt/ST/STM32CubeCLT_1.16.0/GNU-tools-for-STM32/lib/gcc/arm-none-eabi/12.3.1/include/stdd
 1528              		.file 7 "/opt/ST/STM32CubeCLT_1.16.0/GNU-tools-for-STM32/arm-none-eabi/include/sys/_types.h"
 1529              		.file 8 "/opt/ST/STM32CubeCLT_1.16.0/GNU-tools-for-STM32/arm-none-eabi/include/sys/reent.h"
 1530              		.file 9 "/opt/ST/STM32CubeCLT_1.16.0/GNU-tools-for-STM32/arm-none-eabi/include/sys/lock.h"
 1531              		.file 10 "/opt/ST/STM32CubeCLT_1.16.0/GNU-tools-for-STM32/arm-none-eabi/include/stdio.h"
 1532              		.file 11 "/opt/ST/STM32CubeCLT_1.16.0/GNU-tools-for-STM32/arm-none-eabi/include/sys/_stdint.h"
 1533              		.file 12 "Drivers/CMSIS/Device/ST/STM32F4xx/Include/stm32f446xx.h"
 1534              		.file 13 "Drivers/STM32F4xx_HAL_Driver/Inc/stm32f4xx_hal_def.h"
 1535              		.file 14 "Drivers/STM32F4xx_HAL_Driver/Inc/stm32f4xx_hal_dma.h"
 1536              		.file 15 "Drivers/STM32F4xx_HAL_Driver/Inc/stm32f4xx_hal_tim.h"
 1537              		.file 16 "Lib/Timer/Timer.hpp"
 1538              		.file 17 "src/unit/motor_drive.hpp"
ARM GAS  /var/folders/5c/srt4fy4j1pd641bjfx75k5000000gn/T//ccMRDjtJ.s 			page 34

