ARM GAS  /var/folders/5c/srt4fy4j1pd641bjfx75k5000000gn/T//ccIGW0IF.s 			page 1


   1              		.cpu cortex-m4
   2              		.arch armv7e-m
   3              		.fpu fpv4-sp-d16
   4              		.eabi_attribute 27, 1
   5              		.eabi_attribute 28, 1
   6              		.eabi_attribute 20, 1
   7              		.eabi_attribute 21, 1
   8              		.eabi_attribute 23, 3
   9              		.eabi_attribute 24, 1
  10              		.eabi_attribute 25, 1
  11              		.eabi_attribute 26, 1
  12              		.eabi_attribute 30, 1
  13              		.eabi_attribute 34, 1
  14              		.eabi_attribute 18, 4
  15              		.file	"motorDrive.cpp"
  16              		.text
  17              	.Ltext0:
  18              		.cfi_sections	.debug_frame
  19              		.file 1 "src/unit/motorDrive.cpp"
  20              		.section	.text._ZN12PwmSingleOut4initEv,"axG",%progbits,_ZN12PwmSingleOut4initEv,comdat
  21              		.align	1
  22              		.weak	_ZN12PwmSingleOut4initEv
  23              		.syntax unified
  24              		.thumb
  25              		.thumb_func
  27              	_ZN12PwmSingleOut4initEv:
  28              		.fnstart
  29              	.LVL0:
  30              	.LFB245:
  31              		.file 2 "Lib/PWMSingle/PWMSingle.hpp"
   1:Lib/PWMSingle/PWMSingle.hpp **** #ifndef __PWMSINGLE__
   2:Lib/PWMSingle/PWMSingle.hpp **** #define __PWMSINGLE__
   3:Lib/PWMSingle/PWMSingle.hpp **** 
   4:Lib/PWMSingle/PWMSingle.hpp **** #include "MyMath.hpp"
   5:Lib/PWMSingle/PWMSingle.hpp **** #include "tim.h"
   6:Lib/PWMSingle/PWMSingle.hpp **** 
   7:Lib/PWMSingle/PWMSingle.hpp **** #ifdef __cplusplus
   8:Lib/PWMSingle/PWMSingle.hpp **** extern "C" {
   9:Lib/PWMSingle/PWMSingle.hpp **** 
  10:Lib/PWMSingle/PWMSingle.hpp **** class PwmSingleOut {
  11:Lib/PWMSingle/PWMSingle.hpp ****      public:
  12:Lib/PWMSingle/PWMSingle.hpp ****       PwmSingleOut(TIM_HandleTypeDef *htim, uint32_t channel)
  13:Lib/PWMSingle/PWMSingle.hpp ****           : _htim(htim), _channel(channel), _maxValue(_htim->Init.Period) {
  14:Lib/PWMSingle/PWMSingle.hpp ****       }
  15:Lib/PWMSingle/PWMSingle.hpp **** 
  16:Lib/PWMSingle/PWMSingle.hpp ****       void init() {
  32              		.loc 2 16 12 view -0
  33              		.cfi_startproc
  34              		@ args = 0, pretend = 0, frame = 0
  35              		@ frame_needed = 0, uses_anonymous_args = 0
  36              		.loc 2 16 12 is_stmt 0 view .LVU1
  37 0000 10B5     		push	{r4, lr}
  38              		.save {r4, lr}
  39              	.LCFI0:
  40              		.cfi_def_cfa_offset 8
  41              		.cfi_offset 4, -8
  42              		.cfi_offset 14, -4
ARM GAS  /var/folders/5c/srt4fy4j1pd641bjfx75k5000000gn/T//ccIGW0IF.s 			page 2


  43 0002 0446     		mov	r4, r0
  17:Lib/PWMSingle/PWMSingle.hpp ****             HAL_TIM_PWM_Start(_htim, _channel);
  44              		.loc 2 17 13 is_stmt 1 view .LVU2
  45              		.loc 2 17 30 is_stmt 0 view .LVU3
  46 0004 4168     		ldr	r1, [r0, #4]
  47 0006 0068     		ldr	r0, [r0]
  48              	.LVL1:
  49              		.loc 2 17 30 view .LVU4
  50 0008 FFF7FEFF 		bl	HAL_TIM_PWM_Start
  51              	.LVL2:
  18:Lib/PWMSingle/PWMSingle.hpp ****             _maxValue = _htim->Init.Period;
  52              		.loc 2 18 13 is_stmt 1 view .LVU5
  53              		.loc 2 18 25 is_stmt 0 view .LVU6
  54 000c 2368     		ldr	r3, [r4]
  55              		.loc 2 18 37 view .LVU7
  56 000e DB68     		ldr	r3, [r3, #12]
  57              		.loc 2 18 23 view .LVU8
  58 0010 A360     		str	r3, [r4, #8]
  19:Lib/PWMSingle/PWMSingle.hpp ****       }
  59              		.loc 2 19 7 view .LVU9
  60 0012 10BD     		pop	{r4, pc}
  61              		.loc 2 19 7 view .LVU10
  62              		.cfi_endproc
  63              	.LFE245:
  64              		.fnend
  66              		.global	__aeabi_f2d
  67              		.global	__aeabi_ui2d
  68              		.global	__aeabi_dmul
  69              		.global	__aeabi_d2iz
  70              		.section	.text._ZN12PwmSingleOut5writeEf,"axG",%progbits,_ZN12PwmSingleOut5writeEf,comdat
  71              		.align	1
  72              		.weak	_ZN12PwmSingleOut5writeEf
  73              		.syntax unified
  74              		.thumb
  75              		.thumb_func
  77              	_ZN12PwmSingleOut5writeEf:
  78              		.fnstart
  79              	.LVL3:
  80              	.LFB246:
  20:Lib/PWMSingle/PWMSingle.hpp **** 
  21:Lib/PWMSingle/PWMSingle.hpp ****       void write(float duty) {
  81              		.loc 2 21 12 is_stmt 1 view -0
  82              		.cfi_startproc
  83              		@ args = 0, pretend = 0, frame = 0
  84              		@ frame_needed = 0, uses_anonymous_args = 0
  85              		.loc 2 21 12 is_stmt 0 view .LVU12
  86 0000 D0B5     		push	{r4, r6, r7, lr}
  87              	.LCFI1:
  88              		.cfi_def_cfa_offset 16
  89              		.cfi_offset 4, -16
  90              		.cfi_offset 6, -12
  91              		.cfi_offset 7, -8
  92              		.cfi_offset 14, -4
  93 0002 0446     		mov	r4, r0
  22:Lib/PWMSingle/PWMSingle.hpp ****             duty = (int)(Constrain(duty, 0.0, 1.0) * _maxValue);
  94              		.loc 2 22 13 is_stmt 1 view .LVU13
  95              		.loc 2 22 26 is_stmt 0 view .LVU14
ARM GAS  /var/folders/5c/srt4fy4j1pd641bjfx75k5000000gn/T//ccIGW0IF.s 			page 3


  96 0004 B5EEC00A 		vcmpe.f32	s0, #0
  97 0008 F1EE10FA 		vmrs	APSR_nzcv, FPSCR
  98 000c 10D4     		bmi	.L9
  99              		.loc 2 22 26 discriminator 2 view .LVU15
 100 000e F7EE007A 		vmov.f32	s15, #1.0e+0
 101 0012 B4EEE70A 		vcmpe.f32	s0, s15
 102 0016 F1EE10FA 		vmrs	APSR_nzcv, FPSCR
 103 001a 02DD     		ble	.L12
 104              		.loc 2 22 26 view .LVU16
 105 001c 0026     		movs	r6, #0
 106 001e 1D4F     		ldr	r7, .L15
 107 0020 08E0     		b	.L4
 108              	.L12:
 109              		.loc 2 22 26 discriminator 5 view .LVU17
 110 0022 10EE100A 		vmov	r0, s0
 111              	.LVL4:
 112              		.loc 2 22 26 discriminator 5 view .LVU18
 113 0026 FFF7FEFF 		bl	__aeabi_f2d
 114              	.LVL5:
 115              		.loc 2 22 26 discriminator 5 view .LVU19
 116 002a 0646     		mov	r6, r0
 117 002c 0F46     		mov	r7, r1
 118 002e 01E0     		b	.L4
 119              	.LVL6:
 120              	.L9:
 121              		.loc 2 22 26 view .LVU20
 122 0030 0026     		movs	r6, #0
 123 0032 0027     		movs	r7, #0
 124              	.LVL7:
 125              	.L4:
 126              		.loc 2 22 52 discriminator 8 view .LVU21
 127 0034 A068     		ldr	r0, [r4, #8]
 128 0036 FFF7FEFF 		bl	__aeabi_ui2d
 129              	.LVL8:
 130 003a 3246     		mov	r2, r6
 131 003c 3B46     		mov	r3, r7
 132 003e FFF7FEFF 		bl	__aeabi_dmul
 133              	.LVL9:
 134              		.loc 2 22 20 discriminator 8 view .LVU22
 135 0042 FFF7FEFF 		bl	__aeabi_d2iz
 136              	.LVL10:
 137 0046 07EE900A 		vmov	s15, r0	@ int
 138              		.loc 2 22 18 discriminator 8 view .LVU23
 139 004a F8EEE77A 		vcvt.f32.s32	s15, s15
 140              	.LVL11:
  23:Lib/PWMSingle/PWMSingle.hpp ****             __HAL_TIM_SET_COMPARE(_htim, _channel, duty);
 141              		.loc 2 23 13 is_stmt 1 discriminator 8 view .LVU24
 142 004e 6368     		ldr	r3, [r4, #4]
 143 0050 33B9     		cbnz	r3, .L5
 144              		.loc 2 23 13 is_stmt 0 discriminator 1 view .LVU25
 145 0052 2368     		ldr	r3, [r4]
 146 0054 1B68     		ldr	r3, [r3]
 147 0056 FCEEE77A 		vcvt.u32.f32	s15, s15
 148              	.LVL12:
 149              		.loc 2 23 13 discriminator 1 view .LVU26
 150 005a C3ED0D7A 		vstr.32	s15, [r3, #52]	@ int
 151              	.L3:
ARM GAS  /var/folders/5c/srt4fy4j1pd641bjfx75k5000000gn/T//ccIGW0IF.s 			page 4


  24:Lib/PWMSingle/PWMSingle.hpp ****       }
 152              		.loc 2 24 7 view .LVU27
 153 005e D0BD     		pop	{r4, r6, r7, pc}
 154              	.LVL13:
 155              	.L5:
  23:Lib/PWMSingle/PWMSingle.hpp ****             __HAL_TIM_SET_COMPARE(_htim, _channel, duty);
 156              		.loc 2 23 13 discriminator 2 view .LVU28
 157 0060 042B     		cmp	r3, #4
 158 0062 08D0     		beq	.L13
  23:Lib/PWMSingle/PWMSingle.hpp ****             __HAL_TIM_SET_COMPARE(_htim, _channel, duty);
 159              		.loc 2 23 13 discriminator 4 view .LVU29
 160 0064 082B     		cmp	r3, #8
 161 0066 0DD0     		beq	.L14
  23:Lib/PWMSingle/PWMSingle.hpp ****             __HAL_TIM_SET_COMPARE(_htim, _channel, duty);
 162              		.loc 2 23 13 discriminator 6 view .LVU30
 163 0068 2368     		ldr	r3, [r4]
 164 006a 1B68     		ldr	r3, [r3]
 165 006c FCEEE77A 		vcvt.u32.f32	s15, s15
 166              	.LVL14:
  23:Lib/PWMSingle/PWMSingle.hpp ****             __HAL_TIM_SET_COMPARE(_htim, _channel, duty);
 167              		.loc 2 23 13 discriminator 6 view .LVU31
 168 0070 C3ED107A 		vstr.32	s15, [r3, #64]	@ int
 169              		.loc 2 24 7 discriminator 6 view .LVU32
 170 0074 F3E7     		b	.L3
 171              	.LVL15:
 172              	.L13:
  23:Lib/PWMSingle/PWMSingle.hpp ****             __HAL_TIM_SET_COMPARE(_htim, _channel, duty);
 173              		.loc 2 23 13 discriminator 3 view .LVU33
 174 0076 2368     		ldr	r3, [r4]
 175 0078 1B68     		ldr	r3, [r3]
 176 007a FCEEE77A 		vcvt.u32.f32	s15, s15
 177              	.LVL16:
  23:Lib/PWMSingle/PWMSingle.hpp ****             __HAL_TIM_SET_COMPARE(_htim, _channel, duty);
 178              		.loc 2 23 13 discriminator 3 view .LVU34
 179 007e C3ED0E7A 		vstr.32	s15, [r3, #56]	@ int
 180 0082 ECE7     		b	.L3
 181              	.LVL17:
 182              	.L14:
  23:Lib/PWMSingle/PWMSingle.hpp ****             __HAL_TIM_SET_COMPARE(_htim, _channel, duty);
 183              		.loc 2 23 13 discriminator 5 view .LVU35
 184 0084 2368     		ldr	r3, [r4]
 185 0086 1B68     		ldr	r3, [r3]
 186 0088 FCEEE77A 		vcvt.u32.f32	s15, s15
 187              	.LVL18:
  23:Lib/PWMSingle/PWMSingle.hpp ****             __HAL_TIM_SET_COMPARE(_htim, _channel, duty);
 188              		.loc 2 23 13 discriminator 5 view .LVU36
 189 008c C3ED0F7A 		vstr.32	s15, [r3, #60]	@ int
 190 0090 E5E7     		b	.L3
 191              	.L16:
 192 0092 00BF     		.align	2
 193              	.L15:
 194 0094 0000F03F 		.word	1072693248
 195              		.cfi_endproc
 196              	.LFE246:
 197              		.cantunwind
 198              		.fnend
 200              		.section	.text._ZN10MotorDriveC2EP12PwmSingleOutS1_S1_S1_PtS2_,"ax",%progbits
ARM GAS  /var/folders/5c/srt4fy4j1pd641bjfx75k5000000gn/T//ccIGW0IF.s 			page 5


 201              		.align	1
 202              		.global	_ZN10MotorDriveC2EP12PwmSingleOutS1_S1_S1_PtS2_
 203              		.syntax unified
 204              		.thumb
 205              		.thumb_func
 207              	_ZN10MotorDriveC2EP12PwmSingleOutS1_S1_S1_PtS2_:
 208              		.fnstart
 209              	.LVL19:
 210              	.LFB249:
   1:src/unit/motorDrive.cpp **** #include "motorDrive.hpp"
   2:src/unit/motorDrive.cpp **** 
   3:src/unit/motorDrive.cpp **** MotorDrive::MotorDrive(PwmSingleOut *motor1a, PwmSingleOut *motor1b, PwmSingleOut *motor2a, PwmSing
 211              		.loc 1 3 1 is_stmt 1 view -0
 212              		.cfi_startproc
 213              		@ args = 12, pretend = 0, frame = 0
 214              		@ frame_needed = 0, uses_anonymous_args = 0
 215              		.loc 1 3 1 is_stmt 0 view .LVU38
 216 0000 10B5     		push	{r4, lr}
 217              		.save {r4, lr}
 218              	.LCFI2:
 219              		.cfi_def_cfa_offset 8
 220              		.cfi_offset 4, -8
 221              		.cfi_offset 14, -4
 222 0002 0446     		mov	r4, r0
 223              	.LBB2:
   4:src/unit/motorDrive.cpp ****     : _motor1a(motor1a), _motor1b(motor1b), _motor2a(motor2a), _motor2b(motor2b) {
 224              		.loc 1 4 7 view .LVU39
 225 0004 8160     		str	r1, [r0, #8]
 226              		.loc 1 4 26 view .LVU40
 227 0006 C260     		str	r2, [r0, #12]
 228              		.loc 1 4 45 view .LVU41
 229 0008 0361     		str	r3, [r0, #16]
 230              		.loc 1 4 64 view .LVU42
 231 000a 029B     		ldr	r3, [sp, #8]
 232              	.LVL20:
 233              		.loc 1 4 64 view .LVU43
 234 000c 4361     		str	r3, [r0, #20]
 235              		.loc 1 4 80 view .LVU44
 236 000e 2030     		adds	r0, r0, #32
 237              	.LVL21:
 238              		.loc 1 4 80 view .LVU45
 239 0010 FFF7FEFF 		bl	_ZN5TimerC1Ev
 240              	.LVL22:
   5:src/unit/motorDrive.cpp ****       this->_encoderValLeft = encoderValLeft;
 241              		.loc 1 5 7 is_stmt 1 view .LVU46
 242              		.loc 1 5 29 is_stmt 0 view .LVU47
 243 0014 039B     		ldr	r3, [sp, #12]
 244 0016 A361     		str	r3, [r4, #24]
   6:src/unit/motorDrive.cpp ****       this->_encoderValRight = encoderValRight;
 245              		.loc 1 6 7 is_stmt 1 view .LVU48
 246              		.loc 1 6 30 is_stmt 0 view .LVU49
 247 0018 049B     		ldr	r3, [sp, #16]
 248 001a E361     		str	r3, [r4, #28]
 249              	.LBE2:
   7:src/unit/motorDrive.cpp **** }
 250              		.loc 1 7 1 view .LVU50
 251 001c 2046     		mov	r0, r4
ARM GAS  /var/folders/5c/srt4fy4j1pd641bjfx75k5000000gn/T//ccIGW0IF.s 			page 6


 252 001e 10BD     		pop	{r4, pc}
 253              		.loc 1 7 1 view .LVU51
 254              		.cfi_endproc
 255              	.LFE249:
 256              		.fnend
 258              		.global	_ZN10MotorDriveC1EP12PwmSingleOutS1_S1_S1_PtS2_
 259              		.thumb_set _ZN10MotorDriveC1EP12PwmSingleOutS1_S1_S1_PtS2_,_ZN10MotorDriveC2EP12PwmSingleOutS1_S1_
 260              		.section	.text._ZN10MotorDrive4initEv,"ax",%progbits
 261              		.align	1
 262              		.global	_ZN10MotorDrive4initEv
 263              		.syntax unified
 264              		.thumb
 265              		.thumb_func
 267              	_ZN10MotorDrive4initEv:
 268              		.fnstart
 269              	.LVL23:
 270              	.LFB251:
   8:src/unit/motorDrive.cpp **** 
   9:src/unit/motorDrive.cpp **** void MotorDrive::init() {
 271              		.loc 1 9 25 is_stmt 1 view -0
 272              		.cfi_startproc
 273              		@ args = 0, pretend = 0, frame = 0
 274              		@ frame_needed = 0, uses_anonymous_args = 0
 275              		.loc 1 9 25 is_stmt 0 view .LVU53
 276 0000 10B5     		push	{r4, lr}
 277              		.save {r4, lr}
 278              	.LCFI3:
 279              		.cfi_def_cfa_offset 8
 280              		.cfi_offset 4, -8
 281              		.cfi_offset 14, -4
 282 0002 0446     		mov	r4, r0
  10:src/unit/motorDrive.cpp ****       _motor1a->init();
 283              		.loc 1 10 7 is_stmt 1 view .LVU54
 284              		.loc 1 10 21 is_stmt 0 view .LVU55
 285 0004 8068     		ldr	r0, [r0, #8]
 286              	.LVL24:
 287              		.loc 1 10 21 view .LVU56
 288 0006 FFF7FEFF 		bl	_ZN12PwmSingleOut4initEv
 289              	.LVL25:
  11:src/unit/motorDrive.cpp ****       _motor1b->init();
 290              		.loc 1 11 7 is_stmt 1 view .LVU57
 291              		.loc 1 11 21 is_stmt 0 view .LVU58
 292 000a E068     		ldr	r0, [r4, #12]
 293 000c FFF7FEFF 		bl	_ZN12PwmSingleOut4initEv
 294              	.LVL26:
  12:src/unit/motorDrive.cpp ****       _motor2a->init();
 295              		.loc 1 12 7 is_stmt 1 view .LVU59
 296              		.loc 1 12 21 is_stmt 0 view .LVU60
 297 0010 2069     		ldr	r0, [r4, #16]
 298 0012 FFF7FEFF 		bl	_ZN12PwmSingleOut4initEv
 299              	.LVL27:
  13:src/unit/motorDrive.cpp ****       _motor2b->init();
 300              		.loc 1 13 7 is_stmt 1 view .LVU61
 301              		.loc 1 13 21 is_stmt 0 view .LVU62
 302 0016 6069     		ldr	r0, [r4, #20]
 303 0018 FFF7FEFF 		bl	_ZN12PwmSingleOut4initEv
 304              	.LVL28:
ARM GAS  /var/folders/5c/srt4fy4j1pd641bjfx75k5000000gn/T//ccIGW0IF.s 			page 7


  14:src/unit/motorDrive.cpp **** }
 305              		.loc 1 14 1 view .LVU63
 306 001c 10BD     		pop	{r4, pc}
 307              		.loc 1 14 1 view .LVU64
 308              		.cfi_endproc
 309              	.LFE251:
 310              		.fnend
 312              		.global	__aeabi_i2d
 313              		.global	__aeabi_ddiv
 314              		.global	__aeabi_d2f
 315              		.global	__aeabi_dcmpgt
 316              		.global	__aeabi_dsub
 317              		.section	.text._ZN10MotorDrive14encoderComputeEv,"ax",%progbits
 318              		.align	1
 319              		.global	_ZN10MotorDrive14encoderComputeEv
 320              		.syntax unified
 321              		.thumb
 322              		.thumb_func
 324              	_ZN10MotorDrive14encoderComputeEv:
 325              		.fnstart
 326              	.LVL29:
 327              	.LFB252:
  15:src/unit/motorDrive.cpp **** 
  16:src/unit/motorDrive.cpp **** void MotorDrive::encoderCompute() {
 328              		.loc 1 16 35 is_stmt 1 view -0
 329              		.cfi_startproc
 330              		@ args = 0, pretend = 0, frame = 0
 331              		@ frame_needed = 0, uses_anonymous_args = 0
 332              		.loc 1 16 35 is_stmt 0 view .LVU66
 333 0000 2DE9D043 		push	{r4, r6, r7, r8, r9, lr}
 334              		.save {r4, r6, r7, r8, r9, lr}
 335              	.LCFI4:
 336              		.cfi_def_cfa_offset 24
 337              		.cfi_offset 4, -24
 338              		.cfi_offset 6, -20
 339              		.cfi_offset 7, -16
 340              		.cfi_offset 8, -12
 341              		.cfi_offset 9, -8
 342              		.cfi_offset 14, -4
 343 0004 2DED028B 		vpush.64	{d8}
 344              		.vsave {d8}
 345              	.LCFI5:
 346              		.cfi_def_cfa_offset 32
 347              		.cfi_offset 80, -32
 348              		.cfi_offset 81, -28
 349 0008 0446     		mov	r4, r0
  17:src/unit/motorDrive.cpp ****       if (*_encoderValLeft > encoderMaxValLeft) encoderMaxValLeft = *_encoderValLeft;
 350              		.loc 1 17 7 is_stmt 1 view .LVU67
 351              		.loc 1 17 12 is_stmt 0 view .LVU68
 352 000a 8369     		ldr	r3, [r0, #24]
 353              		.loc 1 17 11 view .LVU69
 354 000c 1A88     		ldrh	r2, [r3]
 355              		.loc 1 17 30 view .LVU70
 356 000e 818F     		ldrh	r1, [r0, #60]
 357              		.loc 1 17 7 view .LVU71
 358 0010 8A42     		cmp	r2, r1
 359 0012 00D9     		bls	.L22
ARM GAS  /var/folders/5c/srt4fy4j1pd641bjfx75k5000000gn/T//ccIGW0IF.s 			page 8


 360              		.loc 1 17 49 is_stmt 1 discriminator 1 view .LVU72
 361              		.loc 1 17 67 is_stmt 0 discriminator 1 view .LVU73
 362 0014 8287     		strh	r2, [r0, #60]	@ movhi
 363              	.L22:
  18:src/unit/motorDrive.cpp ****       encoderDegreeLeft = *_encoderValLeft * (2 * PI / encoderMaxValLeft);
 364              		.loc 1 18 7 is_stmt 1 view .LVU74
 365              		.loc 1 18 27 is_stmt 0 view .LVU75
 366 0016 B3F80080 		ldrh	r8, [r3]
 367              		.loc 1 18 54 view .LVU76
 368 001a A08F     		ldrh	r0, [r4, #60]
 369              	.LVL30:
 370              		.loc 1 18 54 view .LVU77
 371 001c FFF7FEFF 		bl	__aeabi_i2d
 372              	.LVL31:
 373 0020 0246     		mov	r2, r0
 374 0022 0B46     		mov	r3, r1
 375 0024 5FA1     		adr	r1, .L37+4
 376 0026 D1E90001 		ldrd	r0, [r1]
 377 002a FFF7FEFF 		bl	__aeabi_ddiv
 378              	.LVL32:
 379 002e 0646     		mov	r6, r0
 380 0030 0F46     		mov	r7, r1
 381              		.loc 1 18 44 view .LVU78
 382 0032 4046     		mov	r0, r8
 383 0034 FFF7FEFF 		bl	__aeabi_i2d
 384              	.LVL33:
 385 0038 3246     		mov	r2, r6
 386 003a 3B46     		mov	r3, r7
 387 003c FFF7FEFF 		bl	__aeabi_dmul
 388              	.LVL34:
 389 0040 FFF7FEFF 		bl	__aeabi_d2f
 390              	.LVL35:
 391 0044 08EE100A 		vmov	s16, r0
 392              		.loc 1 18 25 view .LVU79
 393 0048 E062     		str	r0, [r4, #44]	@ float
  19:src/unit/motorDrive.cpp ****       if (*_encoderValRight > encoderMaxValRight) encoderMaxValRight = *_encoderValRight;
 394              		.loc 1 19 7 is_stmt 1 view .LVU80
 395              		.loc 1 19 12 is_stmt 0 view .LVU81
 396 004a E369     		ldr	r3, [r4, #28]
 397              		.loc 1 19 11 view .LVU82
 398 004c 1A88     		ldrh	r2, [r3]
 399              		.loc 1 19 31 view .LVU83
 400 004e E18F     		ldrh	r1, [r4, #62]
 401              		.loc 1 19 7 view .LVU84
 402 0050 8A42     		cmp	r2, r1
 403 0052 00D9     		bls	.L23
 404              		.loc 1 19 51 is_stmt 1 discriminator 1 view .LVU85
 405              		.loc 1 19 70 is_stmt 0 discriminator 1 view .LVU86
 406 0054 E287     		strh	r2, [r4, #62]	@ movhi
 407              	.L23:
  20:src/unit/motorDrive.cpp ****       encoderDegreeRight = *_encoderValRight * (2 * PI / encoderMaxValRight);
 408              		.loc 1 20 7 is_stmt 1 view .LVU87
 409              		.loc 1 20 28 is_stmt 0 view .LVU88
 410 0056 B3F80080 		ldrh	r8, [r3]
 411              		.loc 1 20 56 view .LVU89
 412 005a E08F     		ldrh	r0, [r4, #62]
 413 005c FFF7FEFF 		bl	__aeabi_i2d
ARM GAS  /var/folders/5c/srt4fy4j1pd641bjfx75k5000000gn/T//ccIGW0IF.s 			page 9


 414              	.LVL36:
 415 0060 0246     		mov	r2, r0
 416 0062 0B46     		mov	r3, r1
 417 0064 4FA1     		adr	r1, .L37+4
 418 0066 D1E90001 		ldrd	r0, [r1]
 419 006a FFF7FEFF 		bl	__aeabi_ddiv
 420              	.LVL37:
 421 006e 0646     		mov	r6, r0
 422 0070 0F46     		mov	r7, r1
 423              		.loc 1 20 46 view .LVU90
 424 0072 4046     		mov	r0, r8
 425 0074 FFF7FEFF 		bl	__aeabi_i2d
 426              	.LVL38:
 427 0078 3246     		mov	r2, r6
 428 007a 3B46     		mov	r3, r7
 429 007c FFF7FEFF 		bl	__aeabi_dmul
 430              	.LVL39:
 431 0080 FFF7FEFF 		bl	__aeabi_d2f
 432              	.LVL40:
 433 0084 07EE900A 		vmov	s15, r0
 434              		.loc 1 20 26 view .LVU91
 435 0088 2063     		str	r0, [r4, #48]	@ float
  21:src/unit/motorDrive.cpp **** 
  22:src/unit/motorDrive.cpp ****       difDegreeLeft = preEncoderDegreeLeft - encoderDegreeLeft;
 436              		.loc 1 22 7 is_stmt 1 view .LVU92
 437              		.loc 1 22 23 is_stmt 0 view .LVU93
 438 008a D4ED098A 		vldr.32	s17, [r4, #36]
 439              		.loc 1 22 44 view .LVU94
 440 008e 78EEC88A 		vsub.f32	s17, s17, s16
 441              		.loc 1 22 21 view .LVU95
 442 0092 C4ED0D8A 		vstr.32	s17, [r4, #52]
  23:src/unit/motorDrive.cpp ****       difDegreeRight = preEncoderDegreeRight - encoderDegreeRight;
 443              		.loc 1 23 7 is_stmt 1 view .LVU96
 444              		.loc 1 23 24 is_stmt 0 view .LVU97
 445 0096 94ED0A8A 		vldr.32	s16, [r4, #40]
 446              		.loc 1 23 46 view .LVU98
 447 009a 38EE678A 		vsub.f32	s16, s16, s15
 448              		.loc 1 23 22 view .LVU99
 449 009e 84ED0E8A 		vstr.32	s16, [r4, #56]
  24:src/unit/motorDrive.cpp ****       if (abs(difDegreeLeft) > PI) difDegreeLeft -= 2 * PI * (abs(difDegreeLeft) / difDegreeLeft);
 450              		.loc 1 24 7 is_stmt 1 view .LVU100
 451              		.loc 1 24 11 is_stmt 0 view .LVU101
 452 00a2 F5EEC08A 		vcmpe.f32	s17, #0
 453 00a6 F1EE10FA 		vmrs	APSR_nzcv, FPSCR
 454 00aa 6EDD     		ble	.L35
 455 00ac 18EE906A 		vmov	r6, s17
 456              	.L24:
 457              		.loc 1 24 11 discriminator 4 view .LVU102
 458 00b0 3046     		mov	r0, r6	@ float
 459 00b2 FFF7FEFF 		bl	__aeabi_f2d
 460              	.LVL41:
 461              		.loc 1 24 7 discriminator 4 view .LVU103
 462 00b6 3DA3     		adr	r3, .L37+12
 463 00b8 D3E90023 		ldrd	r2, [r3]
 464 00bc FFF7FEFF 		bl	__aeabi_dcmpgt
 465              	.LVL42:
 466 00c0 D8B1     		cbz	r0, .L25
ARM GAS  /var/folders/5c/srt4fy4j1pd641bjfx75k5000000gn/T//ccIGW0IF.s 			page 10


 467              		.loc 1 24 36 is_stmt 1 discriminator 5 view .LVU104
 468 00c2 18EE900A 		vmov	r0, s17
 469 00c6 FFF7FEFF 		bl	__aeabi_f2d
 470              	.LVL43:
 471 00ca 8046     		mov	r8, r0
 472 00cc 8946     		mov	r9, r1
 473              		.loc 1 24 82 is_stmt 0 discriminator 5 view .LVU105
 474 00ce 07EE906A 		vmov	s15, r6
 475 00d2 C7EEA87A 		vdiv.f32	s15, s15, s17
 476 00d6 17EE900A 		vmov	r0, s15
 477 00da FFF7FEFF 		bl	__aeabi_f2d
 478              	.LVL44:
 479              		.loc 1 24 60 discriminator 5 view .LVU106
 480 00de 31A3     		adr	r3, .L37+4
 481 00e0 D3E90023 		ldrd	r2, [r3]
 482 00e4 FFF7FEFF 		bl	__aeabi_dmul
 483              	.LVL45:
 484 00e8 0246     		mov	r2, r0
 485 00ea 0B46     		mov	r3, r1
 486              		.loc 1 24 50 discriminator 5 view .LVU107
 487 00ec 4046     		mov	r0, r8
 488 00ee 4946     		mov	r1, r9
 489 00f0 FFF7FEFF 		bl	__aeabi_dsub
 490              	.LVL46:
 491 00f4 FFF7FEFF 		bl	__aeabi_d2f
 492              	.LVL47:
 493 00f8 6063     		str	r0, [r4, #52]	@ float
 494              	.L25:
  25:src/unit/motorDrive.cpp ****       if (abs(difDegreeRight) > PI) difDegreeRight -= PI * (abs(difDegreeRight) / difDegreeRight);
 495              		.loc 1 25 7 is_stmt 1 view .LVU108
 496              		.loc 1 25 11 is_stmt 0 view .LVU109
 497 00fa B5EEC08A 		vcmpe.f32	s16, #0
 498 00fe F1EE10FA 		vmrs	APSR_nzcv, FPSCR
 499 0102 47DD     		ble	.L36
 500 0104 18EE106A 		vmov	r6, s16
 501              	.L27:
 502              		.loc 1 25 11 discriminator 4 view .LVU110
 503 0108 3046     		mov	r0, r6	@ float
 504 010a FFF7FEFF 		bl	__aeabi_f2d
 505              	.LVL48:
 506              		.loc 1 25 7 discriminator 4 view .LVU111
 507 010e 27A3     		adr	r3, .L37+12
 508 0110 D3E90023 		ldrd	r2, [r3]
 509 0114 FFF7FEFF 		bl	__aeabi_dcmpgt
 510              	.LVL49:
 511 0118 D8B1     		cbz	r0, .L28
 512              		.loc 1 25 37 is_stmt 1 discriminator 5 view .LVU112
 513 011a 18EE100A 		vmov	r0, s16
 514 011e FFF7FEFF 		bl	__aeabi_f2d
 515              	.LVL50:
 516 0122 8046     		mov	r8, r0
 517 0124 8946     		mov	r9, r1
 518              		.loc 1 25 81 is_stmt 0 discriminator 5 view .LVU113
 519 0126 07EE906A 		vmov	s15, r6
 520 012a C7EE887A 		vdiv.f32	s15, s15, s16
 521 012e 17EE900A 		vmov	r0, s15
 522 0132 FFF7FEFF 		bl	__aeabi_f2d
ARM GAS  /var/folders/5c/srt4fy4j1pd641bjfx75k5000000gn/T//ccIGW0IF.s 			page 11


 523              	.LVL51:
 524              		.loc 1 25 58 discriminator 5 view .LVU114
 525 0136 1DA3     		adr	r3, .L37+12
 526 0138 D3E90023 		ldrd	r2, [r3]
 527 013c FFF7FEFF 		bl	__aeabi_dmul
 528              	.LVL52:
 529 0140 0246     		mov	r2, r0
 530 0142 0B46     		mov	r3, r1
 531              		.loc 1 25 52 discriminator 5 view .LVU115
 532 0144 4046     		mov	r0, r8
 533 0146 4946     		mov	r1, r9
 534 0148 FFF7FEFF 		bl	__aeabi_dsub
 535              	.LVL53:
 536 014c FFF7FEFF 		bl	__aeabi_d2f
 537              	.LVL54:
 538 0150 A063     		str	r0, [r4, #56]	@ float
 539              	.L28:
  26:src/unit/motorDrive.cpp **** 
  27:src/unit/motorDrive.cpp ****       speedLeft = difDegreeLeft / (periodTimer.read_us() / 1000000.0f);
 540              		.loc 1 27 7 is_stmt 1 view .LVU116
 541              		.loc 1 27 19 is_stmt 0 view .LVU117
 542 0152 94ED0D8A 		vldr.32	s16, [r4, #52]
 543              		.loc 1 27 55 view .LVU118
 544 0156 04F12006 		add	r6, r4, #32
 545 015a 3046     		mov	r0, r6
 546 015c FFF7FEFF 		bl	_ZN5Timer7read_usEv
 547              	.LVL55:
 548 0160 07EE900A 		vmov	s15, r0	@ int
 549              		.loc 1 27 58 view .LVU119
 550 0164 F8EE677A 		vcvt.f32.u32	s15, s15
 551 0168 DFED0D6A 		vldr.32	s13, .L37
 552 016c 87EEA67A 		vdiv.f32	s14, s15, s13
 553              		.loc 1 27 33 view .LVU120
 554 0170 C8EE077A 		vdiv.f32	s15, s16, s14
 555              		.loc 1 27 17 view .LVU121
 556 0174 C4ED007A 		vstr.32	s15, [r4]
  28:src/unit/motorDrive.cpp ****       preEncoderDegreeLeft = encoderDegreeLeft;
 557              		.loc 1 28 7 is_stmt 1 view .LVU122
 558              		.loc 1 28 30 is_stmt 0 view .LVU123
 559 0178 E36A     		ldr	r3, [r4, #44]	@ float
 560              		.loc 1 28 28 view .LVU124
 561 017a 6362     		str	r3, [r4, #36]	@ float
  29:src/unit/motorDrive.cpp ****       periodTimer.reset();
 562              		.loc 1 29 7 is_stmt 1 view .LVU125
 563              		.loc 1 29 24 is_stmt 0 view .LVU126
 564 017c 3046     		mov	r0, r6
 565 017e FFF7FEFF 		bl	_ZN5Timer5resetEv
 566              	.LVL56:
  30:src/unit/motorDrive.cpp **** }
 567              		.loc 1 30 1 view .LVU127
 568 0182 BDEC028B 		vldm	sp!, {d8}
 569              	.LCFI6:
 570              		.cfi_remember_state
 571              		.cfi_restore 80
 572              		.cfi_restore 81
 573              		.cfi_def_cfa_offset 24
 574 0186 BDE8D083 		pop	{r4, r6, r7, r8, r9, pc}
ARM GAS  /var/folders/5c/srt4fy4j1pd641bjfx75k5000000gn/T//ccIGW0IF.s 			page 12


 575              	.LVL57:
 576              	.L35:
 577              	.LCFI7:
 578              		.cfi_restore_state
  24:src/unit/motorDrive.cpp ****       if (abs(difDegreeRight) > PI) difDegreeRight -= PI * (abs(difDegreeRight) / difDegreeRight);
 579              		.loc 1 24 11 discriminator 2 view .LVU128
 580 018a F1EE687A 		vneg.f32	s15, s17
 581 018e 17EE906A 		vmov	r6, s15
 582 0192 8DE7     		b	.L24
 583              	.L36:
  25:src/unit/motorDrive.cpp **** 
 584              		.loc 1 25 11 discriminator 2 view .LVU129
 585 0194 F1EE487A 		vneg.f32	s15, s16
 586 0198 17EE906A 		vmov	r6, s15
 587 019c B4E7     		b	.L27
 588              	.L38:
 589 019e 00BF     		.align	3
 590              	.L37:
 591 01a0 00247449 		.word	1232348160
 592 01a4 182D4454 		.word	1413754136
 593 01a8 FB211940 		.word	1075388923
 594 01ac 182D4454 		.word	1413754136
 595 01b0 FB210940 		.word	1074340347
 596              		.cfi_endproc
 597              	.LFE252:
 598              		.fnend
 600              		.section	.text._ZN10MotorDrive5driveEaa,"ax",%progbits
 601              		.align	1
 602              		.global	_ZN10MotorDrive5driveEaa
 603              		.syntax unified
 604              		.thumb
 605              		.thumb_func
 607              	_ZN10MotorDrive5driveEaa:
 608              		.fnstart
 609              	.LVL58:
 610              	.LFB253:
  31:src/unit/motorDrive.cpp **** 
  32:src/unit/motorDrive.cpp **** void MotorDrive::drive(int8_t left, int8_t right) {
 611              		.loc 1 32 51 is_stmt 1 view -0
 612              		.cfi_startproc
 613              		@ args = 0, pretend = 0, frame = 0
 614              		@ frame_needed = 0, uses_anonymous_args = 0
 615              		.loc 1 32 51 is_stmt 0 view .LVU131
 616 0000 10B5     		push	{r4, lr}
 617              		.save {r4, lr}
 618              	.LCFI8:
 619              		.cfi_def_cfa_offset 8
 620              		.cfi_offset 4, -8
 621              		.cfi_offset 14, -4
 622 0002 2DED028B 		vpush.64	{d8}
 623              		.vsave {d8}
 624              	.LCFI9:
 625              		.cfi_def_cfa_offset 16
 626              		.cfi_offset 80, -16
 627              		.cfi_offset 81, -12
 628 0006 0446     		mov	r4, r0
 629 0008 08EE901A 		vmov	s17, r1	@ int
ARM GAS  /var/folders/5c/srt4fy4j1pd641bjfx75k5000000gn/T//ccIGW0IF.s 			page 13


 630 000c 08EE102A 		vmov	s16, r2	@ int
  33:src/unit/motorDrive.cpp ****       float left_power = left * 0.01f;
 631              		.loc 1 33 7 is_stmt 1 view .LVU132
 632              		.loc 1 33 31 is_stmt 0 view .LVU133
 633 0010 F8EEE88A 		vcvt.f32.s32	s17, s17
 634              		.loc 1 33 13 view .LVU134
 635 0014 DFED207A 		vldr.32	s15, .L51
 636 0018 68EEA78A 		vmul.f32	s17, s17, s15
 637              	.LVL59:
  34:src/unit/motorDrive.cpp ****       float right_power = right * 0.01f;
 638              		.loc 1 34 7 is_stmt 1 view .LVU135
 639              		.loc 1 34 33 is_stmt 0 view .LVU136
 640 001c B8EEC88A 		vcvt.f32.s32	s16, s16
 641              		.loc 1 34 13 view .LVU137
 642 0020 28EE278A 		vmul.f32	s16, s16, s15
 643              	.LVL60:
  35:src/unit/motorDrive.cpp ****       init();
 644              		.loc 1 35 7 is_stmt 1 view .LVU138
 645              		.loc 1 35 11 is_stmt 0 view .LVU139
 646 0024 FFF7FEFF 		bl	_ZN10MotorDrive4initEv
 647              	.LVL61:
  36:src/unit/motorDrive.cpp ****       if (left_power > 0) {
 648              		.loc 1 36 7 is_stmt 1 view .LVU140
 649 0028 F5EEC08A 		vcmpe.f32	s17, #0
 650 002c F1EE10FA 		vmrs	APSR_nzcv, FPSCR
 651 0030 1BDD     		ble	.L48
  37:src/unit/motorDrive.cpp ****             _motor1a->write(left_power);
 652              		.loc 1 37 13 view .LVU141
 653              		.loc 1 37 28 is_stmt 0 view .LVU142
 654 0032 B0EE680A 		vmov.f32	s0, s17
 655 0036 A068     		ldr	r0, [r4, #8]
 656 0038 FFF7FEFF 		bl	_ZN12PwmSingleOut5writeEf
 657              	.LVL62:
  38:src/unit/motorDrive.cpp ****             _motor1b->write(0);
 658              		.loc 1 38 13 is_stmt 1 view .LVU143
 659              		.loc 1 38 28 is_stmt 0 view .LVU144
 660 003c 9FED170A 		vldr.32	s0, .L51+4
 661 0040 E068     		ldr	r0, [r4, #12]
 662 0042 FFF7FEFF 		bl	_ZN12PwmSingleOut5writeEf
 663              	.LVL63:
 664              	.L42:
  39:src/unit/motorDrive.cpp ****       } else {
  40:src/unit/motorDrive.cpp ****             _motor1a->write(0);
  41:src/unit/motorDrive.cpp ****             _motor1b->write(left_power * -1);
  42:src/unit/motorDrive.cpp ****       }
  43:src/unit/motorDrive.cpp ****       if (right_power > 0) {
 665              		.loc 1 43 7 is_stmt 1 view .LVU145
 666 0046 B5EEC08A 		vcmpe.f32	s16, #0
 667 004a F1EE10FA 		vmrs	APSR_nzcv, FPSCR
 668 004e 17DD     		ble	.L49
  44:src/unit/motorDrive.cpp ****             _motor2a->write(right_power);
 669              		.loc 1 44 13 view .LVU146
 670              		.loc 1 44 28 is_stmt 0 view .LVU147
 671 0050 B0EE480A 		vmov.f32	s0, s16
 672 0054 2069     		ldr	r0, [r4, #16]
 673 0056 FFF7FEFF 		bl	_ZN12PwmSingleOut5writeEf
 674              	.LVL64:
ARM GAS  /var/folders/5c/srt4fy4j1pd641bjfx75k5000000gn/T//ccIGW0IF.s 			page 14


  45:src/unit/motorDrive.cpp ****             _motor2b->write(0);
 675              		.loc 1 45 13 is_stmt 1 view .LVU148
 676              		.loc 1 45 28 is_stmt 0 view .LVU149
 677 005a 9FED100A 		vldr.32	s0, .L51+4
 678 005e 6069     		ldr	r0, [r4, #20]
 679 0060 FFF7FEFF 		bl	_ZN12PwmSingleOut5writeEf
 680              	.LVL65:
 681              	.L39:
  46:src/unit/motorDrive.cpp ****       } else {
  47:src/unit/motorDrive.cpp ****             _motor2a->write(0);
  48:src/unit/motorDrive.cpp ****             _motor2b->write(right_power * -1);
  49:src/unit/motorDrive.cpp ****       }
  50:src/unit/motorDrive.cpp **** }
 682              		.loc 1 50 1 view .LVU150
 683 0064 BDEC028B 		vldm	sp!, {d8}
 684              	.LCFI10:
 685              		.cfi_remember_state
 686              		.cfi_restore 80
 687              		.cfi_restore 81
 688              		.cfi_def_cfa_offset 8
 689              	.LVL66:
 690              		.loc 1 50 1 view .LVU151
 691 0068 10BD     		pop	{r4, pc}
 692              	.LVL67:
 693              	.L48:
 694              	.LCFI11:
 695              		.cfi_restore_state
  40:src/unit/motorDrive.cpp ****             _motor1b->write(left_power * -1);
 696              		.loc 1 40 13 is_stmt 1 view .LVU152
  40:src/unit/motorDrive.cpp ****             _motor1b->write(left_power * -1);
 697              		.loc 1 40 28 is_stmt 0 view .LVU153
 698 006a 9FED0C0A 		vldr.32	s0, .L51+4
 699 006e A068     		ldr	r0, [r4, #8]
 700 0070 FFF7FEFF 		bl	_ZN12PwmSingleOut5writeEf
 701              	.LVL68:
  41:src/unit/motorDrive.cpp ****       }
 702              		.loc 1 41 13 is_stmt 1 view .LVU154
  41:src/unit/motorDrive.cpp ****       }
 703              		.loc 1 41 28 is_stmt 0 view .LVU155
 704 0074 B1EE680A 		vneg.f32	s0, s17
 705 0078 E068     		ldr	r0, [r4, #12]
 706 007a FFF7FEFF 		bl	_ZN12PwmSingleOut5writeEf
 707              	.LVL69:
 708 007e E2E7     		b	.L42
 709              	.L49:
  47:src/unit/motorDrive.cpp ****             _motor2b->write(right_power * -1);
 710              		.loc 1 47 13 is_stmt 1 view .LVU156
  47:src/unit/motorDrive.cpp ****             _motor2b->write(right_power * -1);
 711              		.loc 1 47 28 is_stmt 0 view .LVU157
 712 0080 9FED060A 		vldr.32	s0, .L51+4
 713 0084 2069     		ldr	r0, [r4, #16]
 714 0086 FFF7FEFF 		bl	_ZN12PwmSingleOut5writeEf
 715              	.LVL70:
  48:src/unit/motorDrive.cpp ****       }
 716              		.loc 1 48 13 is_stmt 1 view .LVU158
  48:src/unit/motorDrive.cpp ****       }
 717              		.loc 1 48 28 is_stmt 0 view .LVU159
ARM GAS  /var/folders/5c/srt4fy4j1pd641bjfx75k5000000gn/T//ccIGW0IF.s 			page 15


 718 008a B1EE480A 		vneg.f32	s0, s16
 719 008e 6069     		ldr	r0, [r4, #20]
 720 0090 FFF7FEFF 		bl	_ZN12PwmSingleOut5writeEf
 721              	.LVL71:
 722              		.loc 1 50 1 view .LVU160
 723 0094 E6E7     		b	.L39
 724              	.L52:
 725 0096 00BF     		.align	2
 726              	.L51:
 727 0098 0AD7233C 		.word	1008981770
 728 009c 00000000 		.word	0
 729              		.cfi_endproc
 730              	.LFE253:
 731              		.fnend
 733              		.section	.text._ZN10MotorDrive5brakeEv,"ax",%progbits
 734              		.align	1
 735              		.global	_ZN10MotorDrive5brakeEv
 736              		.syntax unified
 737              		.thumb
 738              		.thumb_func
 740              	_ZN10MotorDrive5brakeEv:
 741              		.fnstart
 742              	.LVL72:
 743              	.LFB254:
  51:src/unit/motorDrive.cpp **** 
  52:src/unit/motorDrive.cpp **** void MotorDrive::brake() {
 744              		.loc 1 52 26 is_stmt 1 view -0
 745              		.cfi_startproc
 746              		@ args = 0, pretend = 0, frame = 0
 747              		@ frame_needed = 0, uses_anonymous_args = 0
 748              		.loc 1 52 26 is_stmt 0 view .LVU162
 749 0000 10B5     		push	{r4, lr}
 750              	.LCFI12:
 751              		.cfi_def_cfa_offset 8
 752              		.cfi_offset 4, -8
 753              		.cfi_offset 14, -4
 754 0002 0446     		mov	r4, r0
  53:src/unit/motorDrive.cpp ****       _motor1a->write(1);
 755              		.loc 1 53 7 is_stmt 1 view .LVU163
 756              		.loc 1 53 22 is_stmt 0 view .LVU164
 757 0004 B7EE000A 		vmov.f32	s0, #1.0e+0
 758 0008 8068     		ldr	r0, [r0, #8]
 759              	.LVL73:
 760              		.loc 1 53 22 view .LVU165
 761 000a FFF7FEFF 		bl	_ZN12PwmSingleOut5writeEf
 762              	.LVL74:
  54:src/unit/motorDrive.cpp ****       _motor1b->write(1);
 763              		.loc 1 54 7 is_stmt 1 view .LVU166
 764              		.loc 1 54 22 is_stmt 0 view .LVU167
 765 000e B7EE000A 		vmov.f32	s0, #1.0e+0
 766 0012 E068     		ldr	r0, [r4, #12]
 767 0014 FFF7FEFF 		bl	_ZN12PwmSingleOut5writeEf
 768              	.LVL75:
  55:src/unit/motorDrive.cpp ****       _motor2a->write(1);
 769              		.loc 1 55 7 is_stmt 1 view .LVU168
 770              		.loc 1 55 22 is_stmt 0 view .LVU169
 771 0018 B7EE000A 		vmov.f32	s0, #1.0e+0
ARM GAS  /var/folders/5c/srt4fy4j1pd641bjfx75k5000000gn/T//ccIGW0IF.s 			page 16


 772 001c 2069     		ldr	r0, [r4, #16]
 773 001e FFF7FEFF 		bl	_ZN12PwmSingleOut5writeEf
 774              	.LVL76:
  56:src/unit/motorDrive.cpp ****       _motor2b->write(1);
 775              		.loc 1 56 7 is_stmt 1 view .LVU170
 776              		.loc 1 56 22 is_stmt 0 view .LVU171
 777 0022 B7EE000A 		vmov.f32	s0, #1.0e+0
 778 0026 6069     		ldr	r0, [r4, #20]
 779 0028 FFF7FEFF 		bl	_ZN12PwmSingleOut5writeEf
 780              	.LVL77:
  57:src/unit/motorDrive.cpp **** }...
 781              		.loc 1 57 1 view .LVU172
 782 002c 10BD     		pop	{r4, pc}
 783              		.loc 1 57 1 view .LVU173
 784              		.cfi_endproc
 785              	.LFE254:
 786              		.cantunwind
 787              		.fnend
 789              		.text
 790              	.Letext0:
 791              		.file 3 "/opt/ST/STM32CubeCLT_1.16.0/GNU-tools-for-STM32/arm-none-eabi/include/c++/12.3.1/cstdio"
 792              		.file 4 "/opt/ST/STM32CubeCLT_1.16.0/GNU-tools-for-STM32/arm-none-eabi/include/c++/12.3.1/arm-none
 793              		.file 5 "/opt/ST/STM32CubeCLT_1.16.0/GNU-tools-for-STM32/arm-none-eabi/include/machine/_default_ty
 794              		.file 6 "/opt/ST/STM32CubeCLT_1.16.0/GNU-tools-for-STM32/lib/gcc/arm-none-eabi/12.3.1/include/stdd
 795              		.file 7 "/opt/ST/STM32CubeCLT_1.16.0/GNU-tools-for-STM32/arm-none-eabi/include/sys/_types.h"
 796              		.file 8 "/opt/ST/STM32CubeCLT_1.16.0/GNU-tools-for-STM32/arm-none-eabi/include/sys/reent.h"
 797              		.file 9 "/opt/ST/STM32CubeCLT_1.16.0/GNU-tools-for-STM32/arm-none-eabi/include/sys/lock.h"
 798              		.file 10 "/opt/ST/STM32CubeCLT_1.16.0/GNU-tools-for-STM32/arm-none-eabi/include/stdio.h"
 799              		.file 11 "/opt/ST/STM32CubeCLT_1.16.0/GNU-tools-for-STM32/arm-none-eabi/include/sys/_stdint.h"
 800              		.file 12 "Drivers/CMSIS/Device/ST/STM32F4xx/Include/stm32f446xx.h"
 801              		.file 13 "Drivers/STM32F4xx_HAL_Driver/Inc/stm32f4xx_hal_def.h"
 802              		.file 14 "Drivers/STM32F4xx_HAL_Driver/Inc/stm32f4xx_hal_dma.h"
 803              		.file 15 "Drivers/STM32F4xx_HAL_Driver/Inc/stm32f4xx_hal_tim.h"
 804              		.file 16 "Lib/Timer/Timer.hpp"
 805              		.file 17 "src/unit/motorDrive.hpp"
ARM GAS  /var/folders/5c/srt4fy4j1pd641bjfx75k5000000gn/T//ccIGW0IF.s 			page 17


DEFINED SYMBOLS
                            *ABS*:00000000 motorDrive.cpp
/var/folders/5c/srt4fy4j1pd641bjfx75k5000000gn/T//ccIGW0IF.s:21     .text._ZN12PwmSingleOut4initEv:00000000 $t
/var/folders/5c/srt4fy4j1pd641bjfx75k5000000gn/T//ccIGW0IF.s:27     .text._ZN12PwmSingleOut4initEv:00000000 _ZN12PwmSingleOut4initEv
.ARM.exidx.text._ZN12PwmSingleOut4initEv:00000000 $d
/var/folders/5c/srt4fy4j1pd641bjfx75k5000000gn/T//ccIGW0IF.s:71     .text._ZN12PwmSingleOut5writeEf:00000000 $t
/var/folders/5c/srt4fy4j1pd641bjfx75k5000000gn/T//ccIGW0IF.s:77     .text._ZN12PwmSingleOut5writeEf:00000000 _ZN12PwmSingleOut5writeEf
/var/folders/5c/srt4fy4j1pd641bjfx75k5000000gn/T//ccIGW0IF.s:194    .text._ZN12PwmSingleOut5writeEf:00000094 $d
.ARM.exidx.text._ZN12PwmSingleOut5writeEf:00000000 $d
/var/folders/5c/srt4fy4j1pd641bjfx75k5000000gn/T//ccIGW0IF.s:201    .text._ZN10MotorDriveC2EP12PwmSingleOutS1_S1_S1_PtS2_:00000000 $t
/var/folders/5c/srt4fy4j1pd641bjfx75k5000000gn/T//ccIGW0IF.s:207    .text._ZN10MotorDriveC2EP12PwmSingleOutS1_S1_S1_PtS2_:00000000 _ZN10MotorDriveC2EP12PwmSingleOutS1_S1_S1_PtS2_
.ARM.exidx.text._ZN10MotorDriveC2EP12PwmSingleOutS1_S1_S1_PtS2_:00000000 $d
/var/folders/5c/srt4fy4j1pd641bjfx75k5000000gn/T//ccIGW0IF.s:207    .text._ZN10MotorDriveC2EP12PwmSingleOutS1_S1_S1_PtS2_:00000000 _ZN10MotorDriveC1EP12PwmSingleOutS1_S1_S1_PtS2_
/var/folders/5c/srt4fy4j1pd641bjfx75k5000000gn/T//ccIGW0IF.s:261    .text._ZN10MotorDrive4initEv:00000000 $t
/var/folders/5c/srt4fy4j1pd641bjfx75k5000000gn/T//ccIGW0IF.s:267    .text._ZN10MotorDrive4initEv:00000000 _ZN10MotorDrive4initEv
.ARM.exidx.text._ZN10MotorDrive4initEv:00000000 $d
/var/folders/5c/srt4fy4j1pd641bjfx75k5000000gn/T//ccIGW0IF.s:318    .text._ZN10MotorDrive14encoderComputeEv:00000000 $t
/var/folders/5c/srt4fy4j1pd641bjfx75k5000000gn/T//ccIGW0IF.s:324    .text._ZN10MotorDrive14encoderComputeEv:00000000 _ZN10MotorDrive14encoderComputeEv
/var/folders/5c/srt4fy4j1pd641bjfx75k5000000gn/T//ccIGW0IF.s:591    .text._ZN10MotorDrive14encoderComputeEv:000001a0 $d
.ARM.extab.text._ZN10MotorDrive14encoderComputeEv:00000000 $d
.ARM.exidx.text._ZN10MotorDrive14encoderComputeEv:00000000 $d
/var/folders/5c/srt4fy4j1pd641bjfx75k5000000gn/T//ccIGW0IF.s:601    .text._ZN10MotorDrive5driveEaa:00000000 $t
/var/folders/5c/srt4fy4j1pd641bjfx75k5000000gn/T//ccIGW0IF.s:607    .text._ZN10MotorDrive5driveEaa:00000000 _ZN10MotorDrive5driveEaa
/var/folders/5c/srt4fy4j1pd641bjfx75k5000000gn/T//ccIGW0IF.s:727    .text._ZN10MotorDrive5driveEaa:00000098 $d
.ARM.exidx.text._ZN10MotorDrive5driveEaa:00000000 $d
/var/folders/5c/srt4fy4j1pd641bjfx75k5000000gn/T//ccIGW0IF.s:734    .text._ZN10MotorDrive5brakeEv:00000000 $t
/var/folders/5c/srt4fy4j1pd641bjfx75k5000000gn/T//ccIGW0IF.s:740    .text._ZN10MotorDrive5brakeEv:00000000 _ZN10MotorDrive5brakeEv
.ARM.exidx.text._ZN10MotorDrive5brakeEv:00000000 $d

UNDEFINED SYMBOLS
HAL_TIM_PWM_Start
__aeabi_unwind_cpp_pr0
__aeabi_f2d
__aeabi_ui2d
__aeabi_dmul
__aeabi_d2iz
_ZN5TimerC1Ev
__aeabi_i2d
__aeabi_ddiv
__aeabi_d2f
__aeabi_dcmpgt
__aeabi_dsub
_ZN5Timer7read_usEv
_ZN5Timer5resetEv
__aeabi_unwind_cpp_pr1
