ARM GAS  /var/folders/5c/srt4fy4j1pd641bjfx75k5000000gn/T//ccMJ3S1B.s 			page 1


   1              		.cpu cortex-m4
   2              		.arch armv7e-m
   3              		.fpu fpv4-sp-d16
   4              		.eabi_attribute 27, 1
   5              		.eabi_attribute 28, 1
   6              		.eabi_attribute 20, 1
   7              		.eabi_attribute 21, 1
   8              		.eabi_attribute 23, 3
   9              		.eabi_attribute 24, 1
  10              		.eabi_attribute 25, 1
  11              		.eabi_attribute 26, 1
  12              		.eabi_attribute 30, 1
  13              		.eabi_attribute 34, 1
  14              		.eabi_attribute 18, 4
  15              		.file	"robot.cpp"
  16              		.text
  17              	.Ltext0:
  18              		.cfi_sections	.debug_frame
  19              		.file 1 "src/unit/robot.cpp"
  20              		.section	.text._ZN6Buzzer4initEv,"axG",%progbits,_ZN6Buzzer4initEv,comdat
  21              		.align	1
  22              		.weak	_ZN6Buzzer4initEv
  23              		.syntax unified
  24              		.thumb
  25              		.thumb_func
  27              	_ZN6Buzzer4initEv:
  28              		.fnstart
  29              	.LVL0:
  30              	.LFB254:
  31              		.file 2 "Lib/Buzzer/Buzzer.hpp"
   1:Lib/Buzzer/Buzzer.hpp **** #ifndef __BUZZER__
   2:Lib/Buzzer/Buzzer.hpp **** #define __BUZZER__
   3:Lib/Buzzer/Buzzer.hpp **** 
   4:Lib/Buzzer/Buzzer.hpp **** #include "tim.h"
   5:Lib/Buzzer/Buzzer.hpp **** 
   6:Lib/Buzzer/Buzzer.hpp **** #ifdef __cplusplus
   7:Lib/Buzzer/Buzzer.hpp **** extern "C" {
   8:Lib/Buzzer/Buzzer.hpp **** 
   9:Lib/Buzzer/Buzzer.hpp **** class Buzzer {
  10:Lib/Buzzer/Buzzer.hpp ****      public:
  11:Lib/Buzzer/Buzzer.hpp ****       Buzzer(TIM_HandleTypeDef *htim, uint32_t channel)
  12:Lib/Buzzer/Buzzer.hpp ****           : _htim(htim), _channel(channel), _maxValue(_htim->Init.Period) {
  13:Lib/Buzzer/Buzzer.hpp ****       }
  14:Lib/Buzzer/Buzzer.hpp **** 
  15:Lib/Buzzer/Buzzer.hpp ****       void init() {
  32              		.loc 2 15 12 view -0
  33              		.cfi_startproc
  34              		@ args = 0, pretend = 0, frame = 0
  35              		@ frame_needed = 0, uses_anonymous_args = 0
  36              		.loc 2 15 12 is_stmt 0 view .LVU1
  37 0000 10B5     		push	{r4, lr}
  38              		.save {r4, lr}
  39              	.LCFI0:
  40              		.cfi_def_cfa_offset 8
  41              		.cfi_offset 4, -8
  42              		.cfi_offset 14, -4
  43 0002 0446     		mov	r4, r0
ARM GAS  /var/folders/5c/srt4fy4j1pd641bjfx75k5000000gn/T//ccMJ3S1B.s 			page 2


  16:Lib/Buzzer/Buzzer.hpp ****             HAL_TIM_PWM_Start(_htim, _channel);
  44              		.loc 2 16 13 is_stmt 1 view .LVU2
  45              		.loc 2 16 30 is_stmt 0 view .LVU3
  46 0004 4168     		ldr	r1, [r0, #4]
  47 0006 0068     		ldr	r0, [r0]
  48              	.LVL1:
  49              		.loc 2 16 30 view .LVU4
  50 0008 FFF7FEFF 		bl	HAL_TIM_PWM_Start
  51              	.LVL2:
  17:Lib/Buzzer/Buzzer.hpp ****             _maxValue = _htim->Init.Period;
  52              		.loc 2 17 13 is_stmt 1 view .LVU5
  53              		.loc 2 17 25 is_stmt 0 view .LVU6
  54 000c 2368     		ldr	r3, [r4]
  55              		.loc 2 17 37 view .LVU7
  56 000e DB68     		ldr	r3, [r3, #12]
  57              		.loc 2 17 23 view .LVU8
  58 0010 A360     		str	r3, [r4, #8]
  18:Lib/Buzzer/Buzzer.hpp ****       }
  59              		.loc 2 18 7 view .LVU9
  60 0012 10BD     		pop	{r4, pc}
  61              		.loc 2 18 7 view .LVU10
  62              		.cfi_endproc
  63              	.LFE254:
  64              		.fnend
  66              		.section	.text._ZN12PwmSingleOut4initEv,"axG",%progbits,_ZN12PwmSingleOut4initEv,comdat
  67              		.align	1
  68              		.weak	_ZN12PwmSingleOut4initEv
  69              		.syntax unified
  70              		.thumb
  71              		.thumb_func
  73              	_ZN12PwmSingleOut4initEv:
  74              		.fnstart
  75              	.LVL3:
  76              	.LFB262:
  77              		.file 3 "Lib/PWMSingle/PWMSingle.hpp"
   1:Lib/PWMSingle/PWMSingle.hpp **** #ifndef __PWMSINGLE__
   2:Lib/PWMSingle/PWMSingle.hpp **** #define __PWMSINGLE__
   3:Lib/PWMSingle/PWMSingle.hpp **** 
   4:Lib/PWMSingle/PWMSingle.hpp **** #include "MyMath.hpp"
   5:Lib/PWMSingle/PWMSingle.hpp **** #include "tim.h"
   6:Lib/PWMSingle/PWMSingle.hpp **** 
   7:Lib/PWMSingle/PWMSingle.hpp **** #ifdef __cplusplus
   8:Lib/PWMSingle/PWMSingle.hpp **** extern "C" {
   9:Lib/PWMSingle/PWMSingle.hpp **** 
  10:Lib/PWMSingle/PWMSingle.hpp **** class PwmSingleOut {
  11:Lib/PWMSingle/PWMSingle.hpp ****      public:
  12:Lib/PWMSingle/PWMSingle.hpp ****       PwmSingleOut(TIM_HandleTypeDef *htim, uint32_t channel)
  13:Lib/PWMSingle/PWMSingle.hpp ****           : _htim(htim), _channel(channel), _maxValue(_htim->Init.Period) {
  14:Lib/PWMSingle/PWMSingle.hpp ****       }
  15:Lib/PWMSingle/PWMSingle.hpp **** 
  16:Lib/PWMSingle/PWMSingle.hpp ****       void init() {
  78              		.loc 3 16 12 is_stmt 1 view -0
  79              		.cfi_startproc
  80              		@ args = 0, pretend = 0, frame = 0
  81              		@ frame_needed = 0, uses_anonymous_args = 0
  82              		.loc 3 16 12 is_stmt 0 view .LVU12
  83 0000 10B5     		push	{r4, lr}
ARM GAS  /var/folders/5c/srt4fy4j1pd641bjfx75k5000000gn/T//ccMJ3S1B.s 			page 3


  84              		.save {r4, lr}
  85              	.LCFI1:
  86              		.cfi_def_cfa_offset 8
  87              		.cfi_offset 4, -8
  88              		.cfi_offset 14, -4
  89 0002 0446     		mov	r4, r0
  17:Lib/PWMSingle/PWMSingle.hpp ****             HAL_TIM_PWM_Start(_htim, _channel);
  90              		.loc 3 17 13 is_stmt 1 view .LVU13
  91              		.loc 3 17 30 is_stmt 0 view .LVU14
  92 0004 4168     		ldr	r1, [r0, #4]
  93 0006 0068     		ldr	r0, [r0]
  94              	.LVL4:
  95              		.loc 3 17 30 view .LVU15
  96 0008 FFF7FEFF 		bl	HAL_TIM_PWM_Start
  97              	.LVL5:
  18:Lib/PWMSingle/PWMSingle.hpp ****             _maxValue = _htim->Init.Period;
  98              		.loc 3 18 13 is_stmt 1 view .LVU16
  99              		.loc 3 18 25 is_stmt 0 view .LVU17
 100 000c 2368     		ldr	r3, [r4]
 101              		.loc 3 18 37 view .LVU18
 102 000e DB68     		ldr	r3, [r3, #12]
 103              		.loc 3 18 23 view .LVU19
 104 0010 A360     		str	r3, [r4, #8]
  19:Lib/PWMSingle/PWMSingle.hpp ****       }
 105              		.loc 3 19 7 view .LVU20
 106 0012 10BD     		pop	{r4, pc}
 107              		.loc 3 19 7 view .LVU21
 108              		.cfi_endproc
 109              	.LFE262:
 110              		.fnend
 112              		.section	.text._ZN5RobotC2Ev,"ax",%progbits
 113              		.align	1
 114              		.global	_ZN5RobotC2Ev
 115              		.syntax unified
 116              		.thumb
 117              		.thumb_func
 119              	_ZN5RobotC2Ev:
 120              		.fnstart
 121              	.LVL6:
 122              	.LFB267:
   1:src/unit/robot.cpp **** #include "robot.hpp"
   2:src/unit/robot.cpp **** 
   3:src/unit/robot.cpp **** uint16_t adc_get_val[14];
   4:src/unit/robot.cpp **** 
   5:src/unit/robot.cpp **** Robot::Robot() {
 123              		.loc 1 5 1 is_stmt 1 view -0
 124              		.cfi_startproc
 125              		@ args = 0, pretend = 0, frame = 0
 126              		@ frame_needed = 0, uses_anonymous_args = 0
 127              		.loc 1 5 1 is_stmt 0 view .LVU23
 128 0000 F0B5     		push	{r4, r5, r6, r7, lr}
 129              		.save {r4, r5, r6, r7, lr}
 130              	.LCFI2:
 131              		.cfi_def_cfa_offset 20
 132              		.cfi_offset 4, -20
 133              		.cfi_offset 5, -16
 134              		.cfi_offset 6, -12
ARM GAS  /var/folders/5c/srt4fy4j1pd641bjfx75k5000000gn/T//ccMJ3S1B.s 			page 4


 135              		.cfi_offset 7, -8
 136              		.cfi_offset 14, -4
 137              		.pad #20
 138 0002 85B0     		sub	sp, sp, #20
 139              	.LCFI3:
 140              		.cfi_def_cfa_offset 40
 141 0004 0446     		mov	r4, r0
 142              	.LVL7:
 143              	.LBB42:
 144              	.LBB43:
 145              	.LBI43:
 146              		.file 4 "Lib/DigitalInOut/DigitalInOut.hpp"
   1:Lib/DigitalInOut/DigitalInOut.hpp **** #ifndef __DigitalInOut__
   2:Lib/DigitalInOut/DigitalInOut.hpp **** #define __DigitalInOut__
   3:Lib/DigitalInOut/DigitalInOut.hpp **** 
   4:Lib/DigitalInOut/DigitalInOut.hpp **** #include "main.h"
   5:Lib/DigitalInOut/DigitalInOut.hpp **** 
   6:Lib/DigitalInOut/DigitalInOut.hpp **** #ifdef __cplusplus
   7:Lib/DigitalInOut/DigitalInOut.hpp **** 
   8:Lib/DigitalInOut/DigitalInOut.hpp **** extern "C" {
   9:Lib/DigitalInOut/DigitalInOut.hpp **** 
  10:Lib/DigitalInOut/DigitalInOut.hpp **** class DigitalOut {
  11:Lib/DigitalInOut/DigitalInOut.hpp ****   public:
  12:Lib/DigitalInOut/DigitalInOut.hpp ****     DigitalOut(GPIO_TypeDef *port, uint16_t pin) : port(port), pin(pin) {
 147              		.loc 4 12 5 is_stmt 1 view .LVU24
 148              	.LBB44:
 149              		.loc 4 12 52 is_stmt 0 view .LVU25
 150 0006 4548     		ldr	r0, .L7
 151              	.LVL8:
 152              		.loc 4 12 52 view .LVU26
 153 0008 A062     		str	r0, [r4, #40]
 154              		.loc 4 12 64 view .LVU27
 155 000a 0426     		movs	r6, #4
 156 000c A685     		strh	r6, [r4, #44]	@ movhi
  13:Lib/DigitalInOut/DigitalInOut.hpp ****         HAL_GPIO_WritePin(port, pin, GPIO_PIN_RESET);
 157              		.loc 4 13 9 is_stmt 1 view .LVU28
 158              		.loc 4 13 26 is_stmt 0 view .LVU29
 159 000e 0022     		movs	r2, #0
 160 0010 3146     		mov	r1, r6
 161 0012 FFF7FEFF 		bl	HAL_GPIO_WritePin
 162              	.LVL9:
 163              		.loc 4 13 26 view .LVU30
 164              	.LBE44:
 165              	.LBE43:
 166              	.LBB45:
 167              	.LBI45:
  12:Lib/DigitalInOut/DigitalInOut.hpp ****         HAL_GPIO_WritePin(port, pin, GPIO_PIN_RESET);
 168              		.loc 4 12 5 is_stmt 1 view .LVU31
 169              	.LBB46:
  12:Lib/DigitalInOut/DigitalInOut.hpp ****         HAL_GPIO_WritePin(port, pin, GPIO_PIN_RESET);
 170              		.loc 4 12 52 is_stmt 0 view .LVU32
 171 0016 424D     		ldr	r5, .L7+4
 172 0018 2563     		str	r5, [r4, #48]
  12:Lib/DigitalInOut/DigitalInOut.hpp ****         HAL_GPIO_WritePin(port, pin, GPIO_PIN_RESET);
 173              		.loc 4 12 64 view .LVU33
 174 001a 1021     		movs	r1, #16
 175 001c A186     		strh	r1, [r4, #52]	@ movhi
ARM GAS  /var/folders/5c/srt4fy4j1pd641bjfx75k5000000gn/T//ccMJ3S1B.s 			page 5


 176              		.loc 4 13 9 is_stmt 1 view .LVU34
 177              		.loc 4 13 26 is_stmt 0 view .LVU35
 178 001e 0022     		movs	r2, #0
 179 0020 2846     		mov	r0, r5
 180 0022 FFF7FEFF 		bl	HAL_GPIO_WritePin
 181              	.LVL10:
 182              		.loc 4 13 26 view .LVU36
 183              	.LBE46:
 184              	.LBE45:
 185              	.LBB47:
 186              	.LBI47:
  12:Lib/DigitalInOut/DigitalInOut.hpp ****         HAL_GPIO_WritePin(port, pin, GPIO_PIN_RESET);
 187              		.loc 4 12 5 is_stmt 1 view .LVU37
 188              	.LBB48:
  12:Lib/DigitalInOut/DigitalInOut.hpp ****         HAL_GPIO_WritePin(port, pin, GPIO_PIN_RESET);
 189              		.loc 4 12 52 is_stmt 0 view .LVU38
 190 0026 A563     		str	r5, [r4, #56]
  12:Lib/DigitalInOut/DigitalInOut.hpp ****         HAL_GPIO_WritePin(port, pin, GPIO_PIN_RESET);
 191              		.loc 4 12 64 view .LVU39
 192 0028 4021     		movs	r1, #64
 193 002a A187     		strh	r1, [r4, #60]	@ movhi
 194              		.loc 4 13 9 is_stmt 1 view .LVU40
 195              		.loc 4 13 26 is_stmt 0 view .LVU41
 196 002c 0022     		movs	r2, #0
 197 002e 2846     		mov	r0, r5
 198 0030 FFF7FEFF 		bl	HAL_GPIO_WritePin
 199              	.LVL11:
 200              		.loc 4 13 26 view .LVU42
 201              	.LBE48:
 202              	.LBE47:
 203              	.LBB49:
 204              	.LBI49:
  12:Lib/DigitalInOut/DigitalInOut.hpp ****         HAL_GPIO_WritePin(port, pin, GPIO_PIN_RESET);
 205              		.loc 4 12 5 is_stmt 1 view .LVU43
 206              	.LBB50:
  12:Lib/DigitalInOut/DigitalInOut.hpp ****         HAL_GPIO_WritePin(port, pin, GPIO_PIN_RESET);
 207              		.loc 4 12 52 is_stmt 0 view .LVU44
 208 0034 2564     		str	r5, [r4, #64]
  12:Lib/DigitalInOut/DigitalInOut.hpp ****         HAL_GPIO_WritePin(port, pin, GPIO_PIN_RESET);
 209              		.loc 4 12 64 view .LVU45
 210 0036 8021     		movs	r1, #128
 211 0038 A4F84410 		strh	r1, [r4, #68]	@ movhi
 212              		.loc 4 13 9 is_stmt 1 view .LVU46
 213              		.loc 4 13 26 is_stmt 0 view .LVU47
 214 003c 0022     		movs	r2, #0
 215 003e 2846     		mov	r0, r5
 216 0040 FFF7FEFF 		bl	HAL_GPIO_WritePin
 217              	.LVL12:
 218              		.loc 4 13 26 view .LVU48
 219              	.LBE50:
 220              	.LBE49:
 221              	.LBB51:
 222              	.LBI51:
  12:Lib/DigitalInOut/DigitalInOut.hpp ****         HAL_GPIO_WritePin(port, pin, GPIO_PIN_RESET);
 223              		.loc 4 12 5 is_stmt 1 view .LVU49
 224              	.LBB52:
  12:Lib/DigitalInOut/DigitalInOut.hpp ****         HAL_GPIO_WritePin(port, pin, GPIO_PIN_RESET);
ARM GAS  /var/folders/5c/srt4fy4j1pd641bjfx75k5000000gn/T//ccMJ3S1B.s 			page 6


 225              		.loc 4 12 52 is_stmt 0 view .LVU50
 226 0044 A564     		str	r5, [r4, #72]
  12:Lib/DigitalInOut/DigitalInOut.hpp ****         HAL_GPIO_WritePin(port, pin, GPIO_PIN_RESET);
 227              		.loc 4 12 64 view .LVU51
 228 0046 4FF48071 		mov	r1, #256
 229 004a A4F84C10 		strh	r1, [r4, #76]	@ movhi
 230              		.loc 4 13 9 is_stmt 1 view .LVU52
 231              		.loc 4 13 26 is_stmt 0 view .LVU53
 232 004e 0022     		movs	r2, #0
 233 0050 2846     		mov	r0, r5
 234 0052 FFF7FEFF 		bl	HAL_GPIO_WritePin
 235              	.LVL13:
 236              		.loc 4 13 26 view .LVU54
 237              	.LBE52:
 238              	.LBE51:
 239              		.loc 1 5 14 view .LVU55
 240 0056 4FF48052 		mov	r2, #4096
 241 005a 3249     		ldr	r1, .L7+8
 242 005c 04F15000 		add	r0, r4, #80
 243 0060 FFF7FEFF 		bl	_ZN6ButtonC1EP12GPIO_TypeDeft
 244              	.LVL14:
 245 0064 0822     		movs	r2, #8
 246 0066 2946     		mov	r1, r5
 247 0068 04F16400 		add	r0, r4, #100
 248 006c FFF7FEFF 		bl	_ZN6ButtonC1EP12GPIO_TypeDeft
 249              	.LVL15:
 250 0070 2022     		movs	r2, #32
 251 0072 2946     		mov	r1, r5
 252 0074 04F17800 		add	r0, r4, #120
 253 0078 FFF7FEFF 		bl	_ZN6ButtonC1EP12GPIO_TypeDeft
 254              	.LVL16:
 255              	.LBB53:
 256              	.LBI53:
  12:Lib/PWMSingle/PWMSingle.hpp ****           : _htim(htim), _channel(channel), _maxValue(_htim->Init.Period) {
 257              		.loc 3 12 7 is_stmt 1 view .LVU56
 258              	.LBB54:
  13:Lib/PWMSingle/PWMSingle.hpp ****       }
 259              		.loc 3 13 13 is_stmt 0 view .LVU57
 260 007c 2A4B     		ldr	r3, .L7+12
 261 007e C4F88C30 		str	r3, [r4, #140]
  13:Lib/PWMSingle/PWMSingle.hpp ****       }
 262              		.loc 3 13 26 view .LVU58
 263 0082 0C27     		movs	r7, #12
 264 0084 C4F89070 		str	r7, [r4, #144]
  13:Lib/PWMSingle/PWMSingle.hpp ****       }
 265              		.loc 3 13 67 view .LVU59
 266 0088 DA68     		ldr	r2, [r3, #12]
  13:Lib/PWMSingle/PWMSingle.hpp ****       }
 267              		.loc 3 13 45 view .LVU60
 268 008a C4F89420 		str	r2, [r4, #148]
 269              	.LVL17:
  13:Lib/PWMSingle/PWMSingle.hpp ****       }
 270              		.loc 3 13 45 view .LVU61
 271              	.LBE54:
 272              	.LBE53:
 273              	.LBB55:
 274              	.LBI55:
ARM GAS  /var/folders/5c/srt4fy4j1pd641bjfx75k5000000gn/T//ccMJ3S1B.s 			page 7


  12:Lib/PWMSingle/PWMSingle.hpp ****           : _htim(htim), _channel(channel), _maxValue(_htim->Init.Period) {
 275              		.loc 3 12 7 is_stmt 1 view .LVU62
 276              	.LBB56:
  13:Lib/PWMSingle/PWMSingle.hpp ****       }
 277              		.loc 3 13 13 is_stmt 0 view .LVU63
 278 008e 2748     		ldr	r0, .L7+16
 279 0090 C4F89C00 		str	r0, [r4, #156]
  13:Lib/PWMSingle/PWMSingle.hpp ****       }
 280              		.loc 3 13 26 view .LVU64
 281 0094 C4F8A060 		str	r6, [r4, #160]
  13:Lib/PWMSingle/PWMSingle.hpp ****       }
 282              		.loc 3 13 67 view .LVU65
 283 0098 C568     		ldr	r5, [r0, #12]
  13:Lib/PWMSingle/PWMSingle.hpp ****       }
 284              		.loc 3 13 45 view .LVU66
 285 009a C4F8A450 		str	r5, [r4, #164]
 286              	.LVL18:
  13:Lib/PWMSingle/PWMSingle.hpp ****       }
 287              		.loc 3 13 45 view .LVU67
 288              	.LBE56:
 289              	.LBE55:
 290              	.LBB57:
 291              	.LBI57:
  12:Lib/PWMSingle/PWMSingle.hpp ****           : _htim(htim), _channel(channel), _maxValue(_htim->Init.Period) {
 292              		.loc 3 12 7 is_stmt 1 view .LVU68
 293              	.LBB58:
  13:Lib/PWMSingle/PWMSingle.hpp ****       }
 294              		.loc 3 13 13 is_stmt 0 view .LVU69
 295 009e C4F8AC30 		str	r3, [r4, #172]
  13:Lib/PWMSingle/PWMSingle.hpp ****       }
 296              		.loc 3 13 26 view .LVU70
 297 00a2 0821     		movs	r1, #8
 298 00a4 C4F8B010 		str	r1, [r4, #176]
  13:Lib/PWMSingle/PWMSingle.hpp ****       }
 299              		.loc 3 13 45 view .LVU71
 300 00a8 C4F8B420 		str	r2, [r4, #180]
 301              	.LVL19:
  13:Lib/PWMSingle/PWMSingle.hpp ****       }
 302              		.loc 3 13 45 view .LVU72
 303              	.LBE58:
 304              	.LBE57:
 305              	.LBB59:
 306              	.LBI59:
  12:Lib/PWMSingle/PWMSingle.hpp ****           : _htim(htim), _channel(channel), _maxValue(_htim->Init.Period) {
 307              		.loc 3 12 7 is_stmt 1 view .LVU73
 308              	.LBB60:
  13:Lib/PWMSingle/PWMSingle.hpp ****       }
 309              		.loc 3 13 13 is_stmt 0 view .LVU74
 310 00ac 204B     		ldr	r3, .L7+20
 311 00ae C4F8BC30 		str	r3, [r4, #188]
  13:Lib/PWMSingle/PWMSingle.hpp ****       }
 312              		.loc 3 13 26 view .LVU75
 313 00b2 0022     		movs	r2, #0
 314 00b4 C4F8C020 		str	r2, [r4, #192]
  13:Lib/PWMSingle/PWMSingle.hpp ****       }
 315              		.loc 3 13 67 view .LVU76
 316 00b8 DA68     		ldr	r2, [r3, #12]
ARM GAS  /var/folders/5c/srt4fy4j1pd641bjfx75k5000000gn/T//ccMJ3S1B.s 			page 8


  13:Lib/PWMSingle/PWMSingle.hpp ****       }
 317              		.loc 3 13 45 view .LVU77
 318 00ba C4F8C420 		str	r2, [r4, #196]
 319              	.LVL20:
  13:Lib/PWMSingle/PWMSingle.hpp ****       }
 320              		.loc 3 13 45 view .LVU78
 321              	.LBE60:
 322              	.LBE59:
 323              	.LBB61:
 324              	.LBI61:
  12:Lib/PWMSingle/PWMSingle.hpp ****           : _htim(htim), _channel(channel), _maxValue(_htim->Init.Period) {
 325              		.loc 3 12 7 is_stmt 1 view .LVU79
 326              	.LBB62:
  13:Lib/PWMSingle/PWMSingle.hpp ****       }
 327              		.loc 3 13 13 is_stmt 0 view .LVU80
 328 00be C4F8CC30 		str	r3, [r4, #204]
  13:Lib/PWMSingle/PWMSingle.hpp ****       }
 329              		.loc 3 13 26 view .LVU81
 330 00c2 C4F8D060 		str	r6, [r4, #208]
  13:Lib/PWMSingle/PWMSingle.hpp ****       }
 331              		.loc 3 13 45 view .LVU82
 332 00c6 C4F8D420 		str	r2, [r4, #212]
 333              	.LVL21:
  13:Lib/PWMSingle/PWMSingle.hpp ****       }
 334              		.loc 3 13 45 view .LVU83
 335              	.LBE62:
 336              	.LBE61:
 337              	.LBB63:
 338              	.LBI63:
  12:Lib/PWMSingle/PWMSingle.hpp ****           : _htim(htim), _channel(channel), _maxValue(_htim->Init.Period) {
 339              		.loc 3 12 7 is_stmt 1 view .LVU84
 340              	.LBB64:
  13:Lib/PWMSingle/PWMSingle.hpp ****       }
 341              		.loc 3 13 13 is_stmt 0 view .LVU85
 342 00ca C4F8DC30 		str	r3, [r4, #220]
  13:Lib/PWMSingle/PWMSingle.hpp ****       }
 343              		.loc 3 13 26 view .LVU86
 344 00ce C4F8E010 		str	r1, [r4, #224]
  13:Lib/PWMSingle/PWMSingle.hpp ****       }
 345              		.loc 3 13 45 view .LVU87
 346 00d2 C4F8E420 		str	r2, [r4, #228]
 347              	.LVL22:
  13:Lib/PWMSingle/PWMSingle.hpp ****       }
 348              		.loc 3 13 45 view .LVU88
 349              	.LBE64:
 350              	.LBE63:
 351              	.LBB65:
 352              	.LBI65:
  12:Lib/PWMSingle/PWMSingle.hpp ****           : _htim(htim), _channel(channel), _maxValue(_htim->Init.Period) {
 353              		.loc 3 12 7 is_stmt 1 view .LVU89
 354              	.LBB66:
  13:Lib/PWMSingle/PWMSingle.hpp ****       }
 355              		.loc 3 13 13 is_stmt 0 view .LVU90
 356 00d6 C4F8EC30 		str	r3, [r4, #236]
  13:Lib/PWMSingle/PWMSingle.hpp ****       }
 357              		.loc 3 13 26 view .LVU91
 358 00da C4F8F070 		str	r7, [r4, #240]
ARM GAS  /var/folders/5c/srt4fy4j1pd641bjfx75k5000000gn/T//ccMJ3S1B.s 			page 9


  13:Lib/PWMSingle/PWMSingle.hpp ****       }
 359              		.loc 3 13 45 view .LVU92
 360 00de C4F8F420 		str	r2, [r4, #244]
 361              	.LVL23:
  13:Lib/PWMSingle/PWMSingle.hpp ****       }
 362              		.loc 3 13 45 view .LVU93
 363              	.LBE66:
 364              	.LBE65:
 365              	.LBB67:
 366              	.LBI67:
  11:Lib/Buzzer/Buzzer.hpp ****           : _htim(htim), _channel(channel), _maxValue(_htim->Init.Period) {
 367              		.loc 2 11 7 is_stmt 1 view .LVU94
 368              	.LBB68:
  12:Lib/Buzzer/Buzzer.hpp ****       }
 369              		.loc 2 12 13 is_stmt 0 view .LVU95
 370 00e2 C4F8FC00 		str	r0, [r4, #252]
  12:Lib/Buzzer/Buzzer.hpp ****       }
 371              		.loc 2 12 26 view .LVU96
 372 00e6 C4F80011 		str	r1, [r4, #256]
  12:Lib/Buzzer/Buzzer.hpp ****       }
 373              		.loc 2 12 45 view .LVU97
 374 00ea C4F80451 		str	r5, [r4, #260]
 375              	.LVL24:
  12:Lib/Buzzer/Buzzer.hpp ****       }
 376              		.loc 2 12 45 view .LVU98
 377              	.LBE68:
 378              	.LBE67:
 379              		.loc 1 5 14 view .LVU99
 380 00ee 04F12603 		add	r3, r4, #38
 381 00f2 0293     		str	r3, [sp, #8]
 382 00f4 04F12403 		add	r3, r4, #36
 383 00f8 0193     		str	r3, [sp, #4]
 384 00fa 04F1EC03 		add	r3, r4, #236
 385 00fe 0093     		str	r3, [sp]
 386 0100 04F1DC03 		add	r3, r4, #220
 387 0104 04F1CC02 		add	r2, r4, #204
 388 0108 04F1BC01 		add	r1, r4, #188
 389 010c 04F58870 		add	r0, r4, #272
 390 0110 FFF7FEFF 		bl	_ZN10MotorDriveC1EP12PwmSingleOutS1_S1_S1_PtS2_
 391              	.LVL25:
 392              	.LBE42:
   6:src/unit/robot.cpp **** }
 393              		.loc 1 6 1 view .LVU100
 394 0114 2046     		mov	r0, r4
 395 0116 05B0     		add	sp, sp, #20
 396              	.LCFI4:
 397              		.cfi_def_cfa_offset 20
 398              		@ sp needed
 399 0118 F0BD     		pop	{r4, r5, r6, r7, pc}
 400              	.LVL26:
 401              	.L8:
 402              		.loc 1 6 1 view .LVU101
 403 011a 00BF     		.align	2
 404              	.L7:
 405 011c 000C0240 		.word	1073875968
 406 0120 00040240 		.word	1073873920
 407 0124 00080240 		.word	1073874944
ARM GAS  /var/folders/5c/srt4fy4j1pd641bjfx75k5000000gn/T//ccMJ3S1B.s 			page 10


 408 0128 00000000 		.word	htim3
 409 012c 00000000 		.word	htim2
 410 0130 00000000 		.word	htim1
 411              		.cfi_endproc
 412              	.LFE267:
 413              		.fnend
 415              		.global	_ZN5RobotC1Ev
 416              		.thumb_set _ZN5RobotC1Ev,_ZN5RobotC2Ev
 417              		.section	.rodata._ZN5Robot12hardwareInitEv.str1.4,"aMS",%progbits,1
 418              		.align	2
 419              	.LC1:
 420 0000 48656C6C 		.ascii	"Hello World\000"
 420      6F20576F 
 420      726C6400 
 421              		.align	2
 422              	.LC2:
 423 000c 53797374 		.ascii	"SystemCoreClock = %ld\012\000"
 423      656D436F 
 423      7265436C 
 423      6F636B20 
 423      3D20256C 
 424 0023 00       		.align	2
 425              	.LC3:
 426 0024 4144435F 		.ascii	"ADC_DMA start\000"
 426      444D4120 
 426      73746172 
 426      7400
 427              		.section	.text._ZN5Robot12hardwareInitEv,"ax",%progbits
 428              		.align	1
 429              		.global	_ZN5Robot12hardwareInitEv
 430              		.syntax unified
 431              		.thumb
 432              		.thumb_func
 434              	_ZN5Robot12hardwareInitEv:
 435              		.fnstart
 436              	.LVL27:
 437              	.LFB269:
   7:src/unit/robot.cpp **** 
   8:src/unit/robot.cpp **** void Robot::hardwareInit() {
 438              		.loc 1 8 28 is_stmt 1 view -0
 439              		.cfi_startproc
 440              		@ args = 0, pretend = 0, frame = 0
 441              		@ frame_needed = 0, uses_anonymous_args = 0
 442              		.loc 1 8 28 is_stmt 0 view .LVU103
 443 0000 38B5     		push	{r3, r4, r5, lr}
 444              		.save {r3, r4, r5, lr}
 445              	.LCFI5:
 446              		.cfi_def_cfa_offset 16
 447              		.cfi_offset 3, -16
 448              		.cfi_offset 4, -12
 449              		.cfi_offset 5, -8
 450              		.cfi_offset 14, -4
 451 0002 0446     		mov	r4, r0
   9:src/unit/robot.cpp ****       printf("Hello World\n");
 452              		.loc 1 9 7 is_stmt 1 view .LVU104
 453              		.loc 1 9 13 is_stmt 0 view .LVU105
 454 0004 1D48     		ldr	r0, .L13
ARM GAS  /var/folders/5c/srt4fy4j1pd641bjfx75k5000000gn/T//ccMJ3S1B.s 			page 11


 455              	.LVL28:
 456              		.loc 1 9 13 view .LVU106
 457 0006 FFF7FEFF 		bl	puts
 458              	.LVL29:
  10:src/unit/robot.cpp ****       printf("SystemCoreClock = %ld\n", SystemCoreClock);
 459              		.loc 1 10 7 is_stmt 1 view .LVU107
 460              		.loc 1 10 13 is_stmt 0 view .LVU108
 461 000a 1D4B     		ldr	r3, .L13+4
 462 000c 1968     		ldr	r1, [r3]
 463 000e 1D48     		ldr	r0, .L13+8
 464 0010 FFF7FEFF 		bl	printf
 465              	.LVL30:
  11:src/unit/robot.cpp **** 
  12:src/unit/robot.cpp ****       HAL_ADC_Start(&hadc1);
 466              		.loc 1 12 7 is_stmt 1 view .LVU109
 467              		.loc 1 12 20 is_stmt 0 view .LVU110
 468 0014 1C4D     		ldr	r5, .L13+12
 469 0016 2846     		mov	r0, r5
 470 0018 FFF7FEFF 		bl	HAL_ADC_Start
 471              	.LVL31:
  13:src/unit/robot.cpp ****       HAL_ADC_Start_DMA(&hadc1, (uint32_t *)&adc_get_val, 14);
 472              		.loc 1 13 7 is_stmt 1 view .LVU111
 473              		.loc 1 13 24 is_stmt 0 view .LVU112
 474 001c 0E22     		movs	r2, #14
 475 001e 1B49     		ldr	r1, .L13+16
 476 0020 2846     		mov	r0, r5
 477 0022 FFF7FEFF 		bl	HAL_ADC_Start_DMA
 478              	.LVL32:
  14:src/unit/robot.cpp ****       for (uint8_t i = 0; i < LINE_QTY; i++) {
 479              		.loc 1 14 7 is_stmt 1 view .LVU113
 480              	.LBB69:
 481              		.loc 1 14 20 is_stmt 0 view .LVU114
 482 0026 0023     		movs	r3, #0
 483              		.loc 1 14 7 view .LVU115
 484 0028 01E0     		b	.L10
 485              	.LVL33:
 486              	.L11:
 487              		.loc 1 14 7 is_stmt 1 discriminator 3 view .LVU116
 488 002a 0133     		adds	r3, r3, #1
 489              	.LVL34:
 490              		.loc 1 14 7 is_stmt 0 discriminator 3 view .LVU117
 491 002c DBB2     		uxtb	r3, r3
 492              	.LVL35:
 493              	.L10:
 494              		.loc 1 14 29 is_stmt 1 discriminator 1 view .LVU118
 495 002e 092B     		cmp	r3, #9
 496 0030 FBD9     		bls	.L11
 497              	.LBE69:
  15:src/unit/robot.cpp ****             // while (!(adc_get_val[i] > 0));
  16:src/unit/robot.cpp ****       }
  17:src/unit/robot.cpp ****       printf("ADC_DMA start\n");
 498              		.loc 1 17 7 view .LVU119
 499              		.loc 1 17 13 is_stmt 0 view .LVU120
 500 0032 1748     		ldr	r0, .L13+20
 501 0034 FFF7FEFF 		bl	puts
 502              	.LVL36:
  18:src/unit/robot.cpp **** 
ARM GAS  /var/folders/5c/srt4fy4j1pd641bjfx75k5000000gn/T//ccMJ3S1B.s 			page 12


  19:src/unit/robot.cpp ****       // 諸々の初期化
  20:src/unit/robot.cpp ****       fan.init();
 503              		.loc 1 20 7 is_stmt 1 view .LVU121
 504              		.loc 1 20 15 is_stmt 0 view .LVU122
 505 0038 04F18C00 		add	r0, r4, #140
 506 003c FFF7FEFF 		bl	_ZN12PwmSingleOut4initEv
 507              	.LVL37:
  21:src/unit/robot.cpp ****       ledH.init();
 508              		.loc 1 21 7 is_stmt 1 view .LVU123
 509              		.loc 1 21 16 is_stmt 0 view .LVU124
 510 0040 04F19C00 		add	r0, r4, #156
 511 0044 FFF7FEFF 		bl	_ZN12PwmSingleOut4initEv
 512              	.LVL38:
  22:src/unit/robot.cpp ****       lineLed.init();
 513              		.loc 1 22 7 is_stmt 1 view .LVU125
 514              		.loc 1 22 19 is_stmt 0 view .LVU126
 515 0048 04F1AC00 		add	r0, r4, #172
 516 004c FFF7FEFF 		bl	_ZN12PwmSingleOut4initEv
 517              	.LVL39:
  23:src/unit/robot.cpp ****       motor1a.init();
 518              		.loc 1 23 7 is_stmt 1 view .LVU127
 519              		.loc 1 23 19 is_stmt 0 view .LVU128
 520 0050 04F1BC00 		add	r0, r4, #188
 521 0054 FFF7FEFF 		bl	_ZN12PwmSingleOut4initEv
 522              	.LVL40:
  24:src/unit/robot.cpp ****       motor1b.init();
 523              		.loc 1 24 7 is_stmt 1 view .LVU129
 524              		.loc 1 24 19 is_stmt 0 view .LVU130
 525 0058 04F1CC00 		add	r0, r4, #204
 526 005c FFF7FEFF 		bl	_ZN12PwmSingleOut4initEv
 527              	.LVL41:
  25:src/unit/robot.cpp ****       motor2a.init();
 528              		.loc 1 25 7 is_stmt 1 view .LVU131
 529              		.loc 1 25 19 is_stmt 0 view .LVU132
 530 0060 04F1DC00 		add	r0, r4, #220
 531 0064 FFF7FEFF 		bl	_ZN12PwmSingleOut4initEv
 532              	.LVL42:
  26:src/unit/robot.cpp ****       motor2b.init();
 533              		.loc 1 26 7 is_stmt 1 view .LVU133
 534              		.loc 1 26 19 is_stmt 0 view .LVU134
 535 0068 04F1EC00 		add	r0, r4, #236
 536 006c FFF7FEFF 		bl	_ZN12PwmSingleOut4initEv
 537              	.LVL43:
  27:src/unit/robot.cpp ****       buzzer.init();
 538              		.loc 1 27 7 is_stmt 1 view .LVU135
 539              		.loc 1 27 18 is_stmt 0 view .LVU136
 540 0070 04F1FC00 		add	r0, r4, #252
 541 0074 FFF7FEFF 		bl	_ZN6Buzzer4initEv
 542              	.LVL44:
  28:src/unit/robot.cpp **** }
 543              		.loc 1 28 1 view .LVU137
 544 0078 38BD     		pop	{r3, r4, r5, pc}
 545              	.LVL45:
 546              	.L14:
 547              		.loc 1 28 1 view .LVU138
 548 007a 00BF     		.align	2
 549              	.L13:
ARM GAS  /var/folders/5c/srt4fy4j1pd641bjfx75k5000000gn/T//ccMJ3S1B.s 			page 13


 550 007c 00000000 		.word	.LC1
 551 0080 00000000 		.word	SystemCoreClock
 552 0084 0C000000 		.word	.LC2
 553 0088 00000000 		.word	hadc1
 554 008c 00000000 		.word	adc_get_val
 555 0090 24000000 		.word	.LC3
 556              		.cfi_endproc
 557              	.LFE269:
 558              		.fnend
 560              		.section	.text._ZN5Robot11LineComputeEv,"ax",%progbits
 561              		.align	1
 562              		.global	_ZN5Robot11LineComputeEv
 563              		.syntax unified
 564              		.thumb
 565              		.thumb_func
 567              	_ZN5Robot11LineComputeEv:
 568              		.fnstart
 569              	.LVL46:
 570              	.LFB271:
  29:src/unit/robot.cpp **** 
  30:src/unit/robot.cpp **** void Robot::getSensors() {
  31:src/unit/robot.cpp ****       line.val[0] = adc_get_val[13];
  32:src/unit/robot.cpp ****       line.val[1] = adc_get_val[12];
  33:src/unit/robot.cpp ****       line.val[2] = adc_get_val[11];
  34:src/unit/robot.cpp ****       line.val[3] = adc_get_val[10];
  35:src/unit/robot.cpp ****       line.val[4] = adc_get_val[9];
  36:src/unit/robot.cpp ****       line.val[5] = adc_get_val[8];
  37:src/unit/robot.cpp ****       line.val[6] = adc_get_val[7];
  38:src/unit/robot.cpp ****       line.val[7] = adc_get_val[6];
  39:src/unit/robot.cpp ****       line.val[8] = adc_get_val[5];
  40:src/unit/robot.cpp ****       line.val[9] = adc_get_val[4];
  41:src/unit/robot.cpp **** 
  42:src/unit/robot.cpp ****       encoder_val_left = adc_get_val[0];
  43:src/unit/robot.cpp ****       encoder_val_right = adc_get_val[1];
  44:src/unit/robot.cpp ****       line.left_val = adc_get_val[3];
  45:src/unit/robot.cpp ****       line.right_val = adc_get_val[2];
  46:src/unit/robot.cpp ****       LineCompute();
  47:src/unit/robot.cpp **** }
  48:src/unit/robot.cpp **** 
  49:src/unit/robot.cpp **** void Robot::LineCompute() {
 571              		.loc 1 49 27 is_stmt 1 view -0
 572              		.cfi_startproc
 573              		@ args = 0, pretend = 0, frame = 80
 574              		@ frame_needed = 0, uses_anonymous_args = 0
 575              		.loc 1 49 27 is_stmt 0 view .LVU140
 576 0000 30B5     		push	{r4, r5, lr}
 577              	.LCFI6:
 578              		.cfi_def_cfa_offset 12
 579              		.cfi_offset 4, -12
 580              		.cfi_offset 5, -8
 581              		.cfi_offset 14, -4
 582 0002 95B0     		sub	sp, sp, #84
 583              	.LCFI7:
 584              		.cfi_def_cfa_offset 96
 585 0004 8446     		mov	ip, r0
 586 0006 4FF0000E 		mov	lr, #0
  50:src/unit/robot.cpp ****       float lineVectorX[LINE_QTY] = {-45, -35, -25, -15, -5, 5, 15, 25, 35, 45};
ARM GAS  /var/folders/5c/srt4fy4j1pd641bjfx75k5000000gn/T//ccMJ3S1B.s 			page 14


 587              		.loc 1 50 7 is_stmt 1 view .LVU141
 588              		.loc 1 50 13 is_stmt 0 view .LVU142
 589 000a 0AAC     		add	r4, sp, #40
 590 000c 574D     		ldr	r5, .L40
 591 000e 0FCD     		ldmia	r5!, {r0, r1, r2, r3}
 592              	.LVL47:
 593              		.loc 1 50 13 view .LVU143
 594 0010 0FC4     		stmia	r4!, {r0, r1, r2, r3}
 595 0012 0FCD     		ldmia	r5!, {r0, r1, r2, r3}
 596 0014 0FC4     		stmia	r4!, {r0, r1, r2, r3}
 597 0016 95E80300 		ldm	r5, {r0, r1}
 598 001a 84E80300 		stm	r4, {r0, r1}
  51:src/unit/robot.cpp **** #ifdef WHITE_LINE
  52:src/unit/robot.cpp ****       uint16_t min_val = 65535;
 599              		.loc 1 52 7 is_stmt 1 view .LVU144
 600              	.LVL48:
  53:src/unit/robot.cpp ****       uint8_t min_val_num;
 601              		.loc 1 53 7 view .LVU145
  54:src/unit/robot.cpp ****       for (uint8_t i = 0; i < 10; i++) {
 602              		.loc 1 54 7 view .LVU146
 603              	.LBB70:
 604              		.loc 1 54 20 is_stmt 0 view .LVU147
 605 001e 7346     		mov	r3, lr
 606              	.LBE70:
  52:src/unit/robot.cpp ****       uint8_t min_val_num;
 607              		.loc 1 52 16 view .LVU148
 608 0020 4FF6FF71 		movw	r1, #65535
 609              	.LBB71:
 610              		.loc 1 54 7 view .LVU149
 611 0024 01E0     		b	.L16
 612              	.LVL49:
 613              	.L17:
 614              		.loc 1 54 7 is_stmt 1 discriminator 2 view .LVU150
 615 0026 0133     		adds	r3, r3, #1
 616              	.LVL50:
 617              		.loc 1 54 7 is_stmt 0 discriminator 2 view .LVU151
 618 0028 DBB2     		uxtb	r3, r3
 619              	.LVL51:
 620              	.L16:
 621              		.loc 1 54 29 is_stmt 1 discriminator 1 view .LVU152
 622 002a 092B     		cmp	r3, #9
 623 002c 06D8     		bhi	.L36
  55:src/unit/robot.cpp ****             if (min_val > line.val[i]) {
 624              		.loc 1 55 13 view .LVU153
 625              		.loc 1 55 37 is_stmt 0 view .LVU154
 626 002e 3CF81320 		ldrh	r2, [ip, r3, lsl #1]
 627              		.loc 1 55 13 view .LVU155
 628 0032 8A42     		cmp	r2, r1
 629 0034 F7D2     		bcs	.L17
  56:src/unit/robot.cpp ****                   min_val = line.val[i];
  57:src/unit/robot.cpp ****                   min_val_num = i;
 630              		.loc 1 57 31 view .LVU156
 631 0036 9E46     		mov	lr, r3
 632              	.LVL52:
  56:src/unit/robot.cpp ****                   min_val = line.val[i];
 633              		.loc 1 56 27 view .LVU157
 634 0038 1146     		mov	r1, r2
ARM GAS  /var/folders/5c/srt4fy4j1pd641bjfx75k5000000gn/T//ccMJ3S1B.s 			page 15


 635              	.LVL53:
  56:src/unit/robot.cpp ****                   min_val = line.val[i];
 636              		.loc 1 56 27 view .LVU158
 637 003a F4E7     		b	.L17
 638              	.LVL54:
 639              	.L36:
  56:src/unit/robot.cpp ****                   min_val = line.val[i];
 640              		.loc 1 56 27 view .LVU159
 641              	.LBE71:
 642              	.LBB72:
  58:src/unit/robot.cpp ****             }
  59:src/unit/robot.cpp ****       }
  60:src/unit/robot.cpp ****       uint32_t sum = 0;
  61:src/unit/robot.cpp ****       float val[10];
  62:src/unit/robot.cpp ****       for (uint8_t i = 0; i < LINE_QTY; i++) {
 643              		.loc 1 62 20 view .LVU160
 644 003c 0023     		movs	r3, #0
 645              	.LVL55:
 646              		.loc 1 62 20 view .LVU161
 647 003e 01E0     		b	.L19
 648              	.LVL56:
 649              	.L20:
 650              		.loc 1 62 7 is_stmt 1 discriminator 2 view .LVU162
 651 0040 0133     		adds	r3, r3, #1
 652              	.LVL57:
 653              		.loc 1 62 7 is_stmt 0 discriminator 2 view .LVU163
 654 0042 DBB2     		uxtb	r3, r3
 655              	.LVL58:
 656              	.L19:
 657              		.loc 1 62 29 is_stmt 1 discriminator 1 view .LVU164
 658 0044 092B     		cmp	r3, #9
 659 0046 18D8     		bhi	.L37
  63:src/unit/robot.cpp ****             val[i] = line.val[i];
 660              		.loc 1 63 13 view .LVU165
 661              		.loc 1 63 32 is_stmt 0 view .LVU166
 662 0048 3CF81320 		ldrh	r2, [ip, r3, lsl #1]
 663 004c 07EE902A 		vmov	s15, r2	@ int
 664              		.loc 1 63 20 view .LVU167
 665 0050 14AA     		add	r2, sp, #80
 666 0052 02EB8302 		add	r2, r2, r3, lsl #2
 667 0056 F8EE677A 		vcvt.f32.u32	s15, s15
 668 005a 42ED147A 		vstr.32	s15, [r2, #-80]
  64:src/unit/robot.cpp ****             if (abs(min_val_num - i) > 2) val[i] = 0;
 669              		.loc 1 64 13 is_stmt 1 view .LVU168
 670              		.loc 1 64 17 is_stmt 0 view .LVU169
 671 005e AEEB0302 		sub	r2, lr, r3
 672 0062 002A     		cmp	r2, #0
 673 0064 B8BF     		it	lt
 674 0066 5242     		rsblt	r2, r2, #0
 675              		.loc 1 64 13 view .LVU170
 676 0068 022A     		cmp	r2, #2
 677 006a E9DD     		ble	.L20
 678              		.loc 1 64 43 is_stmt 1 discriminator 1 view .LVU171
 679              		.loc 1 64 50 is_stmt 0 discriminator 1 view .LVU172
 680 006c 0021     		movs	r1, #0
 681 006e 14AA     		add	r2, sp, #80
 682 0070 02EB8302 		add	r2, r2, r3, lsl #2
ARM GAS  /var/folders/5c/srt4fy4j1pd641bjfx75k5000000gn/T//ccMJ3S1B.s 			page 16


 683 0074 42F8501C 		str	r1, [r2, #-80]	@ float
 684 0078 E2E7     		b	.L20
 685              	.L37:
 686              		.loc 1 64 50 discriminator 1 view .LVU173
 687              	.LBE72:
 688              	.LBB73:
  65:src/unit/robot.cpp ****       }
  66:src/unit/robot.cpp ****       uint16_t max_val = 0;
  67:src/unit/robot.cpp ****       for (uint8_t i = 0; i < LINE_QTY; i++) {
 689              		.loc 1 67 20 view .LVU174
 690 007a 0023     		movs	r3, #0
 691              	.LVL59:
 692              		.loc 1 67 20 view .LVU175
 693              	.LBE73:
  66:src/unit/robot.cpp ****       for (uint8_t i = 0; i < LINE_QTY; i++) {
 694              		.loc 1 66 16 view .LVU176
 695 007c 06EE103A 		vmov	s12, r3	@ int
 696 0080 01E0     		b	.L22
 697              	.LVL60:
 698              	.L23:
 699              	.LBB74:
 700              		.loc 1 67 7 is_stmt 1 discriminator 2 view .LVU177
 701 0082 0133     		adds	r3, r3, #1
 702              	.LVL61:
 703              		.loc 1 67 7 is_stmt 0 discriminator 2 view .LVU178
 704 0084 DBB2     		uxtb	r3, r3
 705              	.LVL62:
 706              	.L22:
 707              		.loc 1 67 29 is_stmt 1 discriminator 1 view .LVU179
 708 0086 092B     		cmp	r3, #9
 709 0088 18D8     		bhi	.L38
  68:src/unit/robot.cpp ****             if (max_val < val[i] && val[i] != 0) {
 710              		.loc 1 68 13 view .LVU180
 711              		.loc 1 68 25 is_stmt 0 view .LVU181
 712 008a F8EEC67A 		vcvt.f32.s32	s15, s12
 713              		.loc 1 68 32 view .LVU182
 714 008e 14AA     		add	r2, sp, #80
 715 0090 02EB8302 		add	r2, r2, r3, lsl #2
 716 0094 12ED147A 		vldr.32	s14, [r2, #-80]
 717              		.loc 1 68 13 view .LVU183
 718 0098 F4EEC77A 		vcmpe.f32	s15, s14
 719 009c F1EE10FA 		vmrs	APSR_nzcv, FPSCR
 720 00a0 EFD5     		bpl	.L23
 721              		.loc 1 68 34 discriminator 1 view .LVU184
 722 00a2 B5EE407A 		vcmp.f32	s14, #0
 723 00a6 F1EE10FA 		vmrs	APSR_nzcv, FPSCR
 724 00aa EAD0     		beq	.L23
  69:src/unit/robot.cpp ****                   max_val = val[i];
 725              		.loc 1 69 19 is_stmt 1 view .LVU185
 726              		.loc 1 69 27 is_stmt 0 view .LVU186
 727 00ac BCEEC77A 		vcvt.u32.f32	s14, s14
 728 00b0 17EE102A 		vmov	r2, s14	@ int
 729 00b4 92B2     		uxth	r2, r2
 730 00b6 06EE102A 		vmov	s12, r2	@ int
 731              	.LVL63:
 732              		.loc 1 69 27 view .LVU187
 733 00ba E2E7     		b	.L23
ARM GAS  /var/folders/5c/srt4fy4j1pd641bjfx75k5000000gn/T//ccMJ3S1B.s 			page 17


 734              	.L38:
 735              		.loc 1 69 27 view .LVU188
 736              	.LBE74:
 737              	.LBB75:
  70:src/unit/robot.cpp ****             }
  71:src/unit/robot.cpp ****       }
  72:src/unit/robot.cpp ****       for (int8_t i = 0; i < LINE_QTY; i++) {
 738              		.loc 1 72 19 view .LVU189
 739 00bc 0023     		movs	r3, #0
 740              	.LVL64:
 741              		.loc 1 72 19 view .LVU190
 742              	.LBE75:
  60:src/unit/robot.cpp ****       float val[10];
 743              		.loc 1 60 16 view .LVU191
 744 00be 07EE903A 		vmov	s15, r3	@ int
 745 00c2 0CE0     		b	.L26
 746              	.LVL65:
 747              	.L27:
 748              	.LBB76:
  73:src/unit/robot.cpp ****             if (val[i] != 0) val[i] = max_val - val[i];
  74:src/unit/robot.cpp ****             sum += val[i];
 749              		.loc 1 74 13 is_stmt 1 discriminator 2 view .LVU192
 750              		.loc 1 74 25 is_stmt 0 discriminator 2 view .LVU193
 751 00c4 14A9     		add	r1, sp, #80
 752 00c6 01EB8202 		add	r2, r1, r2, lsl #2
 753 00ca 12ED147A 		vldr.32	s14, [r2, #-80]
 754              		.loc 1 74 17 discriminator 2 view .LVU194
 755 00ce F8EE677A 		vcvt.f32.u32	s15, s15
 756              	.LVL66:
 757              		.loc 1 74 17 discriminator 2 view .LVU195
 758 00d2 77EE877A 		vadd.f32	s15, s15, s14
 759 00d6 FCEEE77A 		vcvt.u32.f32	s15, s15
 760              	.LVL67:
  72:src/unit/robot.cpp ****             if (val[i] != 0) val[i] = max_val - val[i];
 761              		.loc 1 72 7 is_stmt 1 discriminator 2 view .LVU196
 762 00da 0133     		adds	r3, r3, #1
 763              	.LVL68:
  72:src/unit/robot.cpp ****             if (val[i] != 0) val[i] = max_val - val[i];
 764              		.loc 1 72 7 is_stmt 0 discriminator 2 view .LVU197
 765 00dc 5BB2     		sxtb	r3, r3
 766              	.LVL69:
 767              	.L26:
  72:src/unit/robot.cpp ****             if (val[i] != 0) val[i] = max_val - val[i];
 768              		.loc 1 72 28 is_stmt 1 discriminator 1 view .LVU198
 769 00de 092B     		cmp	r3, #9
 770 00e0 14DC     		bgt	.L39
  73:src/unit/robot.cpp ****             if (val[i] != 0) val[i] = max_val - val[i];
 771              		.loc 1 73 13 view .LVU199
  73:src/unit/robot.cpp ****             if (val[i] != 0) val[i] = max_val - val[i];
 772              		.loc 1 73 21 is_stmt 0 view .LVU200
 773 00e2 1A46     		mov	r2, r3
  73:src/unit/robot.cpp ****             if (val[i] != 0) val[i] = max_val - val[i];
 774              		.loc 1 73 22 view .LVU201
 775 00e4 14A9     		add	r1, sp, #80
 776 00e6 01EB8301 		add	r1, r1, r3, lsl #2
 777 00ea 11ED147A 		vldr.32	s14, [r1, #-80]
  73:src/unit/robot.cpp ****             if (val[i] != 0) val[i] = max_val - val[i];
ARM GAS  /var/folders/5c/srt4fy4j1pd641bjfx75k5000000gn/T//ccMJ3S1B.s 			page 18


 778              		.loc 1 73 13 view .LVU202
 779 00ee B5EE407A 		vcmp.f32	s14, #0
 780 00f2 F1EE10FA 		vmrs	APSR_nzcv, FPSCR
 781 00f6 E5D0     		beq	.L27
  73:src/unit/robot.cpp ****             if (val[i] != 0) val[i] = max_val - val[i];
 782              		.loc 1 73 30 is_stmt 1 discriminator 1 view .LVU203
  73:src/unit/robot.cpp ****             if (val[i] != 0) val[i] = max_val - val[i];
 783              		.loc 1 73 47 is_stmt 0 discriminator 1 view .LVU204
 784 00f8 F8EEC66A 		vcvt.f32.s32	s13, s12
 785 00fc 36EEC77A 		vsub.f32	s14, s13, s14
  73:src/unit/robot.cpp ****             if (val[i] != 0) val[i] = max_val - val[i];
 786              		.loc 1 73 37 discriminator 1 view .LVU205
 787 0100 14A9     		add	r1, sp, #80
 788 0102 01EB8301 		add	r1, r1, r3, lsl #2
 789 0106 01ED147A 		vstr.32	s14, [r1, #-80]
 790 010a DBE7     		b	.L27
 791              	.L39:
 792              	.LBE76:
 793              	.LBB77:
  75:src/unit/robot.cpp ****       }
  76:src/unit/robot.cpp ****       for (uint8_t i = 0; i < LINE_QTY; i++) {
 794              		.loc 1 76 20 view .LVU206
 795 010c 0023     		movs	r3, #0
 796              	.LVL70:
 797              		.loc 1 76 20 view .LVU207
 798 010e 10E0     		b	.L29
 799              	.LVL71:
 800              	.L30:
  77:src/unit/robot.cpp ****             val[i] *= (1.0f / sum);
 801              		.loc 1 77 13 is_stmt 1 discriminator 3 view .LVU208
 802              		.loc 1 77 18 is_stmt 0 discriminator 3 view .LVU209
 803 0110 14AA     		add	r2, sp, #80
 804 0112 02EB8302 		add	r2, r2, r3, lsl #2
 805 0116 12ED147A 		vldr.32	s14, [r2, #-80]
 806              		.loc 1 77 29 discriminator 3 view .LVU210
 807 011a B8EE676A 		vcvt.f32.u32	s12, s15
 808 011e F7EE005A 		vmov.f32	s11, #1.0e+0
 809 0122 C5EE866A 		vdiv.f32	s13, s11, s12
 810              		.loc 1 77 20 discriminator 3 view .LVU211
 811 0126 27EE267A 		vmul.f32	s14, s14, s13
 812 012a 02ED147A 		vstr.32	s14, [r2, #-80]
  76:src/unit/robot.cpp ****             val[i] *= (1.0f / sum);
 813              		.loc 1 76 7 is_stmt 1 discriminator 3 view .LVU212
 814 012e 0133     		adds	r3, r3, #1
 815              	.LVL72:
  76:src/unit/robot.cpp ****             val[i] *= (1.0f / sum);
 816              		.loc 1 76 7 is_stmt 0 discriminator 3 view .LVU213
 817 0130 DBB2     		uxtb	r3, r3
 818              	.LVL73:
 819              	.L29:
  76:src/unit/robot.cpp ****             val[i] *= (1.0f / sum);
 820              		.loc 1 76 29 is_stmt 1 discriminator 1 view .LVU214
 821 0132 092B     		cmp	r3, #9
 822 0134 ECD9     		bls	.L30
 823              	.LBE77:
  78:src/unit/robot.cpp ****       }
  79:src/unit/robot.cpp ****       line.position = 0;
ARM GAS  /var/folders/5c/srt4fy4j1pd641bjfx75k5000000gn/T//ccMJ3S1B.s 			page 19


 824              		.loc 1 79 7 view .LVU215
 825              		.loc 1 79 21 is_stmt 0 view .LVU216
 826 0136 0023     		movs	r3, #0
 827              	.LVL74:
 828              		.loc 1 79 21 view .LVU217
 829 0138 CCF81430 		str	r3, [ip, #20]	@ float
  80:src/unit/robot.cpp ****       for (uint8_t i = 0; i < LINE_QTY; i++) {
 830              		.loc 1 80 7 is_stmt 1 view .LVU218
 831              	.LVL75:
 832              	.LBB78:
 833              		.loc 1 80 20 is_stmt 0 view .LVU219
 834 013c 0023     		movs	r3, #0
 835              		.loc 1 80 7 view .LVU220
 836 013e 10E0     		b	.L31
 837              	.LVL76:
 838              	.L32:
  81:src/unit/robot.cpp ****             line.position += val[i] * lineVectorX[i];
 839              		.loc 1 81 13 is_stmt 1 discriminator 3 view .LVU221
 840              		.loc 1 81 18 is_stmt 0 discriminator 3 view .LVU222
 841 0140 DCED057A 		vldr.32	s15, [ip, #20]
 842              		.loc 1 81 35 discriminator 3 view .LVU223
 843 0144 14AA     		add	r2, sp, #80
 844 0146 02EB8302 		add	r2, r2, r3, lsl #2
 845 014a 12ED147A 		vldr.32	s14, [r2, #-80]
 846              		.loc 1 81 52 discriminator 3 view .LVU224
 847 014e 52ED0A6A 		vldr.32	s13, [r2, #-40]
 848              		.loc 1 81 37 discriminator 3 view .LVU225
 849 0152 27EE267A 		vmul.f32	s14, s14, s13
 850              		.loc 1 81 27 discriminator 3 view .LVU226
 851 0156 77EE877A 		vadd.f32	s15, s15, s14
 852 015a CCED057A 		vstr.32	s15, [ip, #20]
  80:src/unit/robot.cpp ****       for (uint8_t i = 0; i < LINE_QTY; i++) {
 853              		.loc 1 80 7 is_stmt 1 discriminator 3 view .LVU227
 854 015e 0133     		adds	r3, r3, #1
 855              	.LVL77:
  80:src/unit/robot.cpp ****       for (uint8_t i = 0; i < LINE_QTY; i++) {
 856              		.loc 1 80 7 is_stmt 0 discriminator 3 view .LVU228
 857 0160 DBB2     		uxtb	r3, r3
 858              	.LVL78:
 859              	.L31:
  80:src/unit/robot.cpp ****       for (uint8_t i = 0; i < LINE_QTY; i++) {
 860              		.loc 1 80 29 is_stmt 1 discriminator 1 view .LVU229
 861 0162 092B     		cmp	r3, #9
 862 0164 ECD9     		bls	.L32
 863              	.LBE78:
  82:src/unit/robot.cpp ****       }
  83:src/unit/robot.cpp **** #endif
  84:src/unit/robot.cpp **** #ifdef BLACK_LINE
  85:src/unit/robot.cpp ****       uint16_t max_val = 0;
  86:src/unit/robot.cpp ****       uint8_t max_val_num;
  87:src/unit/robot.cpp ****       for (uint8_t i = 0; i < 10; i++) {
  88:src/unit/robot.cpp ****             if (max_val < line.val[i]) {
  89:src/unit/robot.cpp ****                   max_val = line.val[i];
  90:src/unit/robot.cpp ****                   max_val_num = i;
  91:src/unit/robot.cpp ****             }
  92:src/unit/robot.cpp ****       }
  93:src/unit/robot.cpp ****       uint32_t sum = 0;
ARM GAS  /var/folders/5c/srt4fy4j1pd641bjfx75k5000000gn/T//ccMJ3S1B.s 			page 20


  94:src/unit/robot.cpp ****       float val[10];
  95:src/unit/robot.cpp ****       for (uint8_t i = 0; i < LINE_QTY; i++) {
  96:src/unit/robot.cpp ****             val[i] = line.val[i];
  97:src/unit/robot.cpp ****             if (abs(max_val_num - i) > 2) val[i] = 0;
  98:src/unit/robot.cpp ****       }
  99:src/unit/robot.cpp ****       uint16_t min_val = 65535;
 100:src/unit/robot.cpp ****       for (uint8_t i = 0; i < LINE_QTY; i++) {
 101:src/unit/robot.cpp ****             if (min_val > val[i] && val[i] != 0) {
 102:src/unit/robot.cpp ****                   min_val = val[i];
 103:src/unit/robot.cpp ****             }
 104:src/unit/robot.cpp ****       }
 105:src/unit/robot.cpp ****       for (int8_t i = 0; i < LINE_QTY; i++) {
 106:src/unit/robot.cpp ****             if (val[i] != 0) val[i] -= min_val;
 107:src/unit/robot.cpp ****             sum += val[i];
 108:src/unit/robot.cpp ****       }
 109:src/unit/robot.cpp ****       for (uint8_t i = 0; i < LINE_QTY; i++) {
 110:src/unit/robot.cpp ****             val[i] *= (1.0f / sum);
 111:src/unit/robot.cpp ****       }
 112:src/unit/robot.cpp ****       line.position = 0;
 113:src/unit/robot.cpp ****       for (uint8_t i = 0; i < LINE_QTY; i++) {
 114:src/unit/robot.cpp ****             line.position += val[i] * lineVectorX[i];
 115:src/unit/robot.cpp ****       }
 116:src/unit/robot.cpp **** #endif
 117:src/unit/robot.cpp **** }...
 864              		.loc 1 117 1 is_stmt 0 view .LVU230
 865 0166 15B0     		add	sp, sp, #84
 866              	.LCFI8:
 867              		.cfi_def_cfa_offset 12
 868              		@ sp needed
 869 0168 30BD     		pop	{r4, r5, pc}
 870              	.L41:
 871 016a 00BF     		.align	2
 872              	.L40:
 873 016c 00000000 		.word	.LANCHOR0
 874              		.cfi_endproc
 875              	.LFE271:
 876              		.cantunwind
 877              		.fnend
 879              		.section	.text._ZN5Robot10getSensorsEv,"ax",%progbits
 880              		.align	1
 881              		.global	_ZN5Robot10getSensorsEv
 882              		.syntax unified
 883              		.thumb
 884              		.thumb_func
 886              	_ZN5Robot10getSensorsEv:
 887              		.fnstart
 888              	.LVL79:
 889              	.LFB270:
  30:src/unit/robot.cpp **** void Robot::getSensors() {
 890              		.loc 1 30 26 is_stmt 1 view -0
 891              		.cfi_startproc
 892              		@ args = 0, pretend = 0, frame = 0
 893              		@ frame_needed = 0, uses_anonymous_args = 0
  30:src/unit/robot.cpp **** void Robot::getSensors() {
 894              		.loc 1 30 26 is_stmt 0 view .LVU232
 895 0000 08B5     		push	{r3, lr}
 896              	.LCFI9:
ARM GAS  /var/folders/5c/srt4fy4j1pd641bjfx75k5000000gn/T//ccMJ3S1B.s 			page 21


 897              		.cfi_def_cfa_offset 8
 898              		.cfi_offset 3, -8
 899              		.cfi_offset 14, -4
  31:src/unit/robot.cpp ****       line.val[0] = adc_get_val[13];
 900              		.loc 1 31 7 is_stmt 1 view .LVU233
  31:src/unit/robot.cpp ****       line.val[0] = adc_get_val[13];
 901              		.loc 1 31 35 is_stmt 0 view .LVU234
 902 0002 104A     		ldr	r2, .L44
 903 0004 518B     		ldrh	r1, [r2, #26]
  31:src/unit/robot.cpp ****       line.val[0] = adc_get_val[13];
 904              		.loc 1 31 19 view .LVU235
 905 0006 0180     		strh	r1, [r0]	@ movhi
  32:src/unit/robot.cpp ****       line.val[1] = adc_get_val[12];
 906              		.loc 1 32 7 is_stmt 1 view .LVU236
  32:src/unit/robot.cpp ****       line.val[1] = adc_get_val[12];
 907              		.loc 1 32 35 is_stmt 0 view .LVU237
 908 0008 118B     		ldrh	r1, [r2, #24]
  32:src/unit/robot.cpp ****       line.val[1] = adc_get_val[12];
 909              		.loc 1 32 19 view .LVU238
 910 000a 4180     		strh	r1, [r0, #2]	@ movhi
  33:src/unit/robot.cpp ****       line.val[2] = adc_get_val[11];
 911              		.loc 1 33 7 is_stmt 1 view .LVU239
  33:src/unit/robot.cpp ****       line.val[2] = adc_get_val[11];
 912              		.loc 1 33 35 is_stmt 0 view .LVU240
 913 000c D18A     		ldrh	r1, [r2, #22]
  33:src/unit/robot.cpp ****       line.val[2] = adc_get_val[11];
 914              		.loc 1 33 19 view .LVU241
 915 000e 8180     		strh	r1, [r0, #4]	@ movhi
  34:src/unit/robot.cpp ****       line.val[3] = adc_get_val[10];
 916              		.loc 1 34 7 is_stmt 1 view .LVU242
  34:src/unit/robot.cpp ****       line.val[3] = adc_get_val[10];
 917              		.loc 1 34 35 is_stmt 0 view .LVU243
 918 0010 918A     		ldrh	r1, [r2, #20]
  34:src/unit/robot.cpp ****       line.val[3] = adc_get_val[10];
 919              		.loc 1 34 19 view .LVU244
 920 0012 C180     		strh	r1, [r0, #6]	@ movhi
  35:src/unit/robot.cpp ****       line.val[4] = adc_get_val[9];
 921              		.loc 1 35 7 is_stmt 1 view .LVU245
  35:src/unit/robot.cpp ****       line.val[4] = adc_get_val[9];
 922              		.loc 1 35 34 is_stmt 0 view .LVU246
 923 0014 518A     		ldrh	r1, [r2, #18]
  35:src/unit/robot.cpp ****       line.val[4] = adc_get_val[9];
 924              		.loc 1 35 19 view .LVU247
 925 0016 0181     		strh	r1, [r0, #8]	@ movhi
  36:src/unit/robot.cpp ****       line.val[5] = adc_get_val[8];
 926              		.loc 1 36 7 is_stmt 1 view .LVU248
  36:src/unit/robot.cpp ****       line.val[5] = adc_get_val[8];
 927              		.loc 1 36 34 is_stmt 0 view .LVU249
 928 0018 118A     		ldrh	r1, [r2, #16]
  36:src/unit/robot.cpp ****       line.val[5] = adc_get_val[8];
 929              		.loc 1 36 19 view .LVU250
 930 001a 4181     		strh	r1, [r0, #10]	@ movhi
  37:src/unit/robot.cpp ****       line.val[6] = adc_get_val[7];
 931              		.loc 1 37 7 is_stmt 1 view .LVU251
  37:src/unit/robot.cpp ****       line.val[6] = adc_get_val[7];
 932              		.loc 1 37 34 is_stmt 0 view .LVU252
 933 001c D189     		ldrh	r1, [r2, #14]
ARM GAS  /var/folders/5c/srt4fy4j1pd641bjfx75k5000000gn/T//ccMJ3S1B.s 			page 22


  37:src/unit/robot.cpp ****       line.val[6] = adc_get_val[7];
 934              		.loc 1 37 19 view .LVU253
 935 001e 8181     		strh	r1, [r0, #12]	@ movhi
  38:src/unit/robot.cpp ****       line.val[7] = adc_get_val[6];
 936              		.loc 1 38 7 is_stmt 1 view .LVU254
  38:src/unit/robot.cpp ****       line.val[7] = adc_get_val[6];
 937              		.loc 1 38 34 is_stmt 0 view .LVU255
 938 0020 9189     		ldrh	r1, [r2, #12]
  38:src/unit/robot.cpp ****       line.val[7] = adc_get_val[6];
 939              		.loc 1 38 19 view .LVU256
 940 0022 C181     		strh	r1, [r0, #14]	@ movhi
  39:src/unit/robot.cpp ****       line.val[8] = adc_get_val[5];
 941              		.loc 1 39 7 is_stmt 1 view .LVU257
  39:src/unit/robot.cpp ****       line.val[8] = adc_get_val[5];
 942              		.loc 1 39 34 is_stmt 0 view .LVU258
 943 0024 5189     		ldrh	r1, [r2, #10]
  39:src/unit/robot.cpp ****       line.val[8] = adc_get_val[5];
 944              		.loc 1 39 19 view .LVU259
 945 0026 0182     		strh	r1, [r0, #16]	@ movhi
  40:src/unit/robot.cpp ****       line.val[9] = adc_get_val[4];
 946              		.loc 1 40 7 is_stmt 1 view .LVU260
  40:src/unit/robot.cpp ****       line.val[9] = adc_get_val[4];
 947              		.loc 1 40 34 is_stmt 0 view .LVU261
 948 0028 1189     		ldrh	r1, [r2, #8]
  40:src/unit/robot.cpp ****       line.val[9] = adc_get_val[4];
 949              		.loc 1 40 19 view .LVU262
 950 002a 4182     		strh	r1, [r0, #18]	@ movhi
  42:src/unit/robot.cpp ****       encoder_val_left = adc_get_val[0];
 951              		.loc 1 42 7 is_stmt 1 view .LVU263
  42:src/unit/robot.cpp ****       encoder_val_left = adc_get_val[0];
 952              		.loc 1 42 39 is_stmt 0 view .LVU264
 953 002c 1188     		ldrh	r1, [r2]
  42:src/unit/robot.cpp ****       encoder_val_left = adc_get_val[0];
 954              		.loc 1 42 24 view .LVU265
 955 002e 8184     		strh	r1, [r0, #36]	@ movhi
  43:src/unit/robot.cpp ****       encoder_val_right = adc_get_val[1];
 956              		.loc 1 43 7 is_stmt 1 view .LVU266
  43:src/unit/robot.cpp ****       encoder_val_right = adc_get_val[1];
 957              		.loc 1 43 40 is_stmt 0 view .LVU267
 958 0030 5188     		ldrh	r1, [r2, #2]
  43:src/unit/robot.cpp ****       encoder_val_right = adc_get_val[1];
 959              		.loc 1 43 25 view .LVU268
 960 0032 C184     		strh	r1, [r0, #38]	@ movhi
  44:src/unit/robot.cpp ****       line.left_val = adc_get_val[3];
 961              		.loc 1 44 7 is_stmt 1 view .LVU269
  44:src/unit/robot.cpp ****       line.left_val = adc_get_val[3];
 962              		.loc 1 44 36 is_stmt 0 view .LVU270
 963 0034 D188     		ldrh	r1, [r2, #6]
  44:src/unit/robot.cpp ****       line.left_val = adc_get_val[3];
 964              		.loc 1 44 21 view .LVU271
 965 0036 0183     		strh	r1, [r0, #24]	@ movhi
  45:src/unit/robot.cpp ****       line.right_val = adc_get_val[2];
 966              		.loc 1 45 7 is_stmt 1 view .LVU272
  45:src/unit/robot.cpp ****       line.right_val = adc_get_val[2];
 967              		.loc 1 45 37 is_stmt 0 view .LVU273
 968 0038 9288     		ldrh	r2, [r2, #4]
  45:src/unit/robot.cpp ****       line.right_val = adc_get_val[2];
ARM GAS  /var/folders/5c/srt4fy4j1pd641bjfx75k5000000gn/T//ccMJ3S1B.s 			page 23


 969              		.loc 1 45 22 view .LVU274
 970 003a 4283     		strh	r2, [r0, #26]	@ movhi
  46:src/unit/robot.cpp ****       LineCompute();
 971              		.loc 1 46 7 is_stmt 1 view .LVU275
  46:src/unit/robot.cpp ****       LineCompute();
 972              		.loc 1 46 18 is_stmt 0 view .LVU276
 973 003c FFF7FEFF 		bl	_ZN5Robot11LineComputeEv
 974              	.LVL80:
  47:src/unit/robot.cpp **** }
 975              		.loc 1 47 1 view .LVU277
 976 0040 08BD     		pop	{r3, pc}
 977              	.L45:
 978 0042 00BF     		.align	2
 979              	.L44:
 980 0044 00000000 		.word	adc_get_val
 981              		.cfi_endproc
 982              	.LFE270:
 983              		.cantunwind
 984              		.fnend
 986              		.global	adc_get_val
 987              		.section	.bss.adc_get_val,"aw",%nobits
 988              		.align	2
 991              	adc_get_val:
 992 0000 00000000 		.space	28
 992      00000000 
 992      00000000 
 992      00000000 
 992      00000000 
 993              		.section	.rodata
 994              		.align	2
 995              		.set	.LANCHOR0,. + 0
 996              	.LC0:
 997 0000 000034C2 		.word	-1036779520
 998 0004 00000CC2 		.word	-1039400960
 999 0008 0000C8C1 		.word	-1043857408
 1000 000c 000070C1 		.word	-1049624576
 1001 0010 0000A0C0 		.word	-1063256064
 1002 0014 0000A040 		.word	1084227584
 1003 0018 00007041 		.word	1097859072
 1004 001c 0000C841 		.word	1103626240
 1005 0020 00000C42 		.word	1108082688
 1006 0024 00003442 		.word	1110704128
 1007              		.text
 1008              	.Letext0:
 1009              		.file 5 "/opt/ST/STM32CubeCLT_1.16.0/GNU-tools-for-STM32/arm-none-eabi/include/machine/_default_ty
 1010              		.file 6 "/opt/ST/STM32CubeCLT_1.16.0/GNU-tools-for-STM32/arm-none-eabi/include/sys/_stdint.h"
 1011              		.file 7 "Drivers/CMSIS/Device/ST/STM32F4xx/Include/stm32f446xx.h"
 1012              		.file 8 "Drivers/CMSIS/Device/ST/STM32F4xx/Include/stm32f4xx.h"
 1013              		.file 9 "/opt/ST/STM32CubeCLT_1.16.0/GNU-tools-for-STM32/lib/gcc/arm-none-eabi/12.3.1/include/stdd
 1014              		.file 10 "Drivers/STM32F4xx_HAL_Driver/Inc/stm32f4xx_hal_def.h"
 1015              		.file 11 "Drivers/STM32F4xx_HAL_Driver/Inc/stm32f4xx_hal_gpio.h"
 1016              		.file 12 "Drivers/STM32F4xx_HAL_Driver/Inc/stm32f4xx_hal_dma.h"
 1017              		.file 13 "Drivers/STM32F4xx_HAL_Driver/Inc/stm32f4xx_hal_adc.h"
 1018              		.file 14 "Drivers/STM32F4xx_HAL_Driver/Inc/stm32f4xx_hal_tim.h"
 1019              		.file 15 "Drivers/STM32F4xx_HAL_Driver/Inc/stm32f4xx_hal.h"
 1020              		.file 16 "Lib/Timer/Timer.hpp"
 1021              		.file 17 "Lib/Button/Button.hpp"
ARM GAS  /var/folders/5c/srt4fy4j1pd641bjfx75k5000000gn/T//ccMJ3S1B.s 			page 24


 1022              		.file 18 "Drivers/CMSIS/Device/ST/STM32F4xx/Include/system_stm32f4xx.h"
 1023              		.file 19 "Core/Inc/tim.h"
 1024              		.file 20 "/opt/ST/STM32CubeCLT_1.16.0/GNU-tools-for-STM32/arm-none-eabi/include/c++/12.3.1/cstdio"
 1025              		.file 21 "/opt/ST/STM32CubeCLT_1.16.0/GNU-tools-for-STM32/arm-none-eabi/include/c++/12.3.1/arm-non
 1026              		.file 22 "/opt/ST/STM32CubeCLT_1.16.0/GNU-tools-for-STM32/arm-none-eabi/include/sys/_types.h"
 1027              		.file 23 "/opt/ST/STM32CubeCLT_1.16.0/GNU-tools-for-STM32/arm-none-eabi/include/sys/reent.h"
 1028              		.file 24 "/opt/ST/STM32CubeCLT_1.16.0/GNU-tools-for-STM32/arm-none-eabi/include/sys/lock.h"
 1029              		.file 25 "/opt/ST/STM32CubeCLT_1.16.0/GNU-tools-for-STM32/arm-none-eabi/include/stdio.h"
 1030              		.file 26 "Core/Inc/adc.h"
 1031              		.file 27 "src/unit/motor_drive.hpp"
 1032              		.file 28 "src/unit/robot.hpp"
ARM GAS  /var/folders/5c/srt4fy4j1pd641bjfx75k5000000gn/T//ccMJ3S1B.s 			page 25


DEFINED SYMBOLS
                            *ABS*:00000000 robot.cpp
/var/folders/5c/srt4fy4j1pd641bjfx75k5000000gn/T//ccMJ3S1B.s:21     .text._ZN6Buzzer4initEv:00000000 $t
/var/folders/5c/srt4fy4j1pd641bjfx75k5000000gn/T//ccMJ3S1B.s:27     .text._ZN6Buzzer4initEv:00000000 _ZN6Buzzer4initEv
.ARM.exidx.text._ZN6Buzzer4initEv:00000000 $d
/var/folders/5c/srt4fy4j1pd641bjfx75k5000000gn/T//ccMJ3S1B.s:67     .text._ZN12PwmSingleOut4initEv:00000000 $t
/var/folders/5c/srt4fy4j1pd641bjfx75k5000000gn/T//ccMJ3S1B.s:73     .text._ZN12PwmSingleOut4initEv:00000000 _ZN12PwmSingleOut4initEv
.ARM.exidx.text._ZN12PwmSingleOut4initEv:00000000 $d
/var/folders/5c/srt4fy4j1pd641bjfx75k5000000gn/T//ccMJ3S1B.s:113    .text._ZN5RobotC2Ev:00000000 $t
/var/folders/5c/srt4fy4j1pd641bjfx75k5000000gn/T//ccMJ3S1B.s:119    .text._ZN5RobotC2Ev:00000000 _ZN5RobotC2Ev
/var/folders/5c/srt4fy4j1pd641bjfx75k5000000gn/T//ccMJ3S1B.s:405    .text._ZN5RobotC2Ev:0000011c $d
    .ARM.exidx.text._ZN5RobotC2Ev:00000000 $d
/var/folders/5c/srt4fy4j1pd641bjfx75k5000000gn/T//ccMJ3S1B.s:119    .text._ZN5RobotC2Ev:00000000 _ZN5RobotC1Ev
/var/folders/5c/srt4fy4j1pd641bjfx75k5000000gn/T//ccMJ3S1B.s:418    .rodata._ZN5Robot12hardwareInitEv.str1.4:00000000 $d
/var/folders/5c/srt4fy4j1pd641bjfx75k5000000gn/T//ccMJ3S1B.s:428    .text._ZN5Robot12hardwareInitEv:00000000 $t
/var/folders/5c/srt4fy4j1pd641bjfx75k5000000gn/T//ccMJ3S1B.s:434    .text._ZN5Robot12hardwareInitEv:00000000 _ZN5Robot12hardwareInitEv
/var/folders/5c/srt4fy4j1pd641bjfx75k5000000gn/T//ccMJ3S1B.s:550    .text._ZN5Robot12hardwareInitEv:0000007c $d
/var/folders/5c/srt4fy4j1pd641bjfx75k5000000gn/T//ccMJ3S1B.s:991    .bss.adc_get_val:00000000 adc_get_val
.ARM.exidx.text._ZN5Robot12hardwareInitEv:00000000 $d
/var/folders/5c/srt4fy4j1pd641bjfx75k5000000gn/T//ccMJ3S1B.s:561    .text._ZN5Robot11LineComputeEv:00000000 $t
/var/folders/5c/srt4fy4j1pd641bjfx75k5000000gn/T//ccMJ3S1B.s:567    .text._ZN5Robot11LineComputeEv:00000000 _ZN5Robot11LineComputeEv
/var/folders/5c/srt4fy4j1pd641bjfx75k5000000gn/T//ccMJ3S1B.s:873    .text._ZN5Robot11LineComputeEv:0000016c $d
.ARM.exidx.text._ZN5Robot11LineComputeEv:00000000 $d
/var/folders/5c/srt4fy4j1pd641bjfx75k5000000gn/T//ccMJ3S1B.s:880    .text._ZN5Robot10getSensorsEv:00000000 $t
/var/folders/5c/srt4fy4j1pd641bjfx75k5000000gn/T//ccMJ3S1B.s:886    .text._ZN5Robot10getSensorsEv:00000000 _ZN5Robot10getSensorsEv
/var/folders/5c/srt4fy4j1pd641bjfx75k5000000gn/T//ccMJ3S1B.s:980    .text._ZN5Robot10getSensorsEv:00000044 $d
.ARM.exidx.text._ZN5Robot10getSensorsEv:00000000 $d
/var/folders/5c/srt4fy4j1pd641bjfx75k5000000gn/T//ccMJ3S1B.s:988    .bss.adc_get_val:00000000 $d
/var/folders/5c/srt4fy4j1pd641bjfx75k5000000gn/T//ccMJ3S1B.s:994    .rodata:00000000 $d

UNDEFINED SYMBOLS
HAL_TIM_PWM_Start
__aeabi_unwind_cpp_pr0
HAL_GPIO_WritePin
_ZN6ButtonC1EP12GPIO_TypeDeft
_ZN10MotorDriveC1EP12PwmSingleOutS1_S1_S1_PtS2_
htim3
htim2
htim1
puts
printf
HAL_ADC_Start
HAL_ADC_Start_DMA
SystemCoreClock
hadc1
