ARM GAS  /var/folders/5c/srt4fy4j1pd641bjfx75k5000000gn/T//ccTB0Fp6.s 			page 1


   1              		.cpu cortex-m4
   2              		.arch armv7e-m
   3              		.fpu fpv4-sp-d16
   4              		.eabi_attribute 27, 1
   5              		.eabi_attribute 28, 1
   6              		.eabi_attribute 20, 1
   7              		.eabi_attribute 21, 1
   8              		.eabi_attribute 23, 3
   9              		.eabi_attribute 24, 1
  10              		.eabi_attribute 25, 1
  11              		.eabi_attribute 26, 1
  12              		.eabi_attribute 30, 1
  13              		.eabi_attribute 34, 1
  14              		.eabi_attribute 18, 4
  15              		.file	"robot.cpp"
  16              		.text
  17              	.Ltext0:
  18              		.cfi_sections	.debug_frame
  19              		.file 1 "src/unit/robot.cpp"
  20              		.section	.text._ZN6Buzzer4initEv,"axG",%progbits,_ZN6Buzzer4initEv,comdat
  21              		.align	1
  22              		.weak	_ZN6Buzzer4initEv
  23              		.syntax unified
  24              		.thumb
  25              		.thumb_func
  27              	_ZN6Buzzer4initEv:
  28              		.fnstart
  29              	.LVL0:
  30              	.LFB254:
  31              		.file 2 "Lib/Buzzer/Buzzer.hpp"
   1:Lib/Buzzer/Buzzer.hpp **** #ifndef __BUZZER__
   2:Lib/Buzzer/Buzzer.hpp **** #define __BUZZER__
   3:Lib/Buzzer/Buzzer.hpp **** 
   4:Lib/Buzzer/Buzzer.hpp **** #include "tim.h"
   5:Lib/Buzzer/Buzzer.hpp **** 
   6:Lib/Buzzer/Buzzer.hpp **** #ifdef __cplusplus
   7:Lib/Buzzer/Buzzer.hpp **** extern "C" {
   8:Lib/Buzzer/Buzzer.hpp **** 
   9:Lib/Buzzer/Buzzer.hpp **** class Buzzer {
  10:Lib/Buzzer/Buzzer.hpp ****      public:
  11:Lib/Buzzer/Buzzer.hpp ****       Buzzer(TIM_HandleTypeDef *htim, uint32_t channel)
  12:Lib/Buzzer/Buzzer.hpp ****           : _htim(htim), _channel(channel), _maxValue(_htim->Init.Period) {
  13:Lib/Buzzer/Buzzer.hpp ****       }
  14:Lib/Buzzer/Buzzer.hpp **** 
  15:Lib/Buzzer/Buzzer.hpp ****       void init() {
  32              		.loc 2 15 12 view -0
  33              		.cfi_startproc
  34              		@ args = 0, pretend = 0, frame = 0
  35              		@ frame_needed = 0, uses_anonymous_args = 0
  36              		.loc 2 15 12 is_stmt 0 view .LVU1
  37 0000 10B5     		push	{r4, lr}
  38              		.save {r4, lr}
  39              	.LCFI0:
  40              		.cfi_def_cfa_offset 8
  41              		.cfi_offset 4, -8
  42              		.cfi_offset 14, -4
  43 0002 0446     		mov	r4, r0
ARM GAS  /var/folders/5c/srt4fy4j1pd641bjfx75k5000000gn/T//ccTB0Fp6.s 			page 2


  16:Lib/Buzzer/Buzzer.hpp ****             HAL_TIM_PWM_Start(_htim, _channel);
  44              		.loc 2 16 13 is_stmt 1 view .LVU2
  45              		.loc 2 16 30 is_stmt 0 view .LVU3
  46 0004 4168     		ldr	r1, [r0, #4]
  47 0006 0068     		ldr	r0, [r0]
  48              	.LVL1:
  49              		.loc 2 16 30 view .LVU4
  50 0008 FFF7FEFF 		bl	HAL_TIM_PWM_Start
  51              	.LVL2:
  17:Lib/Buzzer/Buzzer.hpp ****             _maxValue = _htim->Init.Period;
  52              		.loc 2 17 13 is_stmt 1 view .LVU5
  53              		.loc 2 17 25 is_stmt 0 view .LVU6
  54 000c 2368     		ldr	r3, [r4]
  55              		.loc 2 17 37 view .LVU7
  56 000e DB68     		ldr	r3, [r3, #12]
  57              		.loc 2 17 23 view .LVU8
  58 0010 A360     		str	r3, [r4, #8]
  18:Lib/Buzzer/Buzzer.hpp ****       }
  59              		.loc 2 18 7 view .LVU9
  60 0012 10BD     		pop	{r4, pc}
  61              		.loc 2 18 7 view .LVU10
  62              		.cfi_endproc
  63              	.LFE254:
  64              		.fnend
  66              		.section	.text._ZN12PwmSingleOut4initEv,"axG",%progbits,_ZN12PwmSingleOut4initEv,comdat
  67              		.align	1
  68              		.weak	_ZN12PwmSingleOut4initEv
  69              		.syntax unified
  70              		.thumb
  71              		.thumb_func
  73              	_ZN12PwmSingleOut4initEv:
  74              		.fnstart
  75              	.LVL3:
  76              	.LFB262:
  77              		.file 3 "Lib/PWMSingle/PWMSingle.hpp"
   1:Lib/PWMSingle/PWMSingle.hpp **** #ifndef __PWMSINGLE__
   2:Lib/PWMSingle/PWMSingle.hpp **** #define __PWMSINGLE__
   3:Lib/PWMSingle/PWMSingle.hpp **** 
   4:Lib/PWMSingle/PWMSingle.hpp **** #include "MyMath.hpp"
   5:Lib/PWMSingle/PWMSingle.hpp **** #include "tim.h"
   6:Lib/PWMSingle/PWMSingle.hpp **** 
   7:Lib/PWMSingle/PWMSingle.hpp **** #ifdef __cplusplus
   8:Lib/PWMSingle/PWMSingle.hpp **** extern "C" {
   9:Lib/PWMSingle/PWMSingle.hpp **** 
  10:Lib/PWMSingle/PWMSingle.hpp **** class PwmSingleOut {
  11:Lib/PWMSingle/PWMSingle.hpp ****      public:
  12:Lib/PWMSingle/PWMSingle.hpp ****       PwmSingleOut(TIM_HandleTypeDef *htim, uint32_t channel)
  13:Lib/PWMSingle/PWMSingle.hpp ****           : _htim(htim), _channel(channel), _maxValue(_htim->Init.Period) {
  14:Lib/PWMSingle/PWMSingle.hpp ****       }
  15:Lib/PWMSingle/PWMSingle.hpp **** 
  16:Lib/PWMSingle/PWMSingle.hpp ****       void init() {
  78              		.loc 3 16 12 is_stmt 1 view -0
  79              		.cfi_startproc
  80              		@ args = 0, pretend = 0, frame = 0
  81              		@ frame_needed = 0, uses_anonymous_args = 0
  82              		.loc 3 16 12 is_stmt 0 view .LVU12
  83 0000 10B5     		push	{r4, lr}
ARM GAS  /var/folders/5c/srt4fy4j1pd641bjfx75k5000000gn/T//ccTB0Fp6.s 			page 3


  84              		.save {r4, lr}
  85              	.LCFI1:
  86              		.cfi_def_cfa_offset 8
  87              		.cfi_offset 4, -8
  88              		.cfi_offset 14, -4
  89 0002 0446     		mov	r4, r0
  17:Lib/PWMSingle/PWMSingle.hpp ****             HAL_TIM_PWM_Start(_htim, _channel);
  90              		.loc 3 17 13 is_stmt 1 view .LVU13
  91              		.loc 3 17 30 is_stmt 0 view .LVU14
  92 0004 4168     		ldr	r1, [r0, #4]
  93 0006 0068     		ldr	r0, [r0]
  94              	.LVL4:
  95              		.loc 3 17 30 view .LVU15
  96 0008 FFF7FEFF 		bl	HAL_TIM_PWM_Start
  97              	.LVL5:
  18:Lib/PWMSingle/PWMSingle.hpp ****             _maxValue = _htim->Init.Period;
  98              		.loc 3 18 13 is_stmt 1 view .LVU16
  99              		.loc 3 18 25 is_stmt 0 view .LVU17
 100 000c 2368     		ldr	r3, [r4]
 101              		.loc 3 18 37 view .LVU18
 102 000e DB68     		ldr	r3, [r3, #12]
 103              		.loc 3 18 23 view .LVU19
 104 0010 A360     		str	r3, [r4, #8]
  19:Lib/PWMSingle/PWMSingle.hpp ****       }
 105              		.loc 3 19 7 view .LVU20
 106 0012 10BD     		pop	{r4, pc}
 107              		.loc 3 19 7 view .LVU21
 108              		.cfi_endproc
 109              	.LFE262:
 110              		.fnend
 112              		.section	.text._ZN5RobotC2Ev,"ax",%progbits
 113              		.align	1
 114              		.global	_ZN5RobotC2Ev
 115              		.syntax unified
 116              		.thumb
 117              		.thumb_func
 119              	_ZN5RobotC2Ev:
 120              		.fnstart
 121              	.LVL6:
 122              	.LFB267:
   1:src/unit/robot.cpp **** #include "robot.hpp"
   2:src/unit/robot.cpp **** 
   3:src/unit/robot.cpp **** uint16_t adcGetVal[14];
   4:src/unit/robot.cpp **** Robot::Robot() {
 123              		.loc 1 4 1 is_stmt 1 view -0
 124              		.cfi_startproc
 125              		@ args = 0, pretend = 0, frame = 0
 126              		@ frame_needed = 0, uses_anonymous_args = 0
 127              		.loc 1 4 1 is_stmt 0 view .LVU23
 128 0000 F8B5     		push	{r3, r4, r5, r6, r7, lr}
 129              		.save {r3, r4, r5, r6, r7, lr}
 130              	.LCFI2:
 131              		.cfi_def_cfa_offset 24
 132              		.cfi_offset 3, -24
 133              		.cfi_offset 4, -20
 134              		.cfi_offset 5, -16
 135              		.cfi_offset 6, -12
ARM GAS  /var/folders/5c/srt4fy4j1pd641bjfx75k5000000gn/T//ccTB0Fp6.s 			page 4


 136              		.cfi_offset 7, -8
 137              		.cfi_offset 14, -4
 138 0002 0446     		mov	r4, r0
 139              	.LVL7:
 140              	.LBB42:
 141              	.LBB43:
 142              	.LBI43:
 143              		.file 4 "Lib/DigitalInOut/DigitalInOut.hpp"
   1:Lib/DigitalInOut/DigitalInOut.hpp **** #ifndef __DigitalInOut__
   2:Lib/DigitalInOut/DigitalInOut.hpp **** #define __DigitalInOut__
   3:Lib/DigitalInOut/DigitalInOut.hpp **** 
   4:Lib/DigitalInOut/DigitalInOut.hpp **** #include "main.h"
   5:Lib/DigitalInOut/DigitalInOut.hpp **** 
   6:Lib/DigitalInOut/DigitalInOut.hpp **** #ifdef __cplusplus
   7:Lib/DigitalInOut/DigitalInOut.hpp **** 
   8:Lib/DigitalInOut/DigitalInOut.hpp **** extern "C" {
   9:Lib/DigitalInOut/DigitalInOut.hpp **** 
  10:Lib/DigitalInOut/DigitalInOut.hpp **** class DigitalOut {
  11:Lib/DigitalInOut/DigitalInOut.hpp ****   public:
  12:Lib/DigitalInOut/DigitalInOut.hpp ****     DigitalOut(GPIO_TypeDef *port, uint16_t pin) : port(port), pin(pin) {
 144              		.loc 4 12 5 is_stmt 1 view .LVU24
 145              	.LBB44:
 146              		.loc 4 12 52 is_stmt 0 view .LVU25
 147 0004 3A48     		ldr	r0, .L7
 148              	.LVL8:
 149              		.loc 4 12 52 view .LVU26
 150 0006 E061     		str	r0, [r4, #28]
 151              		.loc 4 12 64 view .LVU27
 152 0008 0426     		movs	r6, #4
 153 000a 2684     		strh	r6, [r4, #32]	@ movhi
  13:Lib/DigitalInOut/DigitalInOut.hpp ****         HAL_GPIO_WritePin(port, pin, GPIO_PIN_RESET);
 154              		.loc 4 13 9 is_stmt 1 view .LVU28
 155              		.loc 4 13 26 is_stmt 0 view .LVU29
 156 000c 0022     		movs	r2, #0
 157 000e 3146     		mov	r1, r6
 158 0010 FFF7FEFF 		bl	HAL_GPIO_WritePin
 159              	.LVL9:
 160              		.loc 4 13 26 view .LVU30
 161              	.LBE44:
 162              	.LBE43:
 163              	.LBB45:
 164              	.LBI45:
  12:Lib/DigitalInOut/DigitalInOut.hpp ****         HAL_GPIO_WritePin(port, pin, GPIO_PIN_RESET);
 165              		.loc 4 12 5 is_stmt 1 view .LVU31
 166              	.LBB46:
  12:Lib/DigitalInOut/DigitalInOut.hpp ****         HAL_GPIO_WritePin(port, pin, GPIO_PIN_RESET);
 167              		.loc 4 12 52 is_stmt 0 view .LVU32
 168 0014 374D     		ldr	r5, .L7+4
 169 0016 6562     		str	r5, [r4, #36]
  12:Lib/DigitalInOut/DigitalInOut.hpp ****         HAL_GPIO_WritePin(port, pin, GPIO_PIN_RESET);
 170              		.loc 4 12 64 view .LVU33
 171 0018 1021     		movs	r1, #16
 172 001a 2185     		strh	r1, [r4, #40]	@ movhi
 173              		.loc 4 13 9 is_stmt 1 view .LVU34
 174              		.loc 4 13 26 is_stmt 0 view .LVU35
 175 001c 0022     		movs	r2, #0
 176 001e 2846     		mov	r0, r5
ARM GAS  /var/folders/5c/srt4fy4j1pd641bjfx75k5000000gn/T//ccTB0Fp6.s 			page 5


 177 0020 FFF7FEFF 		bl	HAL_GPIO_WritePin
 178              	.LVL10:
 179              		.loc 4 13 26 view .LVU36
 180              	.LBE46:
 181              	.LBE45:
 182              	.LBB47:
 183              	.LBI47:
  12:Lib/DigitalInOut/DigitalInOut.hpp ****         HAL_GPIO_WritePin(port, pin, GPIO_PIN_RESET);
 184              		.loc 4 12 5 is_stmt 1 view .LVU37
 185              	.LBB48:
  12:Lib/DigitalInOut/DigitalInOut.hpp ****         HAL_GPIO_WritePin(port, pin, GPIO_PIN_RESET);
 186              		.loc 4 12 52 is_stmt 0 view .LVU38
 187 0024 E562     		str	r5, [r4, #44]
  12:Lib/DigitalInOut/DigitalInOut.hpp ****         HAL_GPIO_WritePin(port, pin, GPIO_PIN_RESET);
 188              		.loc 4 12 64 view .LVU39
 189 0026 4021     		movs	r1, #64
 190 0028 2186     		strh	r1, [r4, #48]	@ movhi
 191              		.loc 4 13 9 is_stmt 1 view .LVU40
 192              		.loc 4 13 26 is_stmt 0 view .LVU41
 193 002a 0022     		movs	r2, #0
 194 002c 2846     		mov	r0, r5
 195 002e FFF7FEFF 		bl	HAL_GPIO_WritePin
 196              	.LVL11:
 197              		.loc 4 13 26 view .LVU42
 198              	.LBE48:
 199              	.LBE47:
 200              	.LBB49:
 201              	.LBI49:
  12:Lib/DigitalInOut/DigitalInOut.hpp ****         HAL_GPIO_WritePin(port, pin, GPIO_PIN_RESET);
 202              		.loc 4 12 5 is_stmt 1 view .LVU43
 203              	.LBB50:
  12:Lib/DigitalInOut/DigitalInOut.hpp ****         HAL_GPIO_WritePin(port, pin, GPIO_PIN_RESET);
 204              		.loc 4 12 52 is_stmt 0 view .LVU44
 205 0032 6563     		str	r5, [r4, #52]
  12:Lib/DigitalInOut/DigitalInOut.hpp ****         HAL_GPIO_WritePin(port, pin, GPIO_PIN_RESET);
 206              		.loc 4 12 64 view .LVU45
 207 0034 8021     		movs	r1, #128
 208 0036 2187     		strh	r1, [r4, #56]	@ movhi
 209              		.loc 4 13 9 is_stmt 1 view .LVU46
 210              		.loc 4 13 26 is_stmt 0 view .LVU47
 211 0038 0022     		movs	r2, #0
 212 003a 2846     		mov	r0, r5
 213 003c FFF7FEFF 		bl	HAL_GPIO_WritePin
 214              	.LVL12:
 215              		.loc 4 13 26 view .LVU48
 216              	.LBE50:
 217              	.LBE49:
 218              	.LBB51:
 219              	.LBI51:
  12:Lib/DigitalInOut/DigitalInOut.hpp ****         HAL_GPIO_WritePin(port, pin, GPIO_PIN_RESET);
 220              		.loc 4 12 5 is_stmt 1 view .LVU49
 221              	.LBB52:
  12:Lib/DigitalInOut/DigitalInOut.hpp ****         HAL_GPIO_WritePin(port, pin, GPIO_PIN_RESET);
 222              		.loc 4 12 52 is_stmt 0 view .LVU50
 223 0040 E563     		str	r5, [r4, #60]
  12:Lib/DigitalInOut/DigitalInOut.hpp ****         HAL_GPIO_WritePin(port, pin, GPIO_PIN_RESET);
 224              		.loc 4 12 64 view .LVU51
ARM GAS  /var/folders/5c/srt4fy4j1pd641bjfx75k5000000gn/T//ccTB0Fp6.s 			page 6


 225 0042 4FF48071 		mov	r1, #256
 226 0046 A4F84010 		strh	r1, [r4, #64]	@ movhi
 227              		.loc 4 13 9 is_stmt 1 view .LVU52
 228              		.loc 4 13 26 is_stmt 0 view .LVU53
 229 004a 0022     		movs	r2, #0
 230 004c 2846     		mov	r0, r5
 231 004e FFF7FEFF 		bl	HAL_GPIO_WritePin
 232              	.LVL13:
 233              		.loc 4 13 26 view .LVU54
 234              	.LBE52:
 235              	.LBE51:
 236              		.loc 1 4 14 view .LVU55
 237 0052 4FF48052 		mov	r2, #4096
 238 0056 2849     		ldr	r1, .L7+8
 239 0058 04F14400 		add	r0, r4, #68
 240 005c FFF7FEFF 		bl	_ZN6ButtonC1EP12GPIO_TypeDeft
 241              	.LVL14:
 242 0060 0822     		movs	r2, #8
 243 0062 2946     		mov	r1, r5
 244 0064 04F15800 		add	r0, r4, #88
 245 0068 FFF7FEFF 		bl	_ZN6ButtonC1EP12GPIO_TypeDeft
 246              	.LVL15:
 247 006c 2022     		movs	r2, #32
 248 006e 2946     		mov	r1, r5
 249 0070 04F16C00 		add	r0, r4, #108
 250 0074 FFF7FEFF 		bl	_ZN6ButtonC1EP12GPIO_TypeDeft
 251              	.LVL16:
 252              	.LBB53:
 253              	.LBI53:
  12:Lib/PWMSingle/PWMSingle.hpp ****           : _htim(htim), _channel(channel), _maxValue(_htim->Init.Period) {
 254              		.loc 3 12 7 is_stmt 1 view .LVU56
 255              	.LBB54:
  13:Lib/PWMSingle/PWMSingle.hpp ****       }
 256              		.loc 3 13 13 is_stmt 0 view .LVU57
 257 0078 204B     		ldr	r3, .L7+12
 258 007a C4F88030 		str	r3, [r4, #128]
  13:Lib/PWMSingle/PWMSingle.hpp ****       }
 259              		.loc 3 13 26 view .LVU58
 260 007e 0C27     		movs	r7, #12
 261 0080 C4F88470 		str	r7, [r4, #132]
  13:Lib/PWMSingle/PWMSingle.hpp ****       }
 262              		.loc 3 13 67 view .LVU59
 263 0084 DA68     		ldr	r2, [r3, #12]
  13:Lib/PWMSingle/PWMSingle.hpp ****       }
 264              		.loc 3 13 45 view .LVU60
 265 0086 C4F88820 		str	r2, [r4, #136]
 266              	.LVL17:
  13:Lib/PWMSingle/PWMSingle.hpp ****       }
 267              		.loc 3 13 45 view .LVU61
 268              	.LBE54:
 269              	.LBE53:
 270              	.LBB55:
 271              	.LBI55:
  12:Lib/PWMSingle/PWMSingle.hpp ****           : _htim(htim), _channel(channel), _maxValue(_htim->Init.Period) {
 272              		.loc 3 12 7 is_stmt 1 view .LVU62
 273              	.LBB56:
  13:Lib/PWMSingle/PWMSingle.hpp ****       }
ARM GAS  /var/folders/5c/srt4fy4j1pd641bjfx75k5000000gn/T//ccTB0Fp6.s 			page 7


 274              		.loc 3 13 13 is_stmt 0 view .LVU63
 275 008a 1D48     		ldr	r0, .L7+16
 276 008c C4F89000 		str	r0, [r4, #144]
  13:Lib/PWMSingle/PWMSingle.hpp ****       }
 277              		.loc 3 13 26 view .LVU64
 278 0090 C4F89460 		str	r6, [r4, #148]
  13:Lib/PWMSingle/PWMSingle.hpp ****       }
 279              		.loc 3 13 67 view .LVU65
 280 0094 C568     		ldr	r5, [r0, #12]
  13:Lib/PWMSingle/PWMSingle.hpp ****       }
 281              		.loc 3 13 45 view .LVU66
 282 0096 C4F89850 		str	r5, [r4, #152]
 283              	.LVL18:
  13:Lib/PWMSingle/PWMSingle.hpp ****       }
 284              		.loc 3 13 45 view .LVU67
 285              	.LBE56:
 286              	.LBE55:
 287              	.LBB57:
 288              	.LBI57:
  12:Lib/PWMSingle/PWMSingle.hpp ****           : _htim(htim), _channel(channel), _maxValue(_htim->Init.Period) {
 289              		.loc 3 12 7 is_stmt 1 view .LVU68
 290              	.LBB58:
  13:Lib/PWMSingle/PWMSingle.hpp ****       }
 291              		.loc 3 13 13 is_stmt 0 view .LVU69
 292 009a C4F8A030 		str	r3, [r4, #160]
  13:Lib/PWMSingle/PWMSingle.hpp ****       }
 293              		.loc 3 13 26 view .LVU70
 294 009e 0821     		movs	r1, #8
 295 00a0 C4F8A410 		str	r1, [r4, #164]
  13:Lib/PWMSingle/PWMSingle.hpp ****       }
 296              		.loc 3 13 45 view .LVU71
 297 00a4 C4F8A820 		str	r2, [r4, #168]
 298              	.LVL19:
  13:Lib/PWMSingle/PWMSingle.hpp ****       }
 299              		.loc 3 13 45 view .LVU72
 300              	.LBE58:
 301              	.LBE57:
 302              	.LBB59:
 303              	.LBI59:
  12:Lib/PWMSingle/PWMSingle.hpp ****           : _htim(htim), _channel(channel), _maxValue(_htim->Init.Period) {
 304              		.loc 3 12 7 is_stmt 1 view .LVU73
 305              	.LBB60:
  13:Lib/PWMSingle/PWMSingle.hpp ****       }
 306              		.loc 3 13 13 is_stmt 0 view .LVU74
 307 00a8 164B     		ldr	r3, .L7+20
 308 00aa C4F8B030 		str	r3, [r4, #176]
  13:Lib/PWMSingle/PWMSingle.hpp ****       }
 309              		.loc 3 13 26 view .LVU75
 310 00ae 0022     		movs	r2, #0
 311 00b0 C4F8B420 		str	r2, [r4, #180]
  13:Lib/PWMSingle/PWMSingle.hpp ****       }
 312              		.loc 3 13 67 view .LVU76
 313 00b4 DA68     		ldr	r2, [r3, #12]
  13:Lib/PWMSingle/PWMSingle.hpp ****       }
 314              		.loc 3 13 45 view .LVU77
 315 00b6 C4F8B820 		str	r2, [r4, #184]
 316              	.LVL20:
ARM GAS  /var/folders/5c/srt4fy4j1pd641bjfx75k5000000gn/T//ccTB0Fp6.s 			page 8


  13:Lib/PWMSingle/PWMSingle.hpp ****       }
 317              		.loc 3 13 45 view .LVU78
 318              	.LBE60:
 319              	.LBE59:
 320              	.LBB61:
 321              	.LBI61:
  12:Lib/PWMSingle/PWMSingle.hpp ****           : _htim(htim), _channel(channel), _maxValue(_htim->Init.Period) {
 322              		.loc 3 12 7 is_stmt 1 view .LVU79
 323              	.LBB62:
  13:Lib/PWMSingle/PWMSingle.hpp ****       }
 324              		.loc 3 13 13 is_stmt 0 view .LVU80
 325 00ba C4F8C030 		str	r3, [r4, #192]
  13:Lib/PWMSingle/PWMSingle.hpp ****       }
 326              		.loc 3 13 26 view .LVU81
 327 00be C4F8C460 		str	r6, [r4, #196]
  13:Lib/PWMSingle/PWMSingle.hpp ****       }
 328              		.loc 3 13 45 view .LVU82
 329 00c2 C4F8C820 		str	r2, [r4, #200]
 330              	.LVL21:
  13:Lib/PWMSingle/PWMSingle.hpp ****       }
 331              		.loc 3 13 45 view .LVU83
 332              	.LBE62:
 333              	.LBE61:
 334              	.LBB63:
 335              	.LBI63:
  12:Lib/PWMSingle/PWMSingle.hpp ****           : _htim(htim), _channel(channel), _maxValue(_htim->Init.Period) {
 336              		.loc 3 12 7 is_stmt 1 view .LVU84
 337              	.LBB64:
  13:Lib/PWMSingle/PWMSingle.hpp ****       }
 338              		.loc 3 13 13 is_stmt 0 view .LVU85
 339 00c6 C4F8D030 		str	r3, [r4, #208]
  13:Lib/PWMSingle/PWMSingle.hpp ****       }
 340              		.loc 3 13 26 view .LVU86
 341 00ca C4F8D410 		str	r1, [r4, #212]
  13:Lib/PWMSingle/PWMSingle.hpp ****       }
 342              		.loc 3 13 45 view .LVU87
 343 00ce C4F8D820 		str	r2, [r4, #216]
 344              	.LVL22:
  13:Lib/PWMSingle/PWMSingle.hpp ****       }
 345              		.loc 3 13 45 view .LVU88
 346              	.LBE64:
 347              	.LBE63:
 348              	.LBB65:
 349              	.LBI65:
  12:Lib/PWMSingle/PWMSingle.hpp ****           : _htim(htim), _channel(channel), _maxValue(_htim->Init.Period) {
 350              		.loc 3 12 7 is_stmt 1 view .LVU89
 351              	.LBB66:
  13:Lib/PWMSingle/PWMSingle.hpp ****       }
 352              		.loc 3 13 13 is_stmt 0 view .LVU90
 353 00d2 C4F8E030 		str	r3, [r4, #224]
  13:Lib/PWMSingle/PWMSingle.hpp ****       }
 354              		.loc 3 13 26 view .LVU91
 355 00d6 C4F8E470 		str	r7, [r4, #228]
  13:Lib/PWMSingle/PWMSingle.hpp ****       }
 356              		.loc 3 13 45 view .LVU92
 357 00da C4F8E820 		str	r2, [r4, #232]
 358              	.LVL23:
ARM GAS  /var/folders/5c/srt4fy4j1pd641bjfx75k5000000gn/T//ccTB0Fp6.s 			page 9


  13:Lib/PWMSingle/PWMSingle.hpp ****       }
 359              		.loc 3 13 45 view .LVU93
 360              	.LBE66:
 361              	.LBE65:
 362              	.LBB67:
 363              	.LBI67:
  11:Lib/Buzzer/Buzzer.hpp ****           : _htim(htim), _channel(channel), _maxValue(_htim->Init.Period) {
 364              		.loc 2 11 7 is_stmt 1 view .LVU94
 365              	.LBB68:
  12:Lib/Buzzer/Buzzer.hpp ****       }
 366              		.loc 2 12 13 is_stmt 0 view .LVU95
 367 00de C4F8F000 		str	r0, [r4, #240]
  12:Lib/Buzzer/Buzzer.hpp ****       }
 368              		.loc 2 12 26 view .LVU96
 369 00e2 C4F8F410 		str	r1, [r4, #244]
  12:Lib/Buzzer/Buzzer.hpp ****       }
 370              		.loc 2 12 45 view .LVU97
 371 00e6 C4F8F850 		str	r5, [r4, #248]
 372              	.LVL24:
  12:Lib/Buzzer/Buzzer.hpp ****       }
 373              		.loc 2 12 45 view .LVU98
 374              	.LBE68:
 375              	.LBE67:
 376              	.LBE42:
   5:src/unit/robot.cpp **** }
 377              		.loc 1 5 1 view .LVU99
 378 00ea 2046     		mov	r0, r4
 379 00ec F8BD     		pop	{r3, r4, r5, r6, r7, pc}
 380              	.LVL25:
 381              	.L8:
 382              		.loc 1 5 1 view .LVU100
 383 00ee 00BF     		.align	2
 384              	.L7:
 385 00f0 000C0240 		.word	1073875968
 386 00f4 00040240 		.word	1073873920
 387 00f8 00080240 		.word	1073874944
 388 00fc 00000000 		.word	htim3
 389 0100 00000000 		.word	htim2
 390 0104 00000000 		.word	htim1
 391              		.cfi_endproc
 392              	.LFE267:
 393              		.fnend
 395              		.global	_ZN5RobotC1Ev
 396              		.thumb_set _ZN5RobotC1Ev,_ZN5RobotC2Ev
 397              		.section	.rodata._ZN5Robot12hardwareInitEv.str1.4,"aMS",%progbits,1
 398              		.align	2
 399              	.LC0:
 400 0000 48656C6C 		.ascii	"Hello World\000"
 400      6F20576F 
 400      726C6400 
 401              		.align	2
 402              	.LC1:
 403 000c 53797374 		.ascii	"SystemCoreClock = %ld\012\000"
 403      656D436F 
 403      7265436C 
 403      6F636B20 
 403      3D20256C 
ARM GAS  /var/folders/5c/srt4fy4j1pd641bjfx75k5000000gn/T//ccTB0Fp6.s 			page 10


 404              		.section	.text._ZN5Robot12hardwareInitEv,"ax",%progbits
 405              		.align	1
 406              		.global	_ZN5Robot12hardwareInitEv
 407              		.syntax unified
 408              		.thumb
 409              		.thumb_func
 411              	_ZN5Robot12hardwareInitEv:
 412              		.fnstart
 413              	.LVL26:
 414              	.LFB269:
   6:src/unit/robot.cpp **** 
   7:src/unit/robot.cpp **** void Robot::hardwareInit() {
 415              		.loc 1 7 28 is_stmt 1 view -0
 416              		.cfi_startproc
 417              		@ args = 0, pretend = 0, frame = 0
 418              		@ frame_needed = 0, uses_anonymous_args = 0
 419              		.loc 1 7 28 is_stmt 0 view .LVU102
 420 0000 38B5     		push	{r3, r4, r5, lr}
 421              		.save {r3, r4, r5, lr}
 422              	.LCFI3:
 423              		.cfi_def_cfa_offset 16
 424              		.cfi_offset 3, -16
 425              		.cfi_offset 4, -12
 426              		.cfi_offset 5, -8
 427              		.cfi_offset 14, -4
 428 0002 0446     		mov	r4, r0
   8:src/unit/robot.cpp ****       printf("Hello World\n");
 429              		.loc 1 8 7 is_stmt 1 view .LVU103
 430              		.loc 1 8 13 is_stmt 0 view .LVU104
 431 0004 1848     		ldr	r0, .L11
 432              	.LVL27:
 433              		.loc 1 8 13 view .LVU105
 434 0006 FFF7FEFF 		bl	puts
 435              	.LVL28:
   9:src/unit/robot.cpp ****       printf("SystemCoreClock = %ld\n", SystemCoreClock);
 436              		.loc 1 9 7 is_stmt 1 view .LVU106
 437              		.loc 1 9 13 is_stmt 0 view .LVU107
 438 000a 184B     		ldr	r3, .L11+4
 439 000c 1968     		ldr	r1, [r3]
 440 000e 1848     		ldr	r0, .L11+8
 441 0010 FFF7FEFF 		bl	printf
 442              	.LVL29:
  10:src/unit/robot.cpp **** 
  11:src/unit/robot.cpp ****       HAL_ADC_Start(&hadc1);
 443              		.loc 1 11 7 is_stmt 1 view .LVU108
 444              		.loc 1 11 20 is_stmt 0 view .LVU109
 445 0014 174D     		ldr	r5, .L11+12
 446 0016 2846     		mov	r0, r5
 447 0018 FFF7FEFF 		bl	HAL_ADC_Start
 448              	.LVL30:
  12:src/unit/robot.cpp ****       HAL_ADC_Start_DMA(&hadc1, (uint32_t *)&adcGetVal, 14);
 449              		.loc 1 12 7 is_stmt 1 view .LVU110
 450              		.loc 1 12 24 is_stmt 0 view .LVU111
 451 001c 0E22     		movs	r2, #14
 452 001e 1649     		ldr	r1, .L11+16
 453 0020 2846     		mov	r0, r5
 454 0022 FFF7FEFF 		bl	HAL_ADC_Start_DMA
ARM GAS  /var/folders/5c/srt4fy4j1pd641bjfx75k5000000gn/T//ccTB0Fp6.s 			page 11


 455              	.LVL31:
  13:src/unit/robot.cpp **** 
  14:src/unit/robot.cpp ****       fan.init();
 456              		.loc 1 14 7 is_stmt 1 view .LVU112
 457              		.loc 1 14 15 is_stmt 0 view .LVU113
 458 0026 04F18000 		add	r0, r4, #128
 459 002a FFF7FEFF 		bl	_ZN12PwmSingleOut4initEv
 460              	.LVL32:
  15:src/unit/robot.cpp ****       ledH.init();
 461              		.loc 1 15 7 is_stmt 1 view .LVU114
 462              		.loc 1 15 16 is_stmt 0 view .LVU115
 463 002e 04F19000 		add	r0, r4, #144
 464 0032 FFF7FEFF 		bl	_ZN12PwmSingleOut4initEv
 465              	.LVL33:
  16:src/unit/robot.cpp ****       lineLed.init();
 466              		.loc 1 16 7 is_stmt 1 view .LVU116
 467              		.loc 1 16 19 is_stmt 0 view .LVU117
 468 0036 04F1A000 		add	r0, r4, #160
 469 003a FFF7FEFF 		bl	_ZN12PwmSingleOut4initEv
 470              	.LVL34:
  17:src/unit/robot.cpp ****       motor1a.init();
 471              		.loc 1 17 7 is_stmt 1 view .LVU118
 472              		.loc 1 17 19 is_stmt 0 view .LVU119
 473 003e 04F1B000 		add	r0, r4, #176
 474 0042 FFF7FEFF 		bl	_ZN12PwmSingleOut4initEv
 475              	.LVL35:
  18:src/unit/robot.cpp ****       motor1b.init();
 476              		.loc 1 18 7 is_stmt 1 view .LVU120
 477              		.loc 1 18 19 is_stmt 0 view .LVU121
 478 0046 04F1C000 		add	r0, r4, #192
 479 004a FFF7FEFF 		bl	_ZN12PwmSingleOut4initEv
 480              	.LVL36:
  19:src/unit/robot.cpp ****       motor2a.init();
 481              		.loc 1 19 7 is_stmt 1 view .LVU122
 482              		.loc 1 19 19 is_stmt 0 view .LVU123
 483 004e 04F1D000 		add	r0, r4, #208
 484 0052 FFF7FEFF 		bl	_ZN12PwmSingleOut4initEv
 485              	.LVL37:
  20:src/unit/robot.cpp ****       motor2b.init();
 486              		.loc 1 20 7 is_stmt 1 view .LVU124
 487              		.loc 1 20 19 is_stmt 0 view .LVU125
 488 0056 04F1E000 		add	r0, r4, #224
 489 005a FFF7FEFF 		bl	_ZN12PwmSingleOut4initEv
 490              	.LVL38:
  21:src/unit/robot.cpp ****       buzzer.init();
 491              		.loc 1 21 7 is_stmt 1 view .LVU126
 492              		.loc 1 21 18 is_stmt 0 view .LVU127
 493 005e 04F1F000 		add	r0, r4, #240
 494 0062 FFF7FEFF 		bl	_ZN6Buzzer4initEv
 495              	.LVL39:
  22:src/unit/robot.cpp **** }
 496              		.loc 1 22 1 view .LVU128
 497 0066 38BD     		pop	{r3, r4, r5, pc}
 498              	.LVL40:
 499              	.L12:
 500              		.loc 1 22 1 view .LVU129
 501              		.align	2
ARM GAS  /var/folders/5c/srt4fy4j1pd641bjfx75k5000000gn/T//ccTB0Fp6.s 			page 12


 502              	.L11:
 503 0068 00000000 		.word	.LC0
 504 006c 00000000 		.word	SystemCoreClock
 505 0070 0C000000 		.word	.LC1
 506 0074 00000000 		.word	hadc1
 507 0078 00000000 		.word	adcGetVal
 508              		.cfi_endproc
 509              	.LFE269:
 510              		.fnend
 512              		.section	.rodata._ZN5Robot10getSensorsEv.str1.4,"aMS",%progbits,1
 513              		.align	2
 514              	.LC2:
 515 0000 D3DDE7F1 		.ascii	"\323\335\347\361\373\005\017\031#-\000"
 515      FB050F19 
 515      232D00
 516              		.section	.text._ZN5Robot10getSensorsEv,"ax",%progbits
 517              		.align	1
 518              		.global	_ZN5Robot10getSensorsEv
 519              		.syntax unified
 520              		.thumb
 521              		.thumb_func
 523              	_ZN5Robot10getSensorsEv:
 524              		.fnstart
 525              	.LVL41:
 526              	.LFB270:
  23:src/unit/robot.cpp **** 
  24:src/unit/robot.cpp **** void Robot::getSensors() {
 527              		.loc 1 24 26 is_stmt 1 view -0
 528              		.cfi_startproc
 529              		@ args = 0, pretend = 0, frame = 16
 530              		@ frame_needed = 0, uses_anonymous_args = 0
 531              		@ link register save eliminated.
 532              		.loc 1 24 26 is_stmt 0 view .LVU131
 533 0000 84B0     		sub	sp, sp, #16
 534              	.LCFI4:
 535              		.cfi_def_cfa_offset 16
 536 0002 8446     		mov	ip, r0
  25:src/unit/robot.cpp ****       int8_t lineVectorX[LINE_QTY] = {-45, -35, -25, -15, -5, 5, 15, 25, 35, 45};
 537              		.loc 1 25 7 is_stmt 1 view .LVU132
 538              		.loc 1 25 14 is_stmt 0 view .LVU133
 539 0004 214A     		ldr	r2, .L17
 540 0006 01AB     		add	r3, sp, #4
 541 0008 07CA     		ldm	r2, {r0, r1, r2}
 542              	.LVL42:
 543              		.loc 1 25 14 view .LVU134
 544 000a 03C3     		stmia	r3!, {r0, r1}
 545 000c 1A80     		strh	r2, [r3]	@ movhi
  26:src/unit/robot.cpp ****       info.line.mainVal[0] = adcGetVal[4];
 546              		.loc 1 26 7 is_stmt 1 view .LVU135
 547              		.loc 1 26 41 is_stmt 0 view .LVU136
 548 000e 204B     		ldr	r3, .L17+4
 549 0010 1A89     		ldrh	r2, [r3, #8]
 550              		.loc 1 26 28 view .LVU137
 551 0012 ACF80020 		strh	r2, [ip]	@ movhi
  27:src/unit/robot.cpp ****       info.line.mainVal[1] = adcGetVal[5];
 552              		.loc 1 27 7 is_stmt 1 view .LVU138
 553              		.loc 1 27 41 is_stmt 0 view .LVU139
ARM GAS  /var/folders/5c/srt4fy4j1pd641bjfx75k5000000gn/T//ccTB0Fp6.s 			page 13


 554 0016 5A89     		ldrh	r2, [r3, #10]
 555              		.loc 1 27 28 view .LVU140
 556 0018 ACF80220 		strh	r2, [ip, #2]	@ movhi
  28:src/unit/robot.cpp ****       info.line.mainVal[2] = adcGetVal[6];
 557              		.loc 1 28 7 is_stmt 1 view .LVU141
 558              		.loc 1 28 41 is_stmt 0 view .LVU142
 559 001c 9A89     		ldrh	r2, [r3, #12]
 560              		.loc 1 28 28 view .LVU143
 561 001e ACF80420 		strh	r2, [ip, #4]	@ movhi
  29:src/unit/robot.cpp ****       info.line.mainVal[3] = adcGetVal[7];
 562              		.loc 1 29 7 is_stmt 1 view .LVU144
 563              		.loc 1 29 41 is_stmt 0 view .LVU145
 564 0022 DA89     		ldrh	r2, [r3, #14]
 565              		.loc 1 29 28 view .LVU146
 566 0024 ACF80620 		strh	r2, [ip, #6]	@ movhi
  30:src/unit/robot.cpp ****       info.line.mainVal[4] = adcGetVal[8];
 567              		.loc 1 30 7 is_stmt 1 view .LVU147
 568              		.loc 1 30 41 is_stmt 0 view .LVU148
 569 0028 1A8A     		ldrh	r2, [r3, #16]
 570              		.loc 1 30 28 view .LVU149
 571 002a ACF80820 		strh	r2, [ip, #8]	@ movhi
  31:src/unit/robot.cpp ****       info.line.mainVal[5] = adcGetVal[9];
 572              		.loc 1 31 7 is_stmt 1 view .LVU150
 573              		.loc 1 31 41 is_stmt 0 view .LVU151
 574 002e 5A8A     		ldrh	r2, [r3, #18]
 575              		.loc 1 31 28 view .LVU152
 576 0030 ACF80A20 		strh	r2, [ip, #10]	@ movhi
  32:src/unit/robot.cpp ****       info.line.mainVal[6] = adcGetVal[10];
 577              		.loc 1 32 7 is_stmt 1 view .LVU153
 578              		.loc 1 32 42 is_stmt 0 view .LVU154
 579 0034 9A8A     		ldrh	r2, [r3, #20]
 580              		.loc 1 32 28 view .LVU155
 581 0036 ACF80C20 		strh	r2, [ip, #12]	@ movhi
  33:src/unit/robot.cpp ****       info.line.mainVal[7] = adcGetVal[11];
 582              		.loc 1 33 7 is_stmt 1 view .LVU156
 583              		.loc 1 33 42 is_stmt 0 view .LVU157
 584 003a DA8A     		ldrh	r2, [r3, #22]
 585              		.loc 1 33 28 view .LVU158
 586 003c ACF80E20 		strh	r2, [ip, #14]	@ movhi
  34:src/unit/robot.cpp ****       info.line.mainVal[8] = adcGetVal[12];
 587              		.loc 1 34 7 is_stmt 1 view .LVU159
 588              		.loc 1 34 42 is_stmt 0 view .LVU160
 589 0040 1A8B     		ldrh	r2, [r3, #24]
 590              		.loc 1 34 28 view .LVU161
 591 0042 ACF81020 		strh	r2, [ip, #16]	@ movhi
  35:src/unit/robot.cpp ****       info.line.mainVal[9] = adcGetVal[13];
 592              		.loc 1 35 7 is_stmt 1 view .LVU162
 593              		.loc 1 35 42 is_stmt 0 view .LVU163
 594 0046 5B8B     		ldrh	r3, [r3, #26]
 595              		.loc 1 35 28 view .LVU164
 596 0048 ACF81230 		strh	r3, [ip, #18]	@ movhi
  36:src/unit/robot.cpp ****       info.line.position = 0;
 597              		.loc 1 36 7 is_stmt 1 view .LVU165
 598              		.loc 1 36 26 is_stmt 0 view .LVU166
 599 004c 0023     		movs	r3, #0
 600 004e ACF81830 		strh	r3, [ip, #24]	@ movhi
  37:src/unit/robot.cpp ****       for (uint8_t i = 0; i < 10; i++) {
ARM GAS  /var/folders/5c/srt4fy4j1pd641bjfx75k5000000gn/T//ccTB0Fp6.s 			page 14


 601              		.loc 1 37 7 is_stmt 1 view .LVU167
 602              	.LVL43:
 603              	.LBB69:
 604              		.loc 1 37 7 is_stmt 0 view .LVU168
 605 0052 0FE0     		b	.L14
 606              	.LVL44:
 607              	.L15:
  38:src/unit/robot.cpp ****             info.line.position += info.line.mainVal[i] * lineVectorX[i];
 608              		.loc 1 38 13 is_stmt 1 discriminator 3 view .LVU169
 609              		.loc 1 38 23 is_stmt 0 discriminator 3 view .LVU170
 610 0054 BCF81820 		ldrh	r2, [ip, #24]
 611              		.loc 1 38 54 discriminator 3 view .LVU171
 612 0058 3CF81300 		ldrh	r0, [ip, r3, lsl #1]
 613              		.loc 1 38 71 discriminator 3 view .LVU172
 614 005c 03F11001 		add	r1, r3, #16
 615 0060 6944     		add	r1, sp, r1
 616 0062 11F90C1C 		ldrsb	r1, [r1, #-12]
 617              		.loc 1 38 32 discriminator 3 view .LVU173
 618 0066 11FB00F1 		smulbb	r1, r1, r0
 619 006a 0A44     		add	r2, r2, r1
 620 006c ACF81820 		strh	r2, [ip, #24]	@ movhi
  37:src/unit/robot.cpp ****       for (uint8_t i = 0; i < 10; i++) {
 621              		.loc 1 37 7 is_stmt 1 discriminator 3 view .LVU174
 622 0070 0133     		adds	r3, r3, #1
 623              	.LVL45:
  37:src/unit/robot.cpp ****       for (uint8_t i = 0; i < 10; i++) {
 624              		.loc 1 37 7 is_stmt 0 discriminator 3 view .LVU175
 625 0072 DBB2     		uxtb	r3, r3
 626              	.LVL46:
 627              	.L14:
  37:src/unit/robot.cpp ****       for (uint8_t i = 0; i < 10; i++) {
 628              		.loc 1 37 29 is_stmt 1 discriminator 1 view .LVU176
 629 0074 092B     		cmp	r3, #9
 630 0076 EDD9     		bls	.L15
 631              	.LBE69:
  39:src/unit/robot.cpp ****       }
  40:src/unit/robot.cpp **** 
  41:src/unit/robot.cpp ****       info.line.leftVal = adcGetVal[0];
 632              		.loc 1 41 7 view .LVU177
 633              		.loc 1 41 38 is_stmt 0 view .LVU178
 634 0078 054B     		ldr	r3, .L17+4
 635              	.LVL47:
 636              		.loc 1 41 38 view .LVU179
 637 007a 1A88     		ldrh	r2, [r3]
 638              		.loc 1 41 25 view .LVU180
 639 007c ACF81420 		strh	r2, [ip, #20]	@ movhi
  42:src/unit/robot.cpp ****       info.line.rightVal = adcGetVal[1];
 640              		.loc 1 42 7 is_stmt 1 view .LVU181
 641              		.loc 1 42 39 is_stmt 0 view .LVU182
 642 0080 5B88     		ldrh	r3, [r3, #2]
 643              		.loc 1 42 26 view .LVU183
 644 0082 ACF81630 		strh	r3, [ip, #22]	@ movhi
  43:src/unit/robot.cpp **** }...
 645              		.loc 1 43 1 view .LVU184
 646 0086 04B0     		add	sp, sp, #16
 647              	.LCFI5:
 648              		.cfi_def_cfa_offset 0
ARM GAS  /var/folders/5c/srt4fy4j1pd641bjfx75k5000000gn/T//ccTB0Fp6.s 			page 15


 649              		@ sp needed
 650 0088 7047     		bx	lr
 651              	.L18:
 652 008a 00BF     		.align	2
 653              	.L17:
 654 008c 00000000 		.word	.LC2
 655 0090 00000000 		.word	adcGetVal
 656              		.cfi_endproc
 657              	.LFE270:
 658              		.cantunwind
 659              		.fnend
 661              		.global	adcGetVal
 662              		.section	.bss.adcGetVal,"aw",%nobits
 663              		.align	2
 666              	adcGetVal:
 667 0000 00000000 		.space	28
 667      00000000 
 667      00000000 
 667      00000000 
 667      00000000 
 668              		.text
 669              	.Letext0:
 670              		.file 5 "/opt/ST/STM32CubeCLT_1.16.0/GNU-tools-for-STM32/arm-none-eabi/include/machine/_default_ty
 671              		.file 6 "/opt/ST/STM32CubeCLT_1.16.0/GNU-tools-for-STM32/arm-none-eabi/include/sys/_stdint.h"
 672              		.file 7 "Drivers/CMSIS/Device/ST/STM32F4xx/Include/stm32f446xx.h"
 673              		.file 8 "Drivers/CMSIS/Device/ST/STM32F4xx/Include/stm32f4xx.h"
 674              		.file 9 "/opt/ST/STM32CubeCLT_1.16.0/GNU-tools-for-STM32/lib/gcc/arm-none-eabi/12.3.1/include/stdd
 675              		.file 10 "Drivers/STM32F4xx_HAL_Driver/Inc/stm32f4xx_hal_def.h"
 676              		.file 11 "Drivers/STM32F4xx_HAL_Driver/Inc/stm32f4xx_hal_gpio.h"
 677              		.file 12 "Drivers/STM32F4xx_HAL_Driver/Inc/stm32f4xx_hal_dma.h"
 678              		.file 13 "Drivers/STM32F4xx_HAL_Driver/Inc/stm32f4xx_hal_adc.h"
 679              		.file 14 "Drivers/STM32F4xx_HAL_Driver/Inc/stm32f4xx_hal_tim.h"
 680              		.file 15 "Drivers/STM32F4xx_HAL_Driver/Inc/stm32f4xx_hal.h"
 681              		.file 16 "Lib/Timer/Timer.hpp"
 682              		.file 17 "Lib/Button/Button.hpp"
 683              		.file 18 "Drivers/CMSIS/Device/ST/STM32F4xx/Include/system_stm32f4xx.h"
 684              		.file 19 "Core/Inc/tim.h"
 685              		.file 20 "/opt/ST/STM32CubeCLT_1.16.0/GNU-tools-for-STM32/arm-none-eabi/include/c++/12.3.1/cstdio"
 686              		.file 21 "/opt/ST/STM32CubeCLT_1.16.0/GNU-tools-for-STM32/arm-none-eabi/include/c++/12.3.1/arm-non
 687              		.file 22 "/opt/ST/STM32CubeCLT_1.16.0/GNU-tools-for-STM32/arm-none-eabi/include/sys/_types.h"
 688              		.file 23 "/opt/ST/STM32CubeCLT_1.16.0/GNU-tools-for-STM32/arm-none-eabi/include/sys/reent.h"
 689              		.file 24 "/opt/ST/STM32CubeCLT_1.16.0/GNU-tools-for-STM32/arm-none-eabi/include/sys/lock.h"
 690              		.file 25 "/opt/ST/STM32CubeCLT_1.16.0/GNU-tools-for-STM32/arm-none-eabi/include/stdio.h"
 691              		.file 26 "Core/Inc/adc.h"
 692              		.file 27 "src/unit/robot.hpp"
ARM GAS  /var/folders/5c/srt4fy4j1pd641bjfx75k5000000gn/T//ccTB0Fp6.s 			page 16


DEFINED SYMBOLS
                            *ABS*:00000000 robot.cpp
/var/folders/5c/srt4fy4j1pd641bjfx75k5000000gn/T//ccTB0Fp6.s:21     .text._ZN6Buzzer4initEv:00000000 $t
/var/folders/5c/srt4fy4j1pd641bjfx75k5000000gn/T//ccTB0Fp6.s:27     .text._ZN6Buzzer4initEv:00000000 _ZN6Buzzer4initEv
.ARM.exidx.text._ZN6Buzzer4initEv:00000000 $d
/var/folders/5c/srt4fy4j1pd641bjfx75k5000000gn/T//ccTB0Fp6.s:67     .text._ZN12PwmSingleOut4initEv:00000000 $t
/var/folders/5c/srt4fy4j1pd641bjfx75k5000000gn/T//ccTB0Fp6.s:73     .text._ZN12PwmSingleOut4initEv:00000000 _ZN12PwmSingleOut4initEv
.ARM.exidx.text._ZN12PwmSingleOut4initEv:00000000 $d
/var/folders/5c/srt4fy4j1pd641bjfx75k5000000gn/T//ccTB0Fp6.s:113    .text._ZN5RobotC2Ev:00000000 $t
/var/folders/5c/srt4fy4j1pd641bjfx75k5000000gn/T//ccTB0Fp6.s:119    .text._ZN5RobotC2Ev:00000000 _ZN5RobotC2Ev
/var/folders/5c/srt4fy4j1pd641bjfx75k5000000gn/T//ccTB0Fp6.s:385    .text._ZN5RobotC2Ev:000000f0 $d
    .ARM.exidx.text._ZN5RobotC2Ev:00000000 $d
/var/folders/5c/srt4fy4j1pd641bjfx75k5000000gn/T//ccTB0Fp6.s:119    .text._ZN5RobotC2Ev:00000000 _ZN5RobotC1Ev
/var/folders/5c/srt4fy4j1pd641bjfx75k5000000gn/T//ccTB0Fp6.s:398    .rodata._ZN5Robot12hardwareInitEv.str1.4:00000000 $d
/var/folders/5c/srt4fy4j1pd641bjfx75k5000000gn/T//ccTB0Fp6.s:405    .text._ZN5Robot12hardwareInitEv:00000000 $t
/var/folders/5c/srt4fy4j1pd641bjfx75k5000000gn/T//ccTB0Fp6.s:411    .text._ZN5Robot12hardwareInitEv:00000000 _ZN5Robot12hardwareInitEv
/var/folders/5c/srt4fy4j1pd641bjfx75k5000000gn/T//ccTB0Fp6.s:503    .text._ZN5Robot12hardwareInitEv:00000068 $d
/var/folders/5c/srt4fy4j1pd641bjfx75k5000000gn/T//ccTB0Fp6.s:666    .bss.adcGetVal:00000000 adcGetVal
.ARM.exidx.text._ZN5Robot12hardwareInitEv:00000000 $d
/var/folders/5c/srt4fy4j1pd641bjfx75k5000000gn/T//ccTB0Fp6.s:513    .rodata._ZN5Robot10getSensorsEv.str1.4:00000000 $d
/var/folders/5c/srt4fy4j1pd641bjfx75k5000000gn/T//ccTB0Fp6.s:517    .text._ZN5Robot10getSensorsEv:00000000 $t
/var/folders/5c/srt4fy4j1pd641bjfx75k5000000gn/T//ccTB0Fp6.s:523    .text._ZN5Robot10getSensorsEv:00000000 _ZN5Robot10getSensorsEv
/var/folders/5c/srt4fy4j1pd641bjfx75k5000000gn/T//ccTB0Fp6.s:654    .text._ZN5Robot10getSensorsEv:0000008c $d
.ARM.exidx.text._ZN5Robot10getSensorsEv:00000000 $d
/var/folders/5c/srt4fy4j1pd641bjfx75k5000000gn/T//ccTB0Fp6.s:663    .bss.adcGetVal:00000000 $d

UNDEFINED SYMBOLS
HAL_TIM_PWM_Start
__aeabi_unwind_cpp_pr0
HAL_GPIO_WritePin
_ZN6ButtonC1EP12GPIO_TypeDeft
htim3
htim2
htim1
puts
printf
HAL_ADC_Start
HAL_ADC_Start_DMA
SystemCoreClock
hadc1
