ARM GAS  /var/folders/5c/srt4fy4j1pd641bjfx75k5000000gn/T//ccTcdjNN.s 			page 1


   1              		.cpu cortex-m4
   2              		.arch armv7e-m
   3              		.fpu fpv4-sp-d16
   4              		.eabi_attribute 27, 1
   5              		.eabi_attribute 28, 1
   6              		.eabi_attribute 20, 1
   7              		.eabi_attribute 21, 1
   8              		.eabi_attribute 23, 3
   9              		.eabi_attribute 24, 1
  10              		.eabi_attribute 25, 1
  11              		.eabi_attribute 26, 1
  12              		.eabi_attribute 30, 1
  13              		.eabi_attribute 34, 1
  14              		.eabi_attribute 18, 4
  15              		.file	"robot.cpp"
  16              		.text
  17              	.Ltext0:
  18              		.cfi_sections	.debug_frame
  19              		.file 1 "src/unit/robot.cpp"
  20              		.section	.text._ZN6Buzzer4initEv,"axG",%progbits,_ZN6Buzzer4initEv,comdat
  21              		.align	1
  22              		.weak	_ZN6Buzzer4initEv
  23              		.syntax unified
  24              		.thumb
  25              		.thumb_func
  27              	_ZN6Buzzer4initEv:
  28              		.fnstart
  29              	.LVL0:
  30              	.LFB242:
  31              		.file 2 "Lib/Buzzer/Buzzer.hpp"
   1:Lib/Buzzer/Buzzer.hpp **** #ifndef __BUZZER__
   2:Lib/Buzzer/Buzzer.hpp **** #define __BUZZER__
   3:Lib/Buzzer/Buzzer.hpp **** 
   4:Lib/Buzzer/Buzzer.hpp **** #include "tim.h"
   5:Lib/Buzzer/Buzzer.hpp **** 
   6:Lib/Buzzer/Buzzer.hpp **** #ifdef __cplusplus
   7:Lib/Buzzer/Buzzer.hpp **** extern "C" {
   8:Lib/Buzzer/Buzzer.hpp **** 
   9:Lib/Buzzer/Buzzer.hpp **** class Buzzer {
  10:Lib/Buzzer/Buzzer.hpp ****      public:
  11:Lib/Buzzer/Buzzer.hpp ****       Buzzer(TIM_HandleTypeDef *htim, uint32_t channel)
  12:Lib/Buzzer/Buzzer.hpp ****           : _htim(htim), _channel(channel), _maxValue(_htim->Init.Period) {
  13:Lib/Buzzer/Buzzer.hpp ****       }
  14:Lib/Buzzer/Buzzer.hpp **** 
  15:Lib/Buzzer/Buzzer.hpp ****       void init() {
  32              		.loc 2 15 12 view -0
  33              		.cfi_startproc
  34              		@ args = 0, pretend = 0, frame = 0
  35              		@ frame_needed = 0, uses_anonymous_args = 0
  36              		.loc 2 15 12 is_stmt 0 view .LVU1
  37 0000 10B5     		push	{r4, lr}
  38              		.save {r4, lr}
  39              	.LCFI0:
  40              		.cfi_def_cfa_offset 8
  41              		.cfi_offset 4, -8
  42              		.cfi_offset 14, -4
  43 0002 0446     		mov	r4, r0
ARM GAS  /var/folders/5c/srt4fy4j1pd641bjfx75k5000000gn/T//ccTcdjNN.s 			page 2


  16:Lib/Buzzer/Buzzer.hpp ****             HAL_TIM_PWM_Start(_htim, _channel);
  44              		.loc 2 16 13 is_stmt 1 view .LVU2
  45              		.loc 2 16 30 is_stmt 0 view .LVU3
  46 0004 4168     		ldr	r1, [r0, #4]
  47 0006 0068     		ldr	r0, [r0]
  48              	.LVL1:
  49              		.loc 2 16 30 view .LVU4
  50 0008 FFF7FEFF 		bl	HAL_TIM_PWM_Start
  51              	.LVL2:
  17:Lib/Buzzer/Buzzer.hpp ****             _maxValue = _htim->Init.Period;
  52              		.loc 2 17 13 is_stmt 1 view .LVU5
  53              		.loc 2 17 25 is_stmt 0 view .LVU6
  54 000c 2368     		ldr	r3, [r4]
  55              		.loc 2 17 37 view .LVU7
  56 000e DB68     		ldr	r3, [r3, #12]
  57              		.loc 2 17 23 view .LVU8
  58 0010 A360     		str	r3, [r4, #8]
  18:Lib/Buzzer/Buzzer.hpp ****       }
  59              		.loc 2 18 7 view .LVU9
  60 0012 10BD     		pop	{r4, pc}
  61              		.loc 2 18 7 view .LVU10
  62              		.cfi_endproc
  63              	.LFE242:
  64              		.fnend
  66              		.section	.text._ZN12PwmSingleOut4initEv,"axG",%progbits,_ZN12PwmSingleOut4initEv,comdat
  67              		.align	1
  68              		.weak	_ZN12PwmSingleOut4initEv
  69              		.syntax unified
  70              		.thumb
  71              		.thumb_func
  73              	_ZN12PwmSingleOut4initEv:
  74              		.fnstart
  75              	.LVL3:
  76              	.LFB261:
  77              		.file 3 "Lib/PWMSingle/PWMSingle.hpp"
   1:Lib/PWMSingle/PWMSingle.hpp **** #ifndef __PWMSINGLE__
   2:Lib/PWMSingle/PWMSingle.hpp **** #define __PWMSINGLE__
   3:Lib/PWMSingle/PWMSingle.hpp **** 
   4:Lib/PWMSingle/PWMSingle.hpp **** #include "MyMath.hpp"
   5:Lib/PWMSingle/PWMSingle.hpp **** #include "tim.h"
   6:Lib/PWMSingle/PWMSingle.hpp **** 
   7:Lib/PWMSingle/PWMSingle.hpp **** #ifdef __cplusplus
   8:Lib/PWMSingle/PWMSingle.hpp **** extern "C" {
   9:Lib/PWMSingle/PWMSingle.hpp **** 
  10:Lib/PWMSingle/PWMSingle.hpp **** class PwmSingleOut {
  11:Lib/PWMSingle/PWMSingle.hpp ****      public:
  12:Lib/PWMSingle/PWMSingle.hpp ****       PwmSingleOut(TIM_HandleTypeDef *htim, uint32_t channel)
  13:Lib/PWMSingle/PWMSingle.hpp ****           : _htim(htim), _channel(channel), _maxValue(_htim->Init.Period) {
  14:Lib/PWMSingle/PWMSingle.hpp ****       }
  15:Lib/PWMSingle/PWMSingle.hpp **** 
  16:Lib/PWMSingle/PWMSingle.hpp ****       void init() {
  78              		.loc 3 16 12 is_stmt 1 view -0
  79              		.cfi_startproc
  80              		@ args = 0, pretend = 0, frame = 0
  81              		@ frame_needed = 0, uses_anonymous_args = 0
  82              		.loc 3 16 12 is_stmt 0 view .LVU12
  83 0000 10B5     		push	{r4, lr}
ARM GAS  /var/folders/5c/srt4fy4j1pd641bjfx75k5000000gn/T//ccTcdjNN.s 			page 3


  84              		.save {r4, lr}
  85              	.LCFI1:
  86              		.cfi_def_cfa_offset 8
  87              		.cfi_offset 4, -8
  88              		.cfi_offset 14, -4
  89 0002 0446     		mov	r4, r0
  17:Lib/PWMSingle/PWMSingle.hpp ****             HAL_TIM_PWM_Start(_htim, _channel);
  90              		.loc 3 17 13 is_stmt 1 view .LVU13
  91              		.loc 3 17 30 is_stmt 0 view .LVU14
  92 0004 4168     		ldr	r1, [r0, #4]
  93 0006 0068     		ldr	r0, [r0]
  94              	.LVL4:
  95              		.loc 3 17 30 view .LVU15
  96 0008 FFF7FEFF 		bl	HAL_TIM_PWM_Start
  97              	.LVL5:
  18:Lib/PWMSingle/PWMSingle.hpp ****             _maxValue = _htim->Init.Period;
  98              		.loc 3 18 13 is_stmt 1 view .LVU16
  99              		.loc 3 18 25 is_stmt 0 view .LVU17
 100 000c 2368     		ldr	r3, [r4]
 101              		.loc 3 18 37 view .LVU18
 102 000e DB68     		ldr	r3, [r3, #12]
 103              		.loc 3 18 23 view .LVU19
 104 0010 A360     		str	r3, [r4, #8]
  19:Lib/PWMSingle/PWMSingle.hpp ****       }
 105              		.loc 3 19 7 view .LVU20
 106 0012 10BD     		pop	{r4, pc}
 107              		.loc 3 19 7 view .LVU21
 108              		.cfi_endproc
 109              	.LFE261:
 110              		.fnend
 112              		.section	.text._ZN5RobotC2Ev,"ax",%progbits
 113              		.align	1
 114              		.global	_ZN5RobotC2Ev
 115              		.syntax unified
 116              		.thumb
 117              		.thumb_func
 119              	_ZN5RobotC2Ev:
 120              		.fnstart
 121              	.LVL6:
 122              	.LFB266:
   1:src/unit/robot.cpp **** #include "robot.hpp"
   2:src/unit/robot.cpp **** 
   3:src/unit/robot.cpp **** Robot::Robot() {
 123              		.loc 1 3 1 is_stmt 1 view -0
 124              		.cfi_startproc
 125              		@ args = 0, pretend = 0, frame = 0
 126              		@ frame_needed = 0, uses_anonymous_args = 0
 127              		.loc 1 3 1 is_stmt 0 view .LVU23
 128 0000 F8B5     		push	{r3, r4, r5, r6, r7, lr}
 129              		.save {r3, r4, r5, r6, r7, lr}
 130              	.LCFI2:
 131              		.cfi_def_cfa_offset 24
 132              		.cfi_offset 3, -24
 133              		.cfi_offset 4, -20
 134              		.cfi_offset 5, -16
 135              		.cfi_offset 6, -12
 136              		.cfi_offset 7, -8
ARM GAS  /var/folders/5c/srt4fy4j1pd641bjfx75k5000000gn/T//ccTcdjNN.s 			page 4


 137              		.cfi_offset 14, -4
 138 0002 0446     		mov	r4, r0
 139              	.LVL7:
 140              	.LBB42:
 141              	.LBB43:
 142              	.LBI43:
 143              		.file 4 "Lib/DigitalInOut/DigitalInOut.hpp"
   1:Lib/DigitalInOut/DigitalInOut.hpp **** #ifndef __DigitalInOut__
   2:Lib/DigitalInOut/DigitalInOut.hpp **** #define __DigitalInOut__
   3:Lib/DigitalInOut/DigitalInOut.hpp **** 
   4:Lib/DigitalInOut/DigitalInOut.hpp **** #include "main.h"
   5:Lib/DigitalInOut/DigitalInOut.hpp **** 
   6:Lib/DigitalInOut/DigitalInOut.hpp **** #ifdef __cplusplus
   7:Lib/DigitalInOut/DigitalInOut.hpp **** 
   8:Lib/DigitalInOut/DigitalInOut.hpp **** extern "C" {
   9:Lib/DigitalInOut/DigitalInOut.hpp **** 
  10:Lib/DigitalInOut/DigitalInOut.hpp **** class DigitalOut {
  11:Lib/DigitalInOut/DigitalInOut.hpp ****   public:
  12:Lib/DigitalInOut/DigitalInOut.hpp ****     DigitalOut(GPIO_TypeDef *port, uint16_t pin) : port(port), pin(pin) {
 144              		.loc 4 12 5 is_stmt 1 view .LVU24
 145              	.LBB44:
 146              		.loc 4 12 52 is_stmt 0 view .LVU25
 147 0004 2748     		ldr	r0, .L7
 148              	.LVL8:
 149              		.loc 4 12 52 view .LVU26
 150 0006 2060     		str	r0, [r4]
 151              		.loc 4 12 64 view .LVU27
 152 0008 0426     		movs	r6, #4
 153 000a A680     		strh	r6, [r4, #4]	@ movhi
  13:Lib/DigitalInOut/DigitalInOut.hpp ****         HAL_GPIO_WritePin(port, pin, GPIO_PIN_RESET);
 154              		.loc 4 13 9 is_stmt 1 view .LVU28
 155              		.loc 4 13 26 is_stmt 0 view .LVU29
 156 000c 0022     		movs	r2, #0
 157 000e 3146     		mov	r1, r6
 158 0010 FFF7FEFF 		bl	HAL_GPIO_WritePin
 159              	.LVL9:
 160              		.loc 4 13 26 view .LVU30
 161              	.LBE44:
 162              	.LBE43:
 163              	.LBB45:
 164              	.LBI45:
  12:Lib/DigitalInOut/DigitalInOut.hpp ****         HAL_GPIO_WritePin(port, pin, GPIO_PIN_RESET);
 165              		.loc 4 12 5 is_stmt 1 view .LVU31
 166              	.LBB46:
  12:Lib/DigitalInOut/DigitalInOut.hpp ****         HAL_GPIO_WritePin(port, pin, GPIO_PIN_RESET);
 167              		.loc 4 12 52 is_stmt 0 view .LVU32
 168 0014 244D     		ldr	r5, .L7+4
 169 0016 A560     		str	r5, [r4, #8]
  12:Lib/DigitalInOut/DigitalInOut.hpp ****         HAL_GPIO_WritePin(port, pin, GPIO_PIN_RESET);
 170              		.loc 4 12 64 view .LVU33
 171 0018 1021     		movs	r1, #16
 172 001a A181     		strh	r1, [r4, #12]	@ movhi
 173              		.loc 4 13 9 is_stmt 1 view .LVU34
 174              		.loc 4 13 26 is_stmt 0 view .LVU35
 175 001c 0022     		movs	r2, #0
 176 001e 2846     		mov	r0, r5
 177 0020 FFF7FEFF 		bl	HAL_GPIO_WritePin
ARM GAS  /var/folders/5c/srt4fy4j1pd641bjfx75k5000000gn/T//ccTcdjNN.s 			page 5


 178              	.LVL10:
 179              		.loc 4 13 26 view .LVU36
 180              	.LBE46:
 181              	.LBE45:
 182              	.LBB47:
 183              	.LBI47:
  12:Lib/DigitalInOut/DigitalInOut.hpp ****         HAL_GPIO_WritePin(port, pin, GPIO_PIN_RESET);
 184              		.loc 4 12 5 is_stmt 1 view .LVU37
 185              	.LBB48:
  12:Lib/DigitalInOut/DigitalInOut.hpp ****         HAL_GPIO_WritePin(port, pin, GPIO_PIN_RESET);
 186              		.loc 4 12 52 is_stmt 0 view .LVU38
 187 0024 2561     		str	r5, [r4, #16]
  12:Lib/DigitalInOut/DigitalInOut.hpp ****         HAL_GPIO_WritePin(port, pin, GPIO_PIN_RESET);
 188              		.loc 4 12 64 view .LVU39
 189 0026 4021     		movs	r1, #64
 190 0028 A182     		strh	r1, [r4, #20]	@ movhi
 191              		.loc 4 13 9 is_stmt 1 view .LVU40
 192              		.loc 4 13 26 is_stmt 0 view .LVU41
 193 002a 0022     		movs	r2, #0
 194 002c 2846     		mov	r0, r5
 195 002e FFF7FEFF 		bl	HAL_GPIO_WritePin
 196              	.LVL11:
 197              		.loc 4 13 26 view .LVU42
 198              	.LBE48:
 199              	.LBE47:
 200              	.LBB49:
 201              	.LBI49:
  12:Lib/DigitalInOut/DigitalInOut.hpp ****         HAL_GPIO_WritePin(port, pin, GPIO_PIN_RESET);
 202              		.loc 4 12 5 is_stmt 1 view .LVU43
 203              	.LBB50:
  12:Lib/DigitalInOut/DigitalInOut.hpp ****         HAL_GPIO_WritePin(port, pin, GPIO_PIN_RESET);
 204              		.loc 4 12 52 is_stmt 0 view .LVU44
 205 0032 A561     		str	r5, [r4, #24]
  12:Lib/DigitalInOut/DigitalInOut.hpp ****         HAL_GPIO_WritePin(port, pin, GPIO_PIN_RESET);
 206              		.loc 4 12 64 view .LVU45
 207 0034 8021     		movs	r1, #128
 208 0036 A183     		strh	r1, [r4, #28]	@ movhi
 209              		.loc 4 13 9 is_stmt 1 view .LVU46
 210              		.loc 4 13 26 is_stmt 0 view .LVU47
 211 0038 0022     		movs	r2, #0
 212 003a 2846     		mov	r0, r5
 213 003c FFF7FEFF 		bl	HAL_GPIO_WritePin
 214              	.LVL12:
 215              		.loc 4 13 26 view .LVU48
 216              	.LBE50:
 217              	.LBE49:
 218              	.LBB51:
 219              	.LBI51:
  12:Lib/DigitalInOut/DigitalInOut.hpp ****         HAL_GPIO_WritePin(port, pin, GPIO_PIN_RESET);
 220              		.loc 4 12 5 is_stmt 1 view .LVU49
 221              	.LBB52:
  12:Lib/DigitalInOut/DigitalInOut.hpp ****         HAL_GPIO_WritePin(port, pin, GPIO_PIN_RESET);
 222              		.loc 4 12 52 is_stmt 0 view .LVU50
 223 0040 2562     		str	r5, [r4, #32]
  12:Lib/DigitalInOut/DigitalInOut.hpp ****         HAL_GPIO_WritePin(port, pin, GPIO_PIN_RESET);
 224              		.loc 4 12 64 view .LVU51
 225 0042 4FF48071 		mov	r1, #256
ARM GAS  /var/folders/5c/srt4fy4j1pd641bjfx75k5000000gn/T//ccTcdjNN.s 			page 6


 226 0046 A184     		strh	r1, [r4, #36]	@ movhi
 227              		.loc 4 13 9 is_stmt 1 view .LVU52
 228              		.loc 4 13 26 is_stmt 0 view .LVU53
 229 0048 0022     		movs	r2, #0
 230 004a 2846     		mov	r0, r5
 231 004c FFF7FEFF 		bl	HAL_GPIO_WritePin
 232              	.LVL13:
 233              		.loc 4 13 26 view .LVU54
 234              	.LBE52:
 235              	.LBE51:
 236              	.LBB53:
 237              	.LBI53:
  12:Lib/PWMSingle/PWMSingle.hpp ****           : _htim(htim), _channel(channel), _maxValue(_htim->Init.Period) {
 238              		.loc 3 12 7 is_stmt 1 view .LVU55
 239              	.LBB54:
  13:Lib/PWMSingle/PWMSingle.hpp ****       }
 240              		.loc 3 13 13 is_stmt 0 view .LVU56
 241 0050 164B     		ldr	r3, .L7+8
 242 0052 A362     		str	r3, [r4, #40]
  13:Lib/PWMSingle/PWMSingle.hpp ****       }
 243              		.loc 3 13 26 view .LVU57
 244 0054 0C27     		movs	r7, #12
 245 0056 E762     		str	r7, [r4, #44]
  13:Lib/PWMSingle/PWMSingle.hpp ****       }
 246              		.loc 3 13 67 view .LVU58
 247 0058 DA68     		ldr	r2, [r3, #12]
  13:Lib/PWMSingle/PWMSingle.hpp ****       }
 248              		.loc 3 13 45 view .LVU59
 249 005a 2263     		str	r2, [r4, #48]
 250              	.LVL14:
  13:Lib/PWMSingle/PWMSingle.hpp ****       }
 251              		.loc 3 13 45 view .LVU60
 252              	.LBE54:
 253              	.LBE53:
 254              	.LBB55:
 255              	.LBI55:
  12:Lib/PWMSingle/PWMSingle.hpp ****           : _htim(htim), _channel(channel), _maxValue(_htim->Init.Period) {
 256              		.loc 3 12 7 is_stmt 1 view .LVU61
 257              	.LBB56:
  13:Lib/PWMSingle/PWMSingle.hpp ****       }
 258              		.loc 3 13 13 is_stmt 0 view .LVU62
 259 005c 1448     		ldr	r0, .L7+12
 260 005e A063     		str	r0, [r4, #56]
  13:Lib/PWMSingle/PWMSingle.hpp ****       }
 261              		.loc 3 13 26 view .LVU63
 262 0060 E663     		str	r6, [r4, #60]
  13:Lib/PWMSingle/PWMSingle.hpp ****       }
 263              		.loc 3 13 67 view .LVU64
 264 0062 C568     		ldr	r5, [r0, #12]
  13:Lib/PWMSingle/PWMSingle.hpp ****       }
 265              		.loc 3 13 45 view .LVU65
 266 0064 2564     		str	r5, [r4, #64]
 267              	.LVL15:
  13:Lib/PWMSingle/PWMSingle.hpp ****       }
 268              		.loc 3 13 45 view .LVU66
 269              	.LBE56:
 270              	.LBE55:
ARM GAS  /var/folders/5c/srt4fy4j1pd641bjfx75k5000000gn/T//ccTcdjNN.s 			page 7


 271              	.LBB57:
 272              	.LBI57:
  12:Lib/PWMSingle/PWMSingle.hpp ****           : _htim(htim), _channel(channel), _maxValue(_htim->Init.Period) {
 273              		.loc 3 12 7 is_stmt 1 view .LVU67
 274              	.LBB58:
  13:Lib/PWMSingle/PWMSingle.hpp ****       }
 275              		.loc 3 13 13 is_stmt 0 view .LVU68
 276 0066 A364     		str	r3, [r4, #72]
  13:Lib/PWMSingle/PWMSingle.hpp ****       }
 277              		.loc 3 13 26 view .LVU69
 278 0068 0821     		movs	r1, #8
 279 006a E164     		str	r1, [r4, #76]
  13:Lib/PWMSingle/PWMSingle.hpp ****       }
 280              		.loc 3 13 45 view .LVU70
 281 006c 2265     		str	r2, [r4, #80]
 282              	.LVL16:
  13:Lib/PWMSingle/PWMSingle.hpp ****       }
 283              		.loc 3 13 45 view .LVU71
 284              	.LBE58:
 285              	.LBE57:
 286              	.LBB59:
 287              	.LBI59:
  12:Lib/PWMSingle/PWMSingle.hpp ****           : _htim(htim), _channel(channel), _maxValue(_htim->Init.Period) {
 288              		.loc 3 12 7 is_stmt 1 view .LVU72
 289              	.LBB60:
  13:Lib/PWMSingle/PWMSingle.hpp ****       }
 290              		.loc 3 13 13 is_stmt 0 view .LVU73
 291 006e 114B     		ldr	r3, .L7+16
 292 0070 A365     		str	r3, [r4, #88]
  13:Lib/PWMSingle/PWMSingle.hpp ****       }
 293              		.loc 3 13 26 view .LVU74
 294 0072 0022     		movs	r2, #0
 295 0074 E265     		str	r2, [r4, #92]
  13:Lib/PWMSingle/PWMSingle.hpp ****       }
 296              		.loc 3 13 67 view .LVU75
 297 0076 DA68     		ldr	r2, [r3, #12]
  13:Lib/PWMSingle/PWMSingle.hpp ****       }
 298              		.loc 3 13 45 view .LVU76
 299 0078 2266     		str	r2, [r4, #96]
 300              	.LVL17:
  13:Lib/PWMSingle/PWMSingle.hpp ****       }
 301              		.loc 3 13 45 view .LVU77
 302              	.LBE60:
 303              	.LBE59:
 304              	.LBB61:
 305              	.LBI61:
  12:Lib/PWMSingle/PWMSingle.hpp ****           : _htim(htim), _channel(channel), _maxValue(_htim->Init.Period) {
 306              		.loc 3 12 7 is_stmt 1 view .LVU78
 307              	.LBB62:
  13:Lib/PWMSingle/PWMSingle.hpp ****       }
 308              		.loc 3 13 13 is_stmt 0 view .LVU79
 309 007a A366     		str	r3, [r4, #104]
  13:Lib/PWMSingle/PWMSingle.hpp ****       }
 310              		.loc 3 13 26 view .LVU80
 311 007c E666     		str	r6, [r4, #108]
  13:Lib/PWMSingle/PWMSingle.hpp ****       }
 312              		.loc 3 13 45 view .LVU81
ARM GAS  /var/folders/5c/srt4fy4j1pd641bjfx75k5000000gn/T//ccTcdjNN.s 			page 8


 313 007e 2267     		str	r2, [r4, #112]
 314              	.LVL18:
  13:Lib/PWMSingle/PWMSingle.hpp ****       }
 315              		.loc 3 13 45 view .LVU82
 316              	.LBE62:
 317              	.LBE61:
 318              	.LBB63:
 319              	.LBI63:
  12:Lib/PWMSingle/PWMSingle.hpp ****           : _htim(htim), _channel(channel), _maxValue(_htim->Init.Period) {
 320              		.loc 3 12 7 is_stmt 1 view .LVU83
 321              	.LBB64:
  13:Lib/PWMSingle/PWMSingle.hpp ****       }
 322              		.loc 3 13 13 is_stmt 0 view .LVU84
 323 0080 A367     		str	r3, [r4, #120]
  13:Lib/PWMSingle/PWMSingle.hpp ****       }
 324              		.loc 3 13 26 view .LVU85
 325 0082 E167     		str	r1, [r4, #124]
  13:Lib/PWMSingle/PWMSingle.hpp ****       }
 326              		.loc 3 13 45 view .LVU86
 327 0084 C4F88020 		str	r2, [r4, #128]
 328              	.LVL19:
  13:Lib/PWMSingle/PWMSingle.hpp ****       }
 329              		.loc 3 13 45 view .LVU87
 330              	.LBE64:
 331              	.LBE63:
 332              	.LBB65:
 333              	.LBI65:
  12:Lib/PWMSingle/PWMSingle.hpp ****           : _htim(htim), _channel(channel), _maxValue(_htim->Init.Period) {
 334              		.loc 3 12 7 is_stmt 1 view .LVU88
 335              	.LBB66:
  13:Lib/PWMSingle/PWMSingle.hpp ****       }
 336              		.loc 3 13 13 is_stmt 0 view .LVU89
 337 0088 C4F88830 		str	r3, [r4, #136]
  13:Lib/PWMSingle/PWMSingle.hpp ****       }
 338              		.loc 3 13 26 view .LVU90
 339 008c C4F88C70 		str	r7, [r4, #140]
  13:Lib/PWMSingle/PWMSingle.hpp ****       }
 340              		.loc 3 13 45 view .LVU91
 341 0090 C4F89020 		str	r2, [r4, #144]
 342              	.LVL20:
  13:Lib/PWMSingle/PWMSingle.hpp ****       }
 343              		.loc 3 13 45 view .LVU92
 344              	.LBE66:
 345              	.LBE65:
 346              	.LBB67:
 347              	.LBI67:
  11:Lib/Buzzer/Buzzer.hpp ****           : _htim(htim), _channel(channel), _maxValue(_htim->Init.Period) {
 348              		.loc 2 11 7 is_stmt 1 view .LVU93
 349              	.LBB68:
  12:Lib/Buzzer/Buzzer.hpp ****       }
 350              		.loc 2 12 13 is_stmt 0 view .LVU94
 351 0094 C4F89800 		str	r0, [r4, #152]
  12:Lib/Buzzer/Buzzer.hpp ****       }
 352              		.loc 2 12 26 view .LVU95
 353 0098 C4F89C10 		str	r1, [r4, #156]
  12:Lib/Buzzer/Buzzer.hpp ****       }
 354              		.loc 2 12 45 view .LVU96
ARM GAS  /var/folders/5c/srt4fy4j1pd641bjfx75k5000000gn/T//ccTcdjNN.s 			page 9


 355 009c C4F8A050 		str	r5, [r4, #160]
 356              	.LVL21:
  12:Lib/Buzzer/Buzzer.hpp ****       }
 357              		.loc 2 12 45 view .LVU97
 358              	.LBE68:
 359              	.LBE67:
 360              	.LBE42:
   4:src/unit/robot.cpp **** }
 361              		.loc 1 4 1 view .LVU98
 362 00a0 2046     		mov	r0, r4
 363 00a2 F8BD     		pop	{r3, r4, r5, r6, r7, pc}
 364              	.LVL22:
 365              	.L8:
 366              		.loc 1 4 1 view .LVU99
 367              		.align	2
 368              	.L7:
 369 00a4 000C0240 		.word	1073875968
 370 00a8 00040240 		.word	1073873920
 371 00ac 00000000 		.word	htim3
 372 00b0 00000000 		.word	htim2
 373 00b4 00000000 		.word	htim1
 374              		.cfi_endproc
 375              	.LFE266:
 376              		.fnend
 378              		.global	_ZN5RobotC1Ev
 379              		.thumb_set _ZN5RobotC1Ev,_ZN5RobotC2Ev
 380              		.section	.rodata._ZN5Robot12hardwareInitEv.str1.4,"aMS",%progbits,1
 381              		.align	2
 382              	.LC0:
 383 0000 48656C6C 		.ascii	"Hello World\000"
 383      6F20576F 
 383      726C6400 
 384              		.align	2
 385              	.LC1:
 386 000c 53797374 		.ascii	"SystemCoreClock = %ld\012\000"
 386      656D436F 
 386      7265436C 
 386      6F636B20 
 386      3D20256C 
 387              		.section	.text._ZN5Robot12hardwareInitEv,"ax",%progbits
 388              		.align	1
 389              		.global	_ZN5Robot12hardwareInitEv
 390              		.syntax unified
 391              		.thumb
 392              		.thumb_func
 394              	_ZN5Robot12hardwareInitEv:
 395              		.fnstart
 396              	.LVL23:
 397              	.LFB268:
   5:src/unit/robot.cpp **** 
   6:src/unit/robot.cpp **** void Robot::hardwareInit() {
 398              		.loc 1 6 28 is_stmt 1 view -0
 399              		.cfi_startproc
 400              		@ args = 0, pretend = 0, frame = 0
 401              		@ frame_needed = 0, uses_anonymous_args = 0
 402              		.loc 1 6 28 is_stmt 0 view .LVU101
 403 0000 10B5     		push	{r4, lr}
ARM GAS  /var/folders/5c/srt4fy4j1pd641bjfx75k5000000gn/T//ccTcdjNN.s 			page 10


 404              		.save {r4, lr}
 405              	.LCFI3:
 406              		.cfi_def_cfa_offset 8
 407              		.cfi_offset 4, -8
 408              		.cfi_offset 14, -4
 409 0002 0446     		mov	r4, r0
   7:src/unit/robot.cpp ****       printf("Hello World\n");
 410              		.loc 1 7 7 is_stmt 1 view .LVU102
 411              		.loc 1 7 13 is_stmt 0 view .LVU103
 412 0004 1448     		ldr	r0, .L11
 413              	.LVL24:
 414              		.loc 1 7 13 view .LVU104
 415 0006 FFF7FEFF 		bl	puts
 416              	.LVL25:
   8:src/unit/robot.cpp ****       printf("SystemCoreClock = %ld\n", SystemCoreClock);
 417              		.loc 1 8 7 is_stmt 1 view .LVU105
 418              		.loc 1 8 13 is_stmt 0 view .LVU106
 419 000a 144B     		ldr	r3, .L11+4
 420 000c 1968     		ldr	r1, [r3]
 421 000e 1448     		ldr	r0, .L11+8
 422 0010 FFF7FEFF 		bl	printf
 423              	.LVL26:
   9:src/unit/robot.cpp **** 
  10:src/unit/robot.cpp ****       fan.init();
 424              		.loc 1 10 7 is_stmt 1 view .LVU107
 425              		.loc 1 10 15 is_stmt 0 view .LVU108
 426 0014 04F12800 		add	r0, r4, #40
 427 0018 FFF7FEFF 		bl	_ZN12PwmSingleOut4initEv
 428              	.LVL27:
  11:src/unit/robot.cpp ****       ledH.init();
 429              		.loc 1 11 7 is_stmt 1 view .LVU109
 430              		.loc 1 11 16 is_stmt 0 view .LVU110
 431 001c 04F13800 		add	r0, r4, #56
 432 0020 FFF7FEFF 		bl	_ZN12PwmSingleOut4initEv
 433              	.LVL28:
  12:src/unit/robot.cpp ****       lineLed.init();
 434              		.loc 1 12 7 is_stmt 1 view .LVU111
 435              		.loc 1 12 19 is_stmt 0 view .LVU112
 436 0024 04F14800 		add	r0, r4, #72
 437 0028 FFF7FEFF 		bl	_ZN12PwmSingleOut4initEv
 438              	.LVL29:
  13:src/unit/robot.cpp ****       motor1a.init();
 439              		.loc 1 13 7 is_stmt 1 view .LVU113
 440              		.loc 1 13 19 is_stmt 0 view .LVU114
 441 002c 04F15800 		add	r0, r4, #88
 442 0030 FFF7FEFF 		bl	_ZN12PwmSingleOut4initEv
 443              	.LVL30:
  14:src/unit/robot.cpp ****       motor1b.init();
 444              		.loc 1 14 7 is_stmt 1 view .LVU115
 445              		.loc 1 14 19 is_stmt 0 view .LVU116
 446 0034 04F16800 		add	r0, r4, #104
 447 0038 FFF7FEFF 		bl	_ZN12PwmSingleOut4initEv
 448              	.LVL31:
  15:src/unit/robot.cpp ****       motor2a.init();
 449              		.loc 1 15 7 is_stmt 1 view .LVU117
 450              		.loc 1 15 19 is_stmt 0 view .LVU118
 451 003c 04F17800 		add	r0, r4, #120
ARM GAS  /var/folders/5c/srt4fy4j1pd641bjfx75k5000000gn/T//ccTcdjNN.s 			page 11


 452 0040 FFF7FEFF 		bl	_ZN12PwmSingleOut4initEv
 453              	.LVL32:
  16:src/unit/robot.cpp ****       motor2b.init();
 454              		.loc 1 16 7 is_stmt 1 view .LVU119
 455              		.loc 1 16 19 is_stmt 0 view .LVU120
 456 0044 04F18800 		add	r0, r4, #136
 457 0048 FFF7FEFF 		bl	_ZN12PwmSingleOut4initEv
 458              	.LVL33:
  17:src/unit/robot.cpp ****       buzzer.init();
 459              		.loc 1 17 7 is_stmt 1 view .LVU121
 460              		.loc 1 17 18 is_stmt 0 view .LVU122
 461 004c 04F19800 		add	r0, r4, #152
 462 0050 FFF7FEFF 		bl	_ZN6Buzzer4initEv
 463              	.LVL34:
  18:src/unit/robot.cpp **** }...
 464              		.loc 1 18 1 view .LVU123
 465 0054 10BD     		pop	{r4, pc}
 466              	.LVL35:
 467              	.L12:
 468              		.loc 1 18 1 view .LVU124
 469 0056 00BF     		.align	2
 470              	.L11:
 471 0058 00000000 		.word	.LC0
 472 005c 00000000 		.word	SystemCoreClock
 473 0060 0C000000 		.word	.LC1
 474              		.cfi_endproc
 475              	.LFE268:
 476              		.fnend
 478              		.text
 479              	.Letext0:
 480              		.file 5 "/opt/ST/STM32CubeCLT_1.16.0/GNU-tools-for-STM32/arm-none-eabi/include/machine/_default_ty
 481              		.file 6 "/opt/ST/STM32CubeCLT_1.16.0/GNU-tools-for-STM32/arm-none-eabi/include/sys/_stdint.h"
 482              		.file 7 "Drivers/CMSIS/Device/ST/STM32F4xx/Include/stm32f446xx.h"
 483              		.file 8 "/opt/ST/STM32CubeCLT_1.16.0/GNU-tools-for-STM32/lib/gcc/arm-none-eabi/12.3.1/include/stdd
 484              		.file 9 "Drivers/STM32F4xx_HAL_Driver/Inc/stm32f4xx_hal_def.h"
 485              		.file 10 "Drivers/STM32F4xx_HAL_Driver/Inc/stm32f4xx_hal_gpio.h"
 486              		.file 11 "Drivers/STM32F4xx_HAL_Driver/Inc/stm32f4xx_hal_dma.h"
 487              		.file 12 "Drivers/STM32F4xx_HAL_Driver/Inc/stm32f4xx_hal_tim.h"
 488              		.file 13 "Drivers/CMSIS/Device/ST/STM32F4xx/Include/system_stm32f4xx.h"
 489              		.file 14 "Core/Inc/tim.h"
 490              		.file 15 "/opt/ST/STM32CubeCLT_1.16.0/GNU-tools-for-STM32/arm-none-eabi/include/c++/12.3.1/cstdio"
 491              		.file 16 "/opt/ST/STM32CubeCLT_1.16.0/GNU-tools-for-STM32/arm-none-eabi/include/c++/12.3.1/arm-non
 492              		.file 17 "/opt/ST/STM32CubeCLT_1.16.0/GNU-tools-for-STM32/arm-none-eabi/include/sys/_types.h"
 493              		.file 18 "/opt/ST/STM32CubeCLT_1.16.0/GNU-tools-for-STM32/arm-none-eabi/include/sys/reent.h"
 494              		.file 19 "/opt/ST/STM32CubeCLT_1.16.0/GNU-tools-for-STM32/arm-none-eabi/include/sys/lock.h"
 495              		.file 20 "/opt/ST/STM32CubeCLT_1.16.0/GNU-tools-for-STM32/arm-none-eabi/include/stdio.h"
 496              		.file 21 "src/unit/robot.hpp"
ARM GAS  /var/folders/5c/srt4fy4j1pd641bjfx75k5000000gn/T//ccTcdjNN.s 			page 12


DEFINED SYMBOLS
                            *ABS*:00000000 robot.cpp
/var/folders/5c/srt4fy4j1pd641bjfx75k5000000gn/T//ccTcdjNN.s:21     .text._ZN6Buzzer4initEv:00000000 $t
/var/folders/5c/srt4fy4j1pd641bjfx75k5000000gn/T//ccTcdjNN.s:27     .text._ZN6Buzzer4initEv:00000000 _ZN6Buzzer4initEv
.ARM.exidx.text._ZN6Buzzer4initEv:00000000 $d
/var/folders/5c/srt4fy4j1pd641bjfx75k5000000gn/T//ccTcdjNN.s:67     .text._ZN12PwmSingleOut4initEv:00000000 $t
/var/folders/5c/srt4fy4j1pd641bjfx75k5000000gn/T//ccTcdjNN.s:73     .text._ZN12PwmSingleOut4initEv:00000000 _ZN12PwmSingleOut4initEv
.ARM.exidx.text._ZN12PwmSingleOut4initEv:00000000 $d
/var/folders/5c/srt4fy4j1pd641bjfx75k5000000gn/T//ccTcdjNN.s:113    .text._ZN5RobotC2Ev:00000000 $t
/var/folders/5c/srt4fy4j1pd641bjfx75k5000000gn/T//ccTcdjNN.s:119    .text._ZN5RobotC2Ev:00000000 _ZN5RobotC2Ev
/var/folders/5c/srt4fy4j1pd641bjfx75k5000000gn/T//ccTcdjNN.s:369    .text._ZN5RobotC2Ev:000000a4 $d
    .ARM.exidx.text._ZN5RobotC2Ev:00000000 $d
/var/folders/5c/srt4fy4j1pd641bjfx75k5000000gn/T//ccTcdjNN.s:119    .text._ZN5RobotC2Ev:00000000 _ZN5RobotC1Ev
/var/folders/5c/srt4fy4j1pd641bjfx75k5000000gn/T//ccTcdjNN.s:381    .rodata._ZN5Robot12hardwareInitEv.str1.4:00000000 $d
/var/folders/5c/srt4fy4j1pd641bjfx75k5000000gn/T//ccTcdjNN.s:388    .text._ZN5Robot12hardwareInitEv:00000000 $t
/var/folders/5c/srt4fy4j1pd641bjfx75k5000000gn/T//ccTcdjNN.s:394    .text._ZN5Robot12hardwareInitEv:00000000 _ZN5Robot12hardwareInitEv
/var/folders/5c/srt4fy4j1pd641bjfx75k5000000gn/T//ccTcdjNN.s:471    .text._ZN5Robot12hardwareInitEv:00000058 $d
.ARM.exidx.text._ZN5Robot12hardwareInitEv:00000000 $d

UNDEFINED SYMBOLS
HAL_TIM_PWM_Start
__aeabi_unwind_cpp_pr0
HAL_GPIO_WritePin
htim3
htim2
htim1
puts
printf
SystemCoreClock
