ARM GAS  /var/folders/5c/srt4fy4j1pd641bjfx75k5000000gn/T//ccjRrrWd.s 			page 1


   1              		.cpu cortex-m4
   2              		.arch armv7e-m
   3              		.fpu fpv4-sp-d16
   4              		.eabi_attribute 27, 1
   5              		.eabi_attribute 28, 1
   6              		.eabi_attribute 20, 1
   7              		.eabi_attribute 21, 1
   8              		.eabi_attribute 23, 3
   9              		.eabi_attribute 24, 1
  10              		.eabi_attribute 25, 1
  11              		.eabi_attribute 26, 1
  12              		.eabi_attribute 30, 1
  13              		.eabi_attribute 34, 1
  14              		.eabi_attribute 18, 4
  15              		.file	"robot.cpp"
  16              		.text
  17              	.Ltext0:
  18              		.cfi_sections	.debug_frame
  19              		.file 1 "src/unit/robot.cpp"
  20              		.section	.text._ZN6Buzzer4initEv,"axG",%progbits,_ZN6Buzzer4initEv,comdat
  21              		.align	1
  22              		.weak	_ZN6Buzzer4initEv
  23              		.syntax unified
  24              		.thumb
  25              		.thumb_func
  27              	_ZN6Buzzer4initEv:
  28              		.fnstart
  29              	.LVL0:
  30              	.LFB254:
  31              		.file 2 "Lib/Buzzer/Buzzer.hpp"
   1:Lib/Buzzer/Buzzer.hpp **** #ifndef __BUZZER__
   2:Lib/Buzzer/Buzzer.hpp **** #define __BUZZER__
   3:Lib/Buzzer/Buzzer.hpp **** 
   4:Lib/Buzzer/Buzzer.hpp **** #include "tim.h"
   5:Lib/Buzzer/Buzzer.hpp **** 
   6:Lib/Buzzer/Buzzer.hpp **** #ifdef __cplusplus
   7:Lib/Buzzer/Buzzer.hpp **** extern "C" {
   8:Lib/Buzzer/Buzzer.hpp **** 
   9:Lib/Buzzer/Buzzer.hpp **** class Buzzer {
  10:Lib/Buzzer/Buzzer.hpp ****      public:
  11:Lib/Buzzer/Buzzer.hpp ****       Buzzer(TIM_HandleTypeDef *htim, uint32_t channel)
  12:Lib/Buzzer/Buzzer.hpp ****           : _htim(htim), _channel(channel), _maxValue(_htim->Init.Period) {
  13:Lib/Buzzer/Buzzer.hpp ****       }
  14:Lib/Buzzer/Buzzer.hpp **** 
  15:Lib/Buzzer/Buzzer.hpp ****       void init() {
  32              		.loc 2 15 12 view -0
  33              		.cfi_startproc
  34              		@ args = 0, pretend = 0, frame = 0
  35              		@ frame_needed = 0, uses_anonymous_args = 0
  36              		.loc 2 15 12 is_stmt 0 view .LVU1
  37 0000 10B5     		push	{r4, lr}
  38              		.save {r4, lr}
  39              	.LCFI0:
  40              		.cfi_def_cfa_offset 8
  41              		.cfi_offset 4, -8
  42              		.cfi_offset 14, -4
  43 0002 0446     		mov	r4, r0
ARM GAS  /var/folders/5c/srt4fy4j1pd641bjfx75k5000000gn/T//ccjRrrWd.s 			page 2


  16:Lib/Buzzer/Buzzer.hpp ****             HAL_TIM_PWM_Start(_htim, _channel);
  44              		.loc 2 16 13 is_stmt 1 view .LVU2
  45              		.loc 2 16 30 is_stmt 0 view .LVU3
  46 0004 4168     		ldr	r1, [r0, #4]
  47 0006 0068     		ldr	r0, [r0]
  48              	.LVL1:
  49              		.loc 2 16 30 view .LVU4
  50 0008 FFF7FEFF 		bl	HAL_TIM_PWM_Start
  51              	.LVL2:
  17:Lib/Buzzer/Buzzer.hpp ****             _maxValue = _htim->Init.Period;
  52              		.loc 2 17 13 is_stmt 1 view .LVU5
  53              		.loc 2 17 25 is_stmt 0 view .LVU6
  54 000c 2368     		ldr	r3, [r4]
  55              		.loc 2 17 37 view .LVU7
  56 000e DB68     		ldr	r3, [r3, #12]
  57              		.loc 2 17 23 view .LVU8
  58 0010 A360     		str	r3, [r4, #8]
  18:Lib/Buzzer/Buzzer.hpp ****       }
  59              		.loc 2 18 7 view .LVU9
  60 0012 10BD     		pop	{r4, pc}
  61              		.loc 2 18 7 view .LVU10
  62              		.cfi_endproc
  63              	.LFE254:
  64              		.fnend
  66              		.section	.text._ZN12PwmSingleOut4initEv,"axG",%progbits,_ZN12PwmSingleOut4initEv,comdat
  67              		.align	1
  68              		.weak	_ZN12PwmSingleOut4initEv
  69              		.syntax unified
  70              		.thumb
  71              		.thumb_func
  73              	_ZN12PwmSingleOut4initEv:
  74              		.fnstart
  75              	.LVL3:
  76              	.LFB262:
  77              		.file 3 "Lib/PWMSingle/PWMSingle.hpp"
   1:Lib/PWMSingle/PWMSingle.hpp **** #ifndef __PWMSINGLE__
   2:Lib/PWMSingle/PWMSingle.hpp **** #define __PWMSINGLE__
   3:Lib/PWMSingle/PWMSingle.hpp **** 
   4:Lib/PWMSingle/PWMSingle.hpp **** #include "MyMath.hpp"
   5:Lib/PWMSingle/PWMSingle.hpp **** #include "tim.h"
   6:Lib/PWMSingle/PWMSingle.hpp **** 
   7:Lib/PWMSingle/PWMSingle.hpp **** #ifdef __cplusplus
   8:Lib/PWMSingle/PWMSingle.hpp **** extern "C" {
   9:Lib/PWMSingle/PWMSingle.hpp **** 
  10:Lib/PWMSingle/PWMSingle.hpp **** class PwmSingleOut {
  11:Lib/PWMSingle/PWMSingle.hpp ****      public:
  12:Lib/PWMSingle/PWMSingle.hpp ****       PwmSingleOut(TIM_HandleTypeDef *htim, uint32_t channel)
  13:Lib/PWMSingle/PWMSingle.hpp ****           : _htim(htim), _channel(channel), _maxValue(_htim->Init.Period) {
  14:Lib/PWMSingle/PWMSingle.hpp ****       }
  15:Lib/PWMSingle/PWMSingle.hpp **** 
  16:Lib/PWMSingle/PWMSingle.hpp ****       void init() {
  78              		.loc 3 16 12 is_stmt 1 view -0
  79              		.cfi_startproc
  80              		@ args = 0, pretend = 0, frame = 0
  81              		@ frame_needed = 0, uses_anonymous_args = 0
  82              		.loc 3 16 12 is_stmt 0 view .LVU12
  83 0000 10B5     		push	{r4, lr}
ARM GAS  /var/folders/5c/srt4fy4j1pd641bjfx75k5000000gn/T//ccjRrrWd.s 			page 3


  84              		.save {r4, lr}
  85              	.LCFI1:
  86              		.cfi_def_cfa_offset 8
  87              		.cfi_offset 4, -8
  88              		.cfi_offset 14, -4
  89 0002 0446     		mov	r4, r0
  17:Lib/PWMSingle/PWMSingle.hpp ****             HAL_TIM_PWM_Start(_htim, _channel);
  90              		.loc 3 17 13 is_stmt 1 view .LVU13
  91              		.loc 3 17 30 is_stmt 0 view .LVU14
  92 0004 4168     		ldr	r1, [r0, #4]
  93 0006 0068     		ldr	r0, [r0]
  94              	.LVL4:
  95              		.loc 3 17 30 view .LVU15
  96 0008 FFF7FEFF 		bl	HAL_TIM_PWM_Start
  97              	.LVL5:
  18:Lib/PWMSingle/PWMSingle.hpp ****             _maxValue = _htim->Init.Period;
  98              		.loc 3 18 13 is_stmt 1 view .LVU16
  99              		.loc 3 18 25 is_stmt 0 view .LVU17
 100 000c 2368     		ldr	r3, [r4]
 101              		.loc 3 18 37 view .LVU18
 102 000e DB68     		ldr	r3, [r3, #12]
 103              		.loc 3 18 23 view .LVU19
 104 0010 A360     		str	r3, [r4, #8]
  19:Lib/PWMSingle/PWMSingle.hpp ****       }
 105              		.loc 3 19 7 view .LVU20
 106 0012 10BD     		pop	{r4, pc}
 107              		.loc 3 19 7 view .LVU21
 108              		.cfi_endproc
 109              	.LFE262:
 110              		.fnend
 112              		.section	.text._ZN5RobotC2Ev,"ax",%progbits
 113              		.align	1
 114              		.global	_ZN5RobotC2Ev
 115              		.syntax unified
 116              		.thumb
 117              		.thumb_func
 119              	_ZN5RobotC2Ev:
 120              		.fnstart
 121              	.LVL6:
 122              	.LFB267:
   1:src/unit/robot.cpp **** #include "robot.hpp"
   2:src/unit/robot.cpp **** 
   3:src/unit/robot.cpp **** uint16_t adc_get_val[14];
   4:src/unit/robot.cpp **** 
   5:src/unit/robot.cpp **** Robot::Robot() {
 123              		.loc 1 5 1 is_stmt 1 view -0
 124              		.cfi_startproc
 125              		@ args = 0, pretend = 0, frame = 0
 126              		@ frame_needed = 0, uses_anonymous_args = 0
 127              		.loc 1 5 1 is_stmt 0 view .LVU23
 128 0000 F0B5     		push	{r4, r5, r6, r7, lr}
 129              		.save {r4, r5, r6, r7, lr}
 130              	.LCFI2:
 131              		.cfi_def_cfa_offset 20
 132              		.cfi_offset 4, -20
 133              		.cfi_offset 5, -16
 134              		.cfi_offset 6, -12
ARM GAS  /var/folders/5c/srt4fy4j1pd641bjfx75k5000000gn/T//ccjRrrWd.s 			page 4


 135              		.cfi_offset 7, -8
 136              		.cfi_offset 14, -4
 137              		.pad #20
 138 0002 85B0     		sub	sp, sp, #20
 139              	.LCFI3:
 140              		.cfi_def_cfa_offset 40
 141 0004 0446     		mov	r4, r0
 142              	.LVL7:
 143              	.LBB42:
 144              	.LBB43:
 145              	.LBI43:
 146              		.file 4 "Lib/DigitalInOut/DigitalInOut.hpp"
   1:Lib/DigitalInOut/DigitalInOut.hpp **** #ifndef __DigitalInOut__
   2:Lib/DigitalInOut/DigitalInOut.hpp **** #define __DigitalInOut__
   3:Lib/DigitalInOut/DigitalInOut.hpp **** 
   4:Lib/DigitalInOut/DigitalInOut.hpp **** #include "main.h"
   5:Lib/DigitalInOut/DigitalInOut.hpp **** 
   6:Lib/DigitalInOut/DigitalInOut.hpp **** #ifdef __cplusplus
   7:Lib/DigitalInOut/DigitalInOut.hpp **** 
   8:Lib/DigitalInOut/DigitalInOut.hpp **** extern "C" {
   9:Lib/DigitalInOut/DigitalInOut.hpp **** 
  10:Lib/DigitalInOut/DigitalInOut.hpp **** class DigitalOut {
  11:Lib/DigitalInOut/DigitalInOut.hpp ****   public:
  12:Lib/DigitalInOut/DigitalInOut.hpp ****     DigitalOut(GPIO_TypeDef *port, uint16_t pin) : port(port), pin(pin) {
 147              		.loc 4 12 5 is_stmt 1 view .LVU24
 148              	.LBB44:
 149              		.loc 4 12 52 is_stmt 0 view .LVU25
 150 0006 4548     		ldr	r0, .L7
 151              	.LVL8:
 152              		.loc 4 12 52 view .LVU26
 153 0008 6062     		str	r0, [r4, #36]
 154              		.loc 4 12 64 view .LVU27
 155 000a 0426     		movs	r6, #4
 156 000c 2685     		strh	r6, [r4, #40]	@ movhi
  13:Lib/DigitalInOut/DigitalInOut.hpp ****         HAL_GPIO_WritePin(port, pin, GPIO_PIN_RESET);
 157              		.loc 4 13 9 is_stmt 1 view .LVU28
 158              		.loc 4 13 26 is_stmt 0 view .LVU29
 159 000e 0022     		movs	r2, #0
 160 0010 3146     		mov	r1, r6
 161 0012 FFF7FEFF 		bl	HAL_GPIO_WritePin
 162              	.LVL9:
 163              		.loc 4 13 26 view .LVU30
 164              	.LBE44:
 165              	.LBE43:
 166              	.LBB45:
 167              	.LBI45:
  12:Lib/DigitalInOut/DigitalInOut.hpp ****         HAL_GPIO_WritePin(port, pin, GPIO_PIN_RESET);
 168              		.loc 4 12 5 is_stmt 1 view .LVU31
 169              	.LBB46:
  12:Lib/DigitalInOut/DigitalInOut.hpp ****         HAL_GPIO_WritePin(port, pin, GPIO_PIN_RESET);
 170              		.loc 4 12 52 is_stmt 0 view .LVU32
 171 0016 424D     		ldr	r5, .L7+4
 172 0018 E562     		str	r5, [r4, #44]
  12:Lib/DigitalInOut/DigitalInOut.hpp ****         HAL_GPIO_WritePin(port, pin, GPIO_PIN_RESET);
 173              		.loc 4 12 64 view .LVU33
 174 001a 1021     		movs	r1, #16
 175 001c 2186     		strh	r1, [r4, #48]	@ movhi
ARM GAS  /var/folders/5c/srt4fy4j1pd641bjfx75k5000000gn/T//ccjRrrWd.s 			page 5


 176              		.loc 4 13 9 is_stmt 1 view .LVU34
 177              		.loc 4 13 26 is_stmt 0 view .LVU35
 178 001e 0022     		movs	r2, #0
 179 0020 2846     		mov	r0, r5
 180 0022 FFF7FEFF 		bl	HAL_GPIO_WritePin
 181              	.LVL10:
 182              		.loc 4 13 26 view .LVU36
 183              	.LBE46:
 184              	.LBE45:
 185              	.LBB47:
 186              	.LBI47:
  12:Lib/DigitalInOut/DigitalInOut.hpp ****         HAL_GPIO_WritePin(port, pin, GPIO_PIN_RESET);
 187              		.loc 4 12 5 is_stmt 1 view .LVU37
 188              	.LBB48:
  12:Lib/DigitalInOut/DigitalInOut.hpp ****         HAL_GPIO_WritePin(port, pin, GPIO_PIN_RESET);
 189              		.loc 4 12 52 is_stmt 0 view .LVU38
 190 0026 6563     		str	r5, [r4, #52]
  12:Lib/DigitalInOut/DigitalInOut.hpp ****         HAL_GPIO_WritePin(port, pin, GPIO_PIN_RESET);
 191              		.loc 4 12 64 view .LVU39
 192 0028 4021     		movs	r1, #64
 193 002a 2187     		strh	r1, [r4, #56]	@ movhi
 194              		.loc 4 13 9 is_stmt 1 view .LVU40
 195              		.loc 4 13 26 is_stmt 0 view .LVU41
 196 002c 0022     		movs	r2, #0
 197 002e 2846     		mov	r0, r5
 198 0030 FFF7FEFF 		bl	HAL_GPIO_WritePin
 199              	.LVL11:
 200              		.loc 4 13 26 view .LVU42
 201              	.LBE48:
 202              	.LBE47:
 203              	.LBB49:
 204              	.LBI49:
  12:Lib/DigitalInOut/DigitalInOut.hpp ****         HAL_GPIO_WritePin(port, pin, GPIO_PIN_RESET);
 205              		.loc 4 12 5 is_stmt 1 view .LVU43
 206              	.LBB50:
  12:Lib/DigitalInOut/DigitalInOut.hpp ****         HAL_GPIO_WritePin(port, pin, GPIO_PIN_RESET);
 207              		.loc 4 12 52 is_stmt 0 view .LVU44
 208 0034 E563     		str	r5, [r4, #60]
  12:Lib/DigitalInOut/DigitalInOut.hpp ****         HAL_GPIO_WritePin(port, pin, GPIO_PIN_RESET);
 209              		.loc 4 12 64 view .LVU45
 210 0036 8021     		movs	r1, #128
 211 0038 A4F84010 		strh	r1, [r4, #64]	@ movhi
 212              		.loc 4 13 9 is_stmt 1 view .LVU46
 213              		.loc 4 13 26 is_stmt 0 view .LVU47
 214 003c 0022     		movs	r2, #0
 215 003e 2846     		mov	r0, r5
 216 0040 FFF7FEFF 		bl	HAL_GPIO_WritePin
 217              	.LVL12:
 218              		.loc 4 13 26 view .LVU48
 219              	.LBE50:
 220              	.LBE49:
 221              	.LBB51:
 222              	.LBI51:
  12:Lib/DigitalInOut/DigitalInOut.hpp ****         HAL_GPIO_WritePin(port, pin, GPIO_PIN_RESET);
 223              		.loc 4 12 5 is_stmt 1 view .LVU49
 224              	.LBB52:
  12:Lib/DigitalInOut/DigitalInOut.hpp ****         HAL_GPIO_WritePin(port, pin, GPIO_PIN_RESET);
ARM GAS  /var/folders/5c/srt4fy4j1pd641bjfx75k5000000gn/T//ccjRrrWd.s 			page 6


 225              		.loc 4 12 52 is_stmt 0 view .LVU50
 226 0044 6564     		str	r5, [r4, #68]
  12:Lib/DigitalInOut/DigitalInOut.hpp ****         HAL_GPIO_WritePin(port, pin, GPIO_PIN_RESET);
 227              		.loc 4 12 64 view .LVU51
 228 0046 4FF48071 		mov	r1, #256
 229 004a A4F84810 		strh	r1, [r4, #72]	@ movhi
 230              		.loc 4 13 9 is_stmt 1 view .LVU52
 231              		.loc 4 13 26 is_stmt 0 view .LVU53
 232 004e 0022     		movs	r2, #0
 233 0050 2846     		mov	r0, r5
 234 0052 FFF7FEFF 		bl	HAL_GPIO_WritePin
 235              	.LVL13:
 236              		.loc 4 13 26 view .LVU54
 237              	.LBE52:
 238              	.LBE51:
 239              		.loc 1 5 14 view .LVU55
 240 0056 4FF48052 		mov	r2, #4096
 241 005a 3249     		ldr	r1, .L7+8
 242 005c 04F14C00 		add	r0, r4, #76
 243 0060 FFF7FEFF 		bl	_ZN6ButtonC1EP12GPIO_TypeDeft
 244              	.LVL14:
 245 0064 0822     		movs	r2, #8
 246 0066 2946     		mov	r1, r5
 247 0068 04F16000 		add	r0, r4, #96
 248 006c FFF7FEFF 		bl	_ZN6ButtonC1EP12GPIO_TypeDeft
 249              	.LVL15:
 250 0070 2022     		movs	r2, #32
 251 0072 2946     		mov	r1, r5
 252 0074 04F17400 		add	r0, r4, #116
 253 0078 FFF7FEFF 		bl	_ZN6ButtonC1EP12GPIO_TypeDeft
 254              	.LVL16:
 255              	.LBB53:
 256              	.LBI53:
  12:Lib/PWMSingle/PWMSingle.hpp ****           : _htim(htim), _channel(channel), _maxValue(_htim->Init.Period) {
 257              		.loc 3 12 7 is_stmt 1 view .LVU56
 258              	.LBB54:
  13:Lib/PWMSingle/PWMSingle.hpp ****       }
 259              		.loc 3 13 13 is_stmt 0 view .LVU57
 260 007c 2A4B     		ldr	r3, .L7+12
 261 007e C4F88830 		str	r3, [r4, #136]
  13:Lib/PWMSingle/PWMSingle.hpp ****       }
 262              		.loc 3 13 26 view .LVU58
 263 0082 0C27     		movs	r7, #12
 264 0084 C4F88C70 		str	r7, [r4, #140]
  13:Lib/PWMSingle/PWMSingle.hpp ****       }
 265              		.loc 3 13 67 view .LVU59
 266 0088 DA68     		ldr	r2, [r3, #12]
  13:Lib/PWMSingle/PWMSingle.hpp ****       }
 267              		.loc 3 13 45 view .LVU60
 268 008a C4F89020 		str	r2, [r4, #144]
 269              	.LVL17:
  13:Lib/PWMSingle/PWMSingle.hpp ****       }
 270              		.loc 3 13 45 view .LVU61
 271              	.LBE54:
 272              	.LBE53:
 273              	.LBB55:
 274              	.LBI55:
ARM GAS  /var/folders/5c/srt4fy4j1pd641bjfx75k5000000gn/T//ccjRrrWd.s 			page 7


  12:Lib/PWMSingle/PWMSingle.hpp ****           : _htim(htim), _channel(channel), _maxValue(_htim->Init.Period) {
 275              		.loc 3 12 7 is_stmt 1 view .LVU62
 276              	.LBB56:
  13:Lib/PWMSingle/PWMSingle.hpp ****       }
 277              		.loc 3 13 13 is_stmt 0 view .LVU63
 278 008e 2748     		ldr	r0, .L7+16
 279 0090 C4F89800 		str	r0, [r4, #152]
  13:Lib/PWMSingle/PWMSingle.hpp ****       }
 280              		.loc 3 13 26 view .LVU64
 281 0094 C4F89C60 		str	r6, [r4, #156]
  13:Lib/PWMSingle/PWMSingle.hpp ****       }
 282              		.loc 3 13 67 view .LVU65
 283 0098 C568     		ldr	r5, [r0, #12]
  13:Lib/PWMSingle/PWMSingle.hpp ****       }
 284              		.loc 3 13 45 view .LVU66
 285 009a C4F8A050 		str	r5, [r4, #160]
 286              	.LVL18:
  13:Lib/PWMSingle/PWMSingle.hpp ****       }
 287              		.loc 3 13 45 view .LVU67
 288              	.LBE56:
 289              	.LBE55:
 290              	.LBB57:
 291              	.LBI57:
  12:Lib/PWMSingle/PWMSingle.hpp ****           : _htim(htim), _channel(channel), _maxValue(_htim->Init.Period) {
 292              		.loc 3 12 7 is_stmt 1 view .LVU68
 293              	.LBB58:
  13:Lib/PWMSingle/PWMSingle.hpp ****       }
 294              		.loc 3 13 13 is_stmt 0 view .LVU69
 295 009e C4F8A830 		str	r3, [r4, #168]
  13:Lib/PWMSingle/PWMSingle.hpp ****       }
 296              		.loc 3 13 26 view .LVU70
 297 00a2 0821     		movs	r1, #8
 298 00a4 C4F8AC10 		str	r1, [r4, #172]
  13:Lib/PWMSingle/PWMSingle.hpp ****       }
 299              		.loc 3 13 45 view .LVU71
 300 00a8 C4F8B020 		str	r2, [r4, #176]
 301              	.LVL19:
  13:Lib/PWMSingle/PWMSingle.hpp ****       }
 302              		.loc 3 13 45 view .LVU72
 303              	.LBE58:
 304              	.LBE57:
 305              	.LBB59:
 306              	.LBI59:
  12:Lib/PWMSingle/PWMSingle.hpp ****           : _htim(htim), _channel(channel), _maxValue(_htim->Init.Period) {
 307              		.loc 3 12 7 is_stmt 1 view .LVU73
 308              	.LBB60:
  13:Lib/PWMSingle/PWMSingle.hpp ****       }
 309              		.loc 3 13 13 is_stmt 0 view .LVU74
 310 00ac 204B     		ldr	r3, .L7+20
 311 00ae C4F8B830 		str	r3, [r4, #184]
  13:Lib/PWMSingle/PWMSingle.hpp ****       }
 312              		.loc 3 13 26 view .LVU75
 313 00b2 0022     		movs	r2, #0
 314 00b4 C4F8BC20 		str	r2, [r4, #188]
  13:Lib/PWMSingle/PWMSingle.hpp ****       }
 315              		.loc 3 13 67 view .LVU76
 316 00b8 DA68     		ldr	r2, [r3, #12]
ARM GAS  /var/folders/5c/srt4fy4j1pd641bjfx75k5000000gn/T//ccjRrrWd.s 			page 8


  13:Lib/PWMSingle/PWMSingle.hpp ****       }
 317              		.loc 3 13 45 view .LVU77
 318 00ba C4F8C020 		str	r2, [r4, #192]
 319              	.LVL20:
  13:Lib/PWMSingle/PWMSingle.hpp ****       }
 320              		.loc 3 13 45 view .LVU78
 321              	.LBE60:
 322              	.LBE59:
 323              	.LBB61:
 324              	.LBI61:
  12:Lib/PWMSingle/PWMSingle.hpp ****           : _htim(htim), _channel(channel), _maxValue(_htim->Init.Period) {
 325              		.loc 3 12 7 is_stmt 1 view .LVU79
 326              	.LBB62:
  13:Lib/PWMSingle/PWMSingle.hpp ****       }
 327              		.loc 3 13 13 is_stmt 0 view .LVU80
 328 00be C4F8C830 		str	r3, [r4, #200]
  13:Lib/PWMSingle/PWMSingle.hpp ****       }
 329              		.loc 3 13 26 view .LVU81
 330 00c2 C4F8CC60 		str	r6, [r4, #204]
  13:Lib/PWMSingle/PWMSingle.hpp ****       }
 331              		.loc 3 13 45 view .LVU82
 332 00c6 C4F8D020 		str	r2, [r4, #208]
 333              	.LVL21:
  13:Lib/PWMSingle/PWMSingle.hpp ****       }
 334              		.loc 3 13 45 view .LVU83
 335              	.LBE62:
 336              	.LBE61:
 337              	.LBB63:
 338              	.LBI63:
  12:Lib/PWMSingle/PWMSingle.hpp ****           : _htim(htim), _channel(channel), _maxValue(_htim->Init.Period) {
 339              		.loc 3 12 7 is_stmt 1 view .LVU84
 340              	.LBB64:
  13:Lib/PWMSingle/PWMSingle.hpp ****       }
 341              		.loc 3 13 13 is_stmt 0 view .LVU85
 342 00ca C4F8D830 		str	r3, [r4, #216]
  13:Lib/PWMSingle/PWMSingle.hpp ****       }
 343              		.loc 3 13 26 view .LVU86
 344 00ce C4F8DC10 		str	r1, [r4, #220]
  13:Lib/PWMSingle/PWMSingle.hpp ****       }
 345              		.loc 3 13 45 view .LVU87
 346 00d2 C4F8E020 		str	r2, [r4, #224]
 347              	.LVL22:
  13:Lib/PWMSingle/PWMSingle.hpp ****       }
 348              		.loc 3 13 45 view .LVU88
 349              	.LBE64:
 350              	.LBE63:
 351              	.LBB65:
 352              	.LBI65:
  12:Lib/PWMSingle/PWMSingle.hpp ****           : _htim(htim), _channel(channel), _maxValue(_htim->Init.Period) {
 353              		.loc 3 12 7 is_stmt 1 view .LVU89
 354              	.LBB66:
  13:Lib/PWMSingle/PWMSingle.hpp ****       }
 355              		.loc 3 13 13 is_stmt 0 view .LVU90
 356 00d6 C4F8E830 		str	r3, [r4, #232]
  13:Lib/PWMSingle/PWMSingle.hpp ****       }
 357              		.loc 3 13 26 view .LVU91
 358 00da C4F8EC70 		str	r7, [r4, #236]
ARM GAS  /var/folders/5c/srt4fy4j1pd641bjfx75k5000000gn/T//ccjRrrWd.s 			page 9


  13:Lib/PWMSingle/PWMSingle.hpp ****       }
 359              		.loc 3 13 45 view .LVU92
 360 00de C4F8F020 		str	r2, [r4, #240]
 361              	.LVL23:
  13:Lib/PWMSingle/PWMSingle.hpp ****       }
 362              		.loc 3 13 45 view .LVU93
 363              	.LBE66:
 364              	.LBE65:
 365              	.LBB67:
 366              	.LBI67:
  11:Lib/Buzzer/Buzzer.hpp ****           : _htim(htim), _channel(channel), _maxValue(_htim->Init.Period) {
 367              		.loc 2 11 7 is_stmt 1 view .LVU94
 368              	.LBB68:
  12:Lib/Buzzer/Buzzer.hpp ****       }
 369              		.loc 2 12 13 is_stmt 0 view .LVU95
 370 00e2 C4F8F800 		str	r0, [r4, #248]
  12:Lib/Buzzer/Buzzer.hpp ****       }
 371              		.loc 2 12 26 view .LVU96
 372 00e6 C4F8FC10 		str	r1, [r4, #252]
  12:Lib/Buzzer/Buzzer.hpp ****       }
 373              		.loc 2 12 45 view .LVU97
 374 00ea C4F80051 		str	r5, [r4, #256]
 375              	.LVL24:
  12:Lib/Buzzer/Buzzer.hpp ****       }
 376              		.loc 2 12 45 view .LVU98
 377              	.LBE68:
 378              	.LBE67:
 379              		.loc 1 5 14 view .LVU99
 380 00ee 04F12203 		add	r3, r4, #34
 381 00f2 0293     		str	r3, [sp, #8]
 382 00f4 04F12003 		add	r3, r4, #32
 383 00f8 0193     		str	r3, [sp, #4]
 384 00fa 04F1E803 		add	r3, r4, #232
 385 00fe 0093     		str	r3, [sp]
 386 0100 04F1D803 		add	r3, r4, #216
 387 0104 04F1C802 		add	r2, r4, #200
 388 0108 04F1B801 		add	r1, r4, #184
 389 010c 04F58470 		add	r0, r4, #264
 390 0110 FFF7FEFF 		bl	_ZN10MotorDriveC1EP12PwmSingleOutS1_S1_S1_PtS2_
 391              	.LVL25:
 392              	.LBE42:
   6:src/unit/robot.cpp **** }
 393              		.loc 1 6 1 view .LVU100
 394 0114 2046     		mov	r0, r4
 395 0116 05B0     		add	sp, sp, #20
 396              	.LCFI4:
 397              		.cfi_def_cfa_offset 20
 398              		@ sp needed
 399 0118 F0BD     		pop	{r4, r5, r6, r7, pc}
 400              	.LVL26:
 401              	.L8:
 402              		.loc 1 6 1 view .LVU101
 403 011a 00BF     		.align	2
 404              	.L7:
 405 011c 000C0240 		.word	1073875968
 406 0120 00040240 		.word	1073873920
 407 0124 00080240 		.word	1073874944
ARM GAS  /var/folders/5c/srt4fy4j1pd641bjfx75k5000000gn/T//ccjRrrWd.s 			page 10


 408 0128 00000000 		.word	htim3
 409 012c 00000000 		.word	htim2
 410 0130 00000000 		.word	htim1
 411              		.cfi_endproc
 412              	.LFE267:
 413              		.fnend
 415              		.global	_ZN5RobotC1Ev
 416              		.thumb_set _ZN5RobotC1Ev,_ZN5RobotC2Ev
 417              		.section	.rodata._ZN5Robot12hardwareInitEv.str1.4,"aMS",%progbits,1
 418              		.align	2
 419              	.LC1:
 420 0000 48656C6C 		.ascii	"Hello World\000"
 420      6F20576F 
 420      726C6400 
 421              		.align	2
 422              	.LC2:
 423 000c 53797374 		.ascii	"SystemCoreClock = %ld\012\000"
 423      656D436F 
 423      7265436C 
 423      6F636B20 
 423      3D20256C 
 424 0023 00       		.align	2
 425              	.LC3:
 426 0024 4144435F 		.ascii	"ADC_DMA start\000"
 426      444D4120 
 426      73746172 
 426      7400
 427              		.section	.text._ZN5Robot12hardwareInitEv,"ax",%progbits
 428              		.align	1
 429              		.global	_ZN5Robot12hardwareInitEv
 430              		.syntax unified
 431              		.thumb
 432              		.thumb_func
 434              	_ZN5Robot12hardwareInitEv:
 435              		.fnstart
 436              	.LVL27:
 437              	.LFB269:
   7:src/unit/robot.cpp **** 
   8:src/unit/robot.cpp **** void Robot::hardwareInit() {
 438              		.loc 1 8 28 is_stmt 1 view -0
 439              		.cfi_startproc
 440              		@ args = 0, pretend = 0, frame = 0
 441              		@ frame_needed = 0, uses_anonymous_args = 0
 442              		.loc 1 8 28 is_stmt 0 view .LVU103
 443 0000 38B5     		push	{r3, r4, r5, lr}
 444              		.save {r3, r4, r5, lr}
 445              	.LCFI5:
 446              		.cfi_def_cfa_offset 16
 447              		.cfi_offset 3, -16
 448              		.cfi_offset 4, -12
 449              		.cfi_offset 5, -8
 450              		.cfi_offset 14, -4
 451 0002 0446     		mov	r4, r0
   9:src/unit/robot.cpp ****       printf("Hello World\n");
 452              		.loc 1 9 7 is_stmt 1 view .LVU104
 453              		.loc 1 9 13 is_stmt 0 view .LVU105
 454 0004 1A48     		ldr	r0, .L11
ARM GAS  /var/folders/5c/srt4fy4j1pd641bjfx75k5000000gn/T//ccjRrrWd.s 			page 11


 455              	.LVL28:
 456              		.loc 1 9 13 view .LVU106
 457 0006 FFF7FEFF 		bl	puts
 458              	.LVL29:
  10:src/unit/robot.cpp ****       printf("SystemCoreClock = %ld\n", SystemCoreClock);
 459              		.loc 1 10 7 is_stmt 1 view .LVU107
 460              		.loc 1 10 13 is_stmt 0 view .LVU108
 461 000a 1A4B     		ldr	r3, .L11+4
 462 000c 1968     		ldr	r1, [r3]
 463 000e 1A48     		ldr	r0, .L11+8
 464 0010 FFF7FEFF 		bl	printf
 465              	.LVL30:
  11:src/unit/robot.cpp **** 
  12:src/unit/robot.cpp ****       HAL_ADC_Start(&hadc1);
 466              		.loc 1 12 7 is_stmt 1 view .LVU109
 467              		.loc 1 12 20 is_stmt 0 view .LVU110
 468 0014 194D     		ldr	r5, .L11+12
 469 0016 2846     		mov	r0, r5
 470 0018 FFF7FEFF 		bl	HAL_ADC_Start
 471              	.LVL31:
  13:src/unit/robot.cpp ****       HAL_ADC_Start_DMA(&hadc1, (uint32_t *)&adc_get_val, 14);
 472              		.loc 1 13 7 is_stmt 1 view .LVU111
 473              		.loc 1 13 24 is_stmt 0 view .LVU112
 474 001c 0E22     		movs	r2, #14
 475 001e 1849     		ldr	r1, .L11+16
 476 0020 2846     		mov	r0, r5
 477 0022 FFF7FEFF 		bl	HAL_ADC_Start_DMA
 478              	.LVL32:
  14:src/unit/robot.cpp ****       printf("ADC_DMA start\n");
 479              		.loc 1 14 7 is_stmt 1 view .LVU113
 480              		.loc 1 14 13 is_stmt 0 view .LVU114
 481 0026 1748     		ldr	r0, .L11+20
 482 0028 FFF7FEFF 		bl	puts
 483              	.LVL33:
  15:src/unit/robot.cpp **** 
  16:src/unit/robot.cpp ****       // 諸々の初期化
  17:src/unit/robot.cpp ****       fan.init();
 484              		.loc 1 17 7 is_stmt 1 view .LVU115
 485              		.loc 1 17 15 is_stmt 0 view .LVU116
 486 002c 04F18800 		add	r0, r4, #136
 487 0030 FFF7FEFF 		bl	_ZN12PwmSingleOut4initEv
 488              	.LVL34:
  18:src/unit/robot.cpp ****       ledH.init();
 489              		.loc 1 18 7 is_stmt 1 view .LVU117
 490              		.loc 1 18 16 is_stmt 0 view .LVU118
 491 0034 04F19800 		add	r0, r4, #152
 492 0038 FFF7FEFF 		bl	_ZN12PwmSingleOut4initEv
 493              	.LVL35:
  19:src/unit/robot.cpp ****       lineLed.init();
 494              		.loc 1 19 7 is_stmt 1 view .LVU119
 495              		.loc 1 19 19 is_stmt 0 view .LVU120
 496 003c 04F1A800 		add	r0, r4, #168
 497 0040 FFF7FEFF 		bl	_ZN12PwmSingleOut4initEv
 498              	.LVL36:
  20:src/unit/robot.cpp ****       motor1a.init();
 499              		.loc 1 20 7 is_stmt 1 view .LVU121
 500              		.loc 1 20 19 is_stmt 0 view .LVU122
ARM GAS  /var/folders/5c/srt4fy4j1pd641bjfx75k5000000gn/T//ccjRrrWd.s 			page 12


 501 0044 04F1B800 		add	r0, r4, #184
 502 0048 FFF7FEFF 		bl	_ZN12PwmSingleOut4initEv
 503              	.LVL37:
  21:src/unit/robot.cpp ****       motor1b.init();
 504              		.loc 1 21 7 is_stmt 1 view .LVU123
 505              		.loc 1 21 19 is_stmt 0 view .LVU124
 506 004c 04F1C800 		add	r0, r4, #200
 507 0050 FFF7FEFF 		bl	_ZN12PwmSingleOut4initEv
 508              	.LVL38:
  22:src/unit/robot.cpp ****       motor2a.init();
 509              		.loc 1 22 7 is_stmt 1 view .LVU125
 510              		.loc 1 22 19 is_stmt 0 view .LVU126
 511 0054 04F1D800 		add	r0, r4, #216
 512 0058 FFF7FEFF 		bl	_ZN12PwmSingleOut4initEv
 513              	.LVL39:
  23:src/unit/robot.cpp ****       motor2b.init();
 514              		.loc 1 23 7 is_stmt 1 view .LVU127
 515              		.loc 1 23 19 is_stmt 0 view .LVU128
 516 005c 04F1E800 		add	r0, r4, #232
 517 0060 FFF7FEFF 		bl	_ZN12PwmSingleOut4initEv
 518              	.LVL40:
  24:src/unit/robot.cpp ****       buzzer.init();
 519              		.loc 1 24 7 is_stmt 1 view .LVU129
 520              		.loc 1 24 18 is_stmt 0 view .LVU130
 521 0064 04F1F800 		add	r0, r4, #248
 522 0068 FFF7FEFF 		bl	_ZN6Buzzer4initEv
 523              	.LVL41:
  25:src/unit/robot.cpp **** }
 524              		.loc 1 25 1 view .LVU131
 525 006c 38BD     		pop	{r3, r4, r5, pc}
 526              	.LVL42:
 527              	.L12:
 528              		.loc 1 25 1 view .LVU132
 529 006e 00BF     		.align	2
 530              	.L11:
 531 0070 00000000 		.word	.LC1
 532 0074 00000000 		.word	SystemCoreClock
 533 0078 0C000000 		.word	.LC2
 534 007c 00000000 		.word	hadc1
 535 0080 00000000 		.word	adc_get_val
 536 0084 24000000 		.word	.LC3
 537              		.cfi_endproc
 538              	.LFE269:
 539              		.fnend
 541              		.section	.text._ZN5Robot12LineConmputeEv,"ax",%progbits
 542              		.align	1
 543              		.global	_ZN5Robot12LineConmputeEv
 544              		.syntax unified
 545              		.thumb
 546              		.thumb_func
 548              	_ZN5Robot12LineConmputeEv:
 549              		.fnstart
 550              	.LVL43:
 551              	.LFB271:
  26:src/unit/robot.cpp **** 
  27:src/unit/robot.cpp **** void Robot::getSensors() {
  28:src/unit/robot.cpp ****       line.val[0] = adc_get_val[13];
ARM GAS  /var/folders/5c/srt4fy4j1pd641bjfx75k5000000gn/T//ccjRrrWd.s 			page 13


  29:src/unit/robot.cpp ****       line.val[1] = adc_get_val[12];
  30:src/unit/robot.cpp ****       line.val[2] = adc_get_val[11];
  31:src/unit/robot.cpp ****       line.val[3] = adc_get_val[10];
  32:src/unit/robot.cpp ****       line.val[4] = adc_get_val[9];
  33:src/unit/robot.cpp ****       line.val[5] = adc_get_val[8];
  34:src/unit/robot.cpp ****       line.val[6] = adc_get_val[7];
  35:src/unit/robot.cpp ****       line.val[7] = adc_get_val[6];
  36:src/unit/robot.cpp ****       line.val[8] = adc_get_val[5];
  37:src/unit/robot.cpp ****       line.val[9] = adc_get_val[4];
  38:src/unit/robot.cpp **** 
  39:src/unit/robot.cpp ****       encoder_val_left = adc_get_val[0];
  40:src/unit/robot.cpp ****       encoder_val_right = adc_get_val[1];
  41:src/unit/robot.cpp ****       line.left_val = adc_get_val[2];
  42:src/unit/robot.cpp ****       line.right_val = adc_get_val[3];
  43:src/unit/robot.cpp ****       LineConmpute();
  44:src/unit/robot.cpp **** }
  45:src/unit/robot.cpp **** 
  46:src/unit/robot.cpp **** void Robot::LineConmpute() {
 552              		.loc 1 46 28 is_stmt 1 view -0
 553              		.cfi_startproc
 554              		@ args = 0, pretend = 0, frame = 80
 555              		@ frame_needed = 0, uses_anonymous_args = 0
 556              		.loc 1 46 28 is_stmt 0 view .LVU134
 557 0000 30B5     		push	{r4, r5, lr}
 558              	.LCFI6:
 559              		.cfi_def_cfa_offset 12
 560              		.cfi_offset 4, -12
 561              		.cfi_offset 5, -8
 562              		.cfi_offset 14, -4
 563 0002 95B0     		sub	sp, sp, #84
 564              	.LCFI7:
 565              		.cfi_def_cfa_offset 96
 566 0004 8446     		mov	ip, r0
 567 0006 4FF0000E 		mov	lr, #0
  47:src/unit/robot.cpp ****       float lineVectorX[LINE_QTY] = {-45, -35, -25, -15, -5, 5, 15, 25, 35, 45};
 568              		.loc 1 47 7 is_stmt 1 view .LVU135
 569              		.loc 1 47 13 is_stmt 0 view .LVU136
 570 000a 0AAC     		add	r4, sp, #40
 571 000c 574D     		ldr	r5, .L37
 572 000e 0FCD     		ldmia	r5!, {r0, r1, r2, r3}
 573              	.LVL44:
 574              		.loc 1 47 13 view .LVU137
 575 0010 0FC4     		stmia	r4!, {r0, r1, r2, r3}
 576 0012 0FCD     		ldmia	r5!, {r0, r1, r2, r3}
 577 0014 0FC4     		stmia	r4!, {r0, r1, r2, r3}
 578 0016 95E80300 		ldm	r5, {r0, r1}
 579 001a 84E80300 		stm	r4, {r0, r1}
  48:src/unit/robot.cpp ****       uint16_t max_val = 0;
 580              		.loc 1 48 7 is_stmt 1 view .LVU138
 581              	.LVL45:
  49:src/unit/robot.cpp ****       int8_t max_val_num;
 582              		.loc 1 49 7 view .LVU139
  50:src/unit/robot.cpp ****       for (uint8_t i = 0; i < 10; i++) {
 583              		.loc 1 50 7 view .LVU140
 584              	.LBB69:
 585              		.loc 1 50 20 is_stmt 0 view .LVU141
 586 001e 7346     		mov	r3, lr
ARM GAS  /var/folders/5c/srt4fy4j1pd641bjfx75k5000000gn/T//ccjRrrWd.s 			page 14


 587              	.LBE69:
  48:src/unit/robot.cpp ****       uint16_t max_val = 0;
 588              		.loc 1 48 16 view .LVU142
 589 0020 7146     		mov	r1, lr
 590              	.LBB70:
 591              		.loc 1 50 7 view .LVU143
 592 0022 01E0     		b	.L14
 593              	.LVL46:
 594              	.L15:
 595              		.loc 1 50 7 is_stmt 1 discriminator 2 view .LVU144
 596 0024 0133     		adds	r3, r3, #1
 597              	.LVL47:
 598              		.loc 1 50 7 is_stmt 0 discriminator 2 view .LVU145
 599 0026 DBB2     		uxtb	r3, r3
 600              	.LVL48:
 601              	.L14:
 602              		.loc 1 50 29 is_stmt 1 discriminator 1 view .LVU146
 603 0028 092B     		cmp	r3, #9
 604 002a 07D8     		bhi	.L33
  51:src/unit/robot.cpp ****             if (max_val < line.val[i]) {
 605              		.loc 1 51 13 view .LVU147
 606              		.loc 1 51 37 is_stmt 0 view .LVU148
 607 002c 3CF81320 		ldrh	r2, [ip, r3, lsl #1]
 608              		.loc 1 51 13 view .LVU149
 609 0030 8A42     		cmp	r2, r1
 610 0032 F7D9     		bls	.L15
  52:src/unit/robot.cpp ****                   max_val = line.val[i];
 611              		.loc 1 52 19 is_stmt 1 view .LVU150
 612              	.LVL49:
  53:src/unit/robot.cpp ****                   max_val_num = i;
 613              		.loc 1 53 19 view .LVU151
 614              		.loc 1 53 31 is_stmt 0 view .LVU152
 615 0034 4FFA83FE 		sxtb	lr, r3
 616              	.LVL50:
  52:src/unit/robot.cpp ****                   max_val = line.val[i];
 617              		.loc 1 52 27 view .LVU153
 618 0038 1146     		mov	r1, r2
 619 003a F3E7     		b	.L15
 620              	.LVL51:
 621              	.L33:
  52:src/unit/robot.cpp ****                   max_val = line.val[i];
 622              		.loc 1 52 27 view .LVU154
 623              	.LBE70:
 624              	.LBB71:
  54:src/unit/robot.cpp ****             }
  55:src/unit/robot.cpp ****       }
  56:src/unit/robot.cpp ****       uint32_t sum = 0;
  57:src/unit/robot.cpp ****       float val[10];
  58:src/unit/robot.cpp ****       for (int8_t i = 0; i < LINE_QTY; i++) {
 625              		.loc 1 58 19 view .LVU155
 626 003c 0023     		movs	r3, #0
 627              	.LVL52:
 628              		.loc 1 58 19 view .LVU156
 629 003e 01E0     		b	.L17
 630              	.LVL53:
 631              	.L18:
 632              		.loc 1 58 7 is_stmt 1 discriminator 2 view .LVU157
ARM GAS  /var/folders/5c/srt4fy4j1pd641bjfx75k5000000gn/T//ccjRrrWd.s 			page 15


 633 0040 0133     		adds	r3, r3, #1
 634              	.LVL54:
 635              		.loc 1 58 7 is_stmt 0 discriminator 2 view .LVU158
 636 0042 5BB2     		sxtb	r3, r3
 637              	.LVL55:
 638              	.L17:
 639              		.loc 1 58 28 is_stmt 1 discriminator 1 view .LVU159
 640 0044 092B     		cmp	r3, #9
 641 0046 18DC     		bgt	.L34
  59:src/unit/robot.cpp ****             val[i] = line.val[i];
 642              		.loc 1 59 13 view .LVU160
 643              		.loc 1 59 32 is_stmt 0 view .LVU161
 644 0048 3CF81320 		ldrh	r2, [ip, r3, lsl #1]
 645 004c 07EE902A 		vmov	s15, r2	@ int
 646              		.loc 1 59 20 view .LVU162
 647 0050 14AA     		add	r2, sp, #80
 648 0052 02EB8302 		add	r2, r2, r3, lsl #2
 649 0056 F8EE677A 		vcvt.f32.u32	s15, s15
 650 005a 42ED147A 		vstr.32	s15, [r2, #-80]
  60:src/unit/robot.cpp ****             if (abs(max_val_num - i) > 2) val[i] = 0;
 651              		.loc 1 60 13 is_stmt 1 view .LVU163
 652              		.loc 1 60 17 is_stmt 0 view .LVU164
 653 005e AEEB0302 		sub	r2, lr, r3
 654 0062 002A     		cmp	r2, #0
 655 0064 B8BF     		it	lt
 656 0066 5242     		rsblt	r2, r2, #0
 657              		.loc 1 60 13 view .LVU165
 658 0068 022A     		cmp	r2, #2
 659 006a E9DD     		ble	.L18
 660              		.loc 1 60 43 is_stmt 1 discriminator 1 view .LVU166
 661              		.loc 1 60 50 is_stmt 0 discriminator 1 view .LVU167
 662 006c 0021     		movs	r1, #0
 663 006e 14AA     		add	r2, sp, #80
 664 0070 02EB8302 		add	r2, r2, r3, lsl #2
 665 0074 42F8501C 		str	r1, [r2, #-80]	@ float
 666 0078 E2E7     		b	.L18
 667              	.L34:
 668              		.loc 1 60 50 discriminator 1 view .LVU168
 669              	.LBE71:
 670              	.LBB72:
  61:src/unit/robot.cpp ****       }
  62:src/unit/robot.cpp ****       uint16_t min_val = 50000;
  63:src/unit/robot.cpp ****       for (uint8_t i = 0; i < LINE_QTY; i++) {
 671              		.loc 1 63 20 view .LVU169
 672 007a 0023     		movs	r3, #0
 673              	.LVL56:
 674              		.loc 1 63 20 view .LVU170
 675              	.LBE72:
  62:src/unit/robot.cpp ****       for (uint8_t i = 0; i < LINE_QTY; i++) {
 676              		.loc 1 62 16 view .LVU171
 677 007c DFED3C6A 		vldr.32	s13, .L37+4	@ int
 678 0080 01E0     		b	.L20
 679              	.LVL57:
 680              	.L21:
 681              	.LBB73:
 682              		.loc 1 63 7 is_stmt 1 discriminator 2 view .LVU172
 683 0082 0133     		adds	r3, r3, #1
ARM GAS  /var/folders/5c/srt4fy4j1pd641bjfx75k5000000gn/T//ccjRrrWd.s 			page 16


 684              	.LVL58:
 685              		.loc 1 63 7 is_stmt 0 discriminator 2 view .LVU173
 686 0084 DBB2     		uxtb	r3, r3
 687              	.LVL59:
 688              	.L20:
 689              		.loc 1 63 29 is_stmt 1 discriminator 1 view .LVU174
 690 0086 092B     		cmp	r3, #9
 691 0088 18D8     		bhi	.L35
  64:src/unit/robot.cpp ****             if (min_val > val[i] && val[i] != 0) {
 692              		.loc 1 64 13 view .LVU175
 693              		.loc 1 64 25 is_stmt 0 view .LVU176
 694 008a F8EEE67A 		vcvt.f32.s32	s15, s13
 695              		.loc 1 64 32 view .LVU177
 696 008e 14AA     		add	r2, sp, #80
 697 0090 02EB8302 		add	r2, r2, r3, lsl #2
 698 0094 12ED147A 		vldr.32	s14, [r2, #-80]
 699              		.loc 1 64 13 view .LVU178
 700 0098 F4EEC77A 		vcmpe.f32	s15, s14
 701 009c F1EE10FA 		vmrs	APSR_nzcv, FPSCR
 702 00a0 EFDD     		ble	.L21
 703              		.loc 1 64 34 discriminator 1 view .LVU179
 704 00a2 B5EE407A 		vcmp.f32	s14, #0
 705 00a6 F1EE10FA 		vmrs	APSR_nzcv, FPSCR
 706 00aa EAD0     		beq	.L21
  65:src/unit/robot.cpp ****                   min_val = val[i];
 707              		.loc 1 65 19 is_stmt 1 view .LVU180
 708              		.loc 1 65 27 is_stmt 0 view .LVU181
 709 00ac BCEEC77A 		vcvt.u32.f32	s14, s14
 710 00b0 17EE102A 		vmov	r2, s14	@ int
 711 00b4 92B2     		uxth	r2, r2
 712 00b6 06EE902A 		vmov	s13, r2	@ int
 713              	.LVL60:
 714              		.loc 1 65 27 view .LVU182
 715 00ba E2E7     		b	.L21
 716              	.L35:
 717              		.loc 1 65 27 view .LVU183
 718              	.LBE73:
 719              	.LBB74:
  66:src/unit/robot.cpp ****             }
  67:src/unit/robot.cpp ****       }
  68:src/unit/robot.cpp ****       for (int8_t i = 0; i < LINE_QTY; i++) {
 720              		.loc 1 68 19 view .LVU184
 721 00bc 0023     		movs	r3, #0
 722              	.LVL61:
 723              		.loc 1 68 19 view .LVU185
 724              	.LBE74:
  56:src/unit/robot.cpp ****       float val[10];
 725              		.loc 1 56 16 view .LVU186
 726 00be 07EE903A 		vmov	s15, r3	@ int
 727 00c2 0CE0     		b	.L24
 728              	.LVL62:
 729              	.L25:
 730              	.LBB75:
  69:src/unit/robot.cpp ****             if (val[i] != 0) val[i] -= min_val;
  70:src/unit/robot.cpp ****             sum += val[i];
 731              		.loc 1 70 13 is_stmt 1 discriminator 2 view .LVU187
 732              		.loc 1 70 25 is_stmt 0 discriminator 2 view .LVU188
ARM GAS  /var/folders/5c/srt4fy4j1pd641bjfx75k5000000gn/T//ccjRrrWd.s 			page 17


 733 00c4 14A9     		add	r1, sp, #80
 734 00c6 01EB8202 		add	r2, r1, r2, lsl #2
 735 00ca 12ED147A 		vldr.32	s14, [r2, #-80]
 736              		.loc 1 70 17 discriminator 2 view .LVU189
 737 00ce F8EE677A 		vcvt.f32.u32	s15, s15
 738              	.LVL63:
 739              		.loc 1 70 17 discriminator 2 view .LVU190
 740 00d2 77EE877A 		vadd.f32	s15, s15, s14
 741 00d6 FCEEE77A 		vcvt.u32.f32	s15, s15
 742              	.LVL64:
  68:src/unit/robot.cpp ****             if (val[i] != 0) val[i] -= min_val;
 743              		.loc 1 68 7 is_stmt 1 discriminator 2 view .LVU191
 744 00da 0133     		adds	r3, r3, #1
 745              	.LVL65:
  68:src/unit/robot.cpp ****             if (val[i] != 0) val[i] -= min_val;
 746              		.loc 1 68 7 is_stmt 0 discriminator 2 view .LVU192
 747 00dc 5BB2     		sxtb	r3, r3
 748              	.LVL66:
 749              	.L24:
  68:src/unit/robot.cpp ****             if (val[i] != 0) val[i] -= min_val;
 750              		.loc 1 68 28 is_stmt 1 discriminator 1 view .LVU193
 751 00de 092B     		cmp	r3, #9
 752 00e0 14DC     		bgt	.L36
  69:src/unit/robot.cpp ****             if (val[i] != 0) val[i] -= min_val;
 753              		.loc 1 69 13 view .LVU194
  69:src/unit/robot.cpp ****             if (val[i] != 0) val[i] -= min_val;
 754              		.loc 1 69 21 is_stmt 0 view .LVU195
 755 00e2 1A46     		mov	r2, r3
  69:src/unit/robot.cpp ****             if (val[i] != 0) val[i] -= min_val;
 756              		.loc 1 69 22 view .LVU196
 757 00e4 14A9     		add	r1, sp, #80
 758 00e6 01EB8301 		add	r1, r1, r3, lsl #2
 759 00ea 11ED147A 		vldr.32	s14, [r1, #-80]
  69:src/unit/robot.cpp ****             if (val[i] != 0) val[i] -= min_val;
 760              		.loc 1 69 13 view .LVU197
 761 00ee B5EE407A 		vcmp.f32	s14, #0
 762 00f2 F1EE10FA 		vmrs	APSR_nzcv, FPSCR
 763 00f6 E5D0     		beq	.L25
  69:src/unit/robot.cpp ****             if (val[i] != 0) val[i] -= min_val;
 764              		.loc 1 69 30 is_stmt 1 discriminator 1 view .LVU198
  69:src/unit/robot.cpp ****             if (val[i] != 0) val[i] -= min_val;
 765              		.loc 1 69 37 is_stmt 0 discriminator 1 view .LVU199
 766 00f8 14A9     		add	r1, sp, #80
 767 00fa 01EB8301 		add	r1, r1, r3, lsl #2
 768 00fe B8EEE66A 		vcvt.f32.s32	s12, s13
 769 0102 37EE467A 		vsub.f32	s14, s14, s12
 770 0106 01ED147A 		vstr.32	s14, [r1, #-80]
 771 010a DBE7     		b	.L25
 772              	.L36:
 773              	.LBE75:
 774              	.LBB76:
  71:src/unit/robot.cpp ****       }
  72:src/unit/robot.cpp ****       for (uint8_t i = 0; i < LINE_QTY; i++) {
 775              		.loc 1 72 20 view .LVU200
 776 010c 0023     		movs	r3, #0
 777              	.LVL67:
 778              		.loc 1 72 20 view .LVU201
ARM GAS  /var/folders/5c/srt4fy4j1pd641bjfx75k5000000gn/T//ccjRrrWd.s 			page 18


 779 010e 10E0     		b	.L27
 780              	.LVL68:
 781              	.L28:
  73:src/unit/robot.cpp ****             val[i] *= (1.0f / sum);
 782              		.loc 1 73 13 is_stmt 1 discriminator 3 view .LVU202
 783              		.loc 1 73 18 is_stmt 0 discriminator 3 view .LVU203
 784 0110 14AA     		add	r2, sp, #80
 785 0112 02EB8302 		add	r2, r2, r3, lsl #2
 786 0116 12ED147A 		vldr.32	s14, [r2, #-80]
 787              		.loc 1 73 29 discriminator 3 view .LVU204
 788 011a B8EE676A 		vcvt.f32.u32	s12, s15
 789 011e F7EE005A 		vmov.f32	s11, #1.0e+0
 790 0122 C5EE866A 		vdiv.f32	s13, s11, s12
 791              		.loc 1 73 20 discriminator 3 view .LVU205
 792 0126 27EE267A 		vmul.f32	s14, s14, s13
 793 012a 02ED147A 		vstr.32	s14, [r2, #-80]
  72:src/unit/robot.cpp ****             val[i] *= (1.0f / sum);
 794              		.loc 1 72 7 is_stmt 1 discriminator 3 view .LVU206
 795 012e 0133     		adds	r3, r3, #1
 796              	.LVL69:
  72:src/unit/robot.cpp ****             val[i] *= (1.0f / sum);
 797              		.loc 1 72 7 is_stmt 0 discriminator 3 view .LVU207
 798 0130 DBB2     		uxtb	r3, r3
 799              	.LVL70:
 800              	.L27:
  72:src/unit/robot.cpp ****             val[i] *= (1.0f / sum);
 801              		.loc 1 72 29 is_stmt 1 discriminator 1 view .LVU208
 802 0132 092B     		cmp	r3, #9
 803 0134 ECD9     		bls	.L28
 804              	.LBE76:
  74:src/unit/robot.cpp ****       }
  75:src/unit/robot.cpp ****       line.position = 0;
 805              		.loc 1 75 7 view .LVU209
 806              		.loc 1 75 21 is_stmt 0 view .LVU210
 807 0136 0023     		movs	r3, #0
 808              	.LVL71:
 809              		.loc 1 75 21 view .LVU211
 810 0138 CCF81830 		str	r3, [ip, #24]	@ float
  76:src/unit/robot.cpp ****       for (uint8_t i = 0; i < LINE_QTY; i++) {
 811              		.loc 1 76 7 is_stmt 1 view .LVU212
 812              	.LVL72:
 813              	.LBB77:
 814              		.loc 1 76 20 is_stmt 0 view .LVU213
 815 013c 0023     		movs	r3, #0
 816              		.loc 1 76 7 view .LVU214
 817 013e 10E0     		b	.L29
 818              	.LVL73:
 819              	.L30:
  77:src/unit/robot.cpp ****             line.position += val[i] * lineVectorX[i];
 820              		.loc 1 77 13 is_stmt 1 discriminator 3 view .LVU215
 821              		.loc 1 77 18 is_stmt 0 discriminator 3 view .LVU216
 822 0140 DCED067A 		vldr.32	s15, [ip, #24]
 823              		.loc 1 77 35 discriminator 3 view .LVU217
 824 0144 14AA     		add	r2, sp, #80
 825 0146 02EB8302 		add	r2, r2, r3, lsl #2
 826 014a 12ED147A 		vldr.32	s14, [r2, #-80]
 827              		.loc 1 77 52 discriminator 3 view .LVU218
ARM GAS  /var/folders/5c/srt4fy4j1pd641bjfx75k5000000gn/T//ccjRrrWd.s 			page 19


 828 014e 52ED0A6A 		vldr.32	s13, [r2, #-40]
 829              		.loc 1 77 37 discriminator 3 view .LVU219
 830 0152 27EE267A 		vmul.f32	s14, s14, s13
 831              		.loc 1 77 27 discriminator 3 view .LVU220
 832 0156 77EE877A 		vadd.f32	s15, s15, s14
 833 015a CCED067A 		vstr.32	s15, [ip, #24]
  76:src/unit/robot.cpp ****       for (uint8_t i = 0; i < LINE_QTY; i++) {
 834              		.loc 1 76 7 is_stmt 1 discriminator 3 view .LVU221
 835 015e 0133     		adds	r3, r3, #1
 836              	.LVL74:
  76:src/unit/robot.cpp ****       for (uint8_t i = 0; i < LINE_QTY; i++) {
 837              		.loc 1 76 7 is_stmt 0 discriminator 3 view .LVU222
 838 0160 DBB2     		uxtb	r3, r3
 839              	.LVL75:
 840              	.L29:
  76:src/unit/robot.cpp ****       for (uint8_t i = 0; i < LINE_QTY; i++) {
 841              		.loc 1 76 29 is_stmt 1 discriminator 1 view .LVU223
 842 0162 092B     		cmp	r3, #9
 843 0164 ECD9     		bls	.L30
 844              	.LBE77:
  78:src/unit/robot.cpp ****       }
  79:src/unit/robot.cpp **** }...
 845              		.loc 1 79 1 is_stmt 0 view .LVU224
 846 0166 15B0     		add	sp, sp, #84
 847              	.LCFI8:
 848              		.cfi_def_cfa_offset 12
 849              		@ sp needed
 850 0168 30BD     		pop	{r4, r5, pc}
 851              	.L38:
 852 016a 00BF     		.align	2
 853              	.L37:
 854 016c 00000000 		.word	.LANCHOR0
 855 0170 50C30000 		.word	50000
 856              		.cfi_endproc
 857              	.LFE271:
 858              		.cantunwind
 859              		.fnend
 861              		.section	.text._ZN5Robot10getSensorsEv,"ax",%progbits
 862              		.align	1
 863              		.global	_ZN5Robot10getSensorsEv
 864              		.syntax unified
 865              		.thumb
 866              		.thumb_func
 868              	_ZN5Robot10getSensorsEv:
 869              		.fnstart
 870              	.LVL76:
 871              	.LFB270:
  27:src/unit/robot.cpp **** void Robot::getSensors() {
 872              		.loc 1 27 26 is_stmt 1 view -0
 873              		.cfi_startproc
 874              		@ args = 0, pretend = 0, frame = 0
 875              		@ frame_needed = 0, uses_anonymous_args = 0
  27:src/unit/robot.cpp **** void Robot::getSensors() {
 876              		.loc 1 27 26 is_stmt 0 view .LVU226
 877 0000 08B5     		push	{r3, lr}
 878              	.LCFI9:
 879              		.cfi_def_cfa_offset 8
ARM GAS  /var/folders/5c/srt4fy4j1pd641bjfx75k5000000gn/T//ccjRrrWd.s 			page 20


 880              		.cfi_offset 3, -8
 881              		.cfi_offset 14, -4
  28:src/unit/robot.cpp ****       line.val[0] = adc_get_val[13];
 882              		.loc 1 28 7 is_stmt 1 view .LVU227
  28:src/unit/robot.cpp ****       line.val[0] = adc_get_val[13];
 883              		.loc 1 28 35 is_stmt 0 view .LVU228
 884 0002 104A     		ldr	r2, .L41
 885 0004 518B     		ldrh	r1, [r2, #26]
  28:src/unit/robot.cpp ****       line.val[0] = adc_get_val[13];
 886              		.loc 1 28 19 view .LVU229
 887 0006 0180     		strh	r1, [r0]	@ movhi
  29:src/unit/robot.cpp ****       line.val[1] = adc_get_val[12];
 888              		.loc 1 29 7 is_stmt 1 view .LVU230
  29:src/unit/robot.cpp ****       line.val[1] = adc_get_val[12];
 889              		.loc 1 29 35 is_stmt 0 view .LVU231
 890 0008 118B     		ldrh	r1, [r2, #24]
  29:src/unit/robot.cpp ****       line.val[1] = adc_get_val[12];
 891              		.loc 1 29 19 view .LVU232
 892 000a 4180     		strh	r1, [r0, #2]	@ movhi
  30:src/unit/robot.cpp ****       line.val[2] = adc_get_val[11];
 893              		.loc 1 30 7 is_stmt 1 view .LVU233
  30:src/unit/robot.cpp ****       line.val[2] = adc_get_val[11];
 894              		.loc 1 30 35 is_stmt 0 view .LVU234
 895 000c D18A     		ldrh	r1, [r2, #22]
  30:src/unit/robot.cpp ****       line.val[2] = adc_get_val[11];
 896              		.loc 1 30 19 view .LVU235
 897 000e 8180     		strh	r1, [r0, #4]	@ movhi
  31:src/unit/robot.cpp ****       line.val[3] = adc_get_val[10];
 898              		.loc 1 31 7 is_stmt 1 view .LVU236
  31:src/unit/robot.cpp ****       line.val[3] = adc_get_val[10];
 899              		.loc 1 31 35 is_stmt 0 view .LVU237
 900 0010 918A     		ldrh	r1, [r2, #20]
  31:src/unit/robot.cpp ****       line.val[3] = adc_get_val[10];
 901              		.loc 1 31 19 view .LVU238
 902 0012 C180     		strh	r1, [r0, #6]	@ movhi
  32:src/unit/robot.cpp ****       line.val[4] = adc_get_val[9];
 903              		.loc 1 32 7 is_stmt 1 view .LVU239
  32:src/unit/robot.cpp ****       line.val[4] = adc_get_val[9];
 904              		.loc 1 32 34 is_stmt 0 view .LVU240
 905 0014 518A     		ldrh	r1, [r2, #18]
  32:src/unit/robot.cpp ****       line.val[4] = adc_get_val[9];
 906              		.loc 1 32 19 view .LVU241
 907 0016 0181     		strh	r1, [r0, #8]	@ movhi
  33:src/unit/robot.cpp ****       line.val[5] = adc_get_val[8];
 908              		.loc 1 33 7 is_stmt 1 view .LVU242
  33:src/unit/robot.cpp ****       line.val[5] = adc_get_val[8];
 909              		.loc 1 33 34 is_stmt 0 view .LVU243
 910 0018 118A     		ldrh	r1, [r2, #16]
  33:src/unit/robot.cpp ****       line.val[5] = adc_get_val[8];
 911              		.loc 1 33 19 view .LVU244
 912 001a 4181     		strh	r1, [r0, #10]	@ movhi
  34:src/unit/robot.cpp ****       line.val[6] = adc_get_val[7];
 913              		.loc 1 34 7 is_stmt 1 view .LVU245
  34:src/unit/robot.cpp ****       line.val[6] = adc_get_val[7];
 914              		.loc 1 34 34 is_stmt 0 view .LVU246
 915 001c D189     		ldrh	r1, [r2, #14]
  34:src/unit/robot.cpp ****       line.val[6] = adc_get_val[7];
ARM GAS  /var/folders/5c/srt4fy4j1pd641bjfx75k5000000gn/T//ccjRrrWd.s 			page 21


 916              		.loc 1 34 19 view .LVU247
 917 001e 8181     		strh	r1, [r0, #12]	@ movhi
  35:src/unit/robot.cpp ****       line.val[7] = adc_get_val[6];
 918              		.loc 1 35 7 is_stmt 1 view .LVU248
  35:src/unit/robot.cpp ****       line.val[7] = adc_get_val[6];
 919              		.loc 1 35 34 is_stmt 0 view .LVU249
 920 0020 9189     		ldrh	r1, [r2, #12]
  35:src/unit/robot.cpp ****       line.val[7] = adc_get_val[6];
 921              		.loc 1 35 19 view .LVU250
 922 0022 C181     		strh	r1, [r0, #14]	@ movhi
  36:src/unit/robot.cpp ****       line.val[8] = adc_get_val[5];
 923              		.loc 1 36 7 is_stmt 1 view .LVU251
  36:src/unit/robot.cpp ****       line.val[8] = adc_get_val[5];
 924              		.loc 1 36 34 is_stmt 0 view .LVU252
 925 0024 5189     		ldrh	r1, [r2, #10]
  36:src/unit/robot.cpp ****       line.val[8] = adc_get_val[5];
 926              		.loc 1 36 19 view .LVU253
 927 0026 0182     		strh	r1, [r0, #16]	@ movhi
  37:src/unit/robot.cpp ****       line.val[9] = adc_get_val[4];
 928              		.loc 1 37 7 is_stmt 1 view .LVU254
  37:src/unit/robot.cpp ****       line.val[9] = adc_get_val[4];
 929              		.loc 1 37 34 is_stmt 0 view .LVU255
 930 0028 1189     		ldrh	r1, [r2, #8]
  37:src/unit/robot.cpp ****       line.val[9] = adc_get_val[4];
 931              		.loc 1 37 19 view .LVU256
 932 002a 4182     		strh	r1, [r0, #18]	@ movhi
  39:src/unit/robot.cpp ****       encoder_val_left = adc_get_val[0];
 933              		.loc 1 39 7 is_stmt 1 view .LVU257
  39:src/unit/robot.cpp ****       encoder_val_left = adc_get_val[0];
 934              		.loc 1 39 39 is_stmt 0 view .LVU258
 935 002c 1188     		ldrh	r1, [r2]
  39:src/unit/robot.cpp ****       encoder_val_left = adc_get_val[0];
 936              		.loc 1 39 24 view .LVU259
 937 002e 0184     		strh	r1, [r0, #32]	@ movhi
  40:src/unit/robot.cpp ****       encoder_val_right = adc_get_val[1];
 938              		.loc 1 40 7 is_stmt 1 view .LVU260
  40:src/unit/robot.cpp ****       encoder_val_right = adc_get_val[1];
 939              		.loc 1 40 40 is_stmt 0 view .LVU261
 940 0030 5188     		ldrh	r1, [r2, #2]
  40:src/unit/robot.cpp ****       encoder_val_right = adc_get_val[1];
 941              		.loc 1 40 25 view .LVU262
 942 0032 4184     		strh	r1, [r0, #34]	@ movhi
  41:src/unit/robot.cpp ****       line.left_val = adc_get_val[2];
 943              		.loc 1 41 7 is_stmt 1 view .LVU263
  41:src/unit/robot.cpp ****       line.left_val = adc_get_val[2];
 944              		.loc 1 41 36 is_stmt 0 view .LVU264
 945 0034 9188     		ldrh	r1, [r2, #4]
  41:src/unit/robot.cpp ****       line.left_val = adc_get_val[2];
 946              		.loc 1 41 21 view .LVU265
 947 0036 8182     		strh	r1, [r0, #20]	@ movhi
  42:src/unit/robot.cpp ****       line.right_val = adc_get_val[3];
 948              		.loc 1 42 7 is_stmt 1 view .LVU266
  42:src/unit/robot.cpp ****       line.right_val = adc_get_val[3];
 949              		.loc 1 42 37 is_stmt 0 view .LVU267
 950 0038 D288     		ldrh	r2, [r2, #6]
  42:src/unit/robot.cpp ****       line.right_val = adc_get_val[3];
 951              		.loc 1 42 22 view .LVU268
ARM GAS  /var/folders/5c/srt4fy4j1pd641bjfx75k5000000gn/T//ccjRrrWd.s 			page 22


 952 003a C282     		strh	r2, [r0, #22]	@ movhi
  43:src/unit/robot.cpp ****       LineConmpute();
 953              		.loc 1 43 7 is_stmt 1 view .LVU269
  43:src/unit/robot.cpp ****       LineConmpute();
 954              		.loc 1 43 19 is_stmt 0 view .LVU270
 955 003c FFF7FEFF 		bl	_ZN5Robot12LineConmputeEv
 956              	.LVL77:
  44:src/unit/robot.cpp **** }
 957              		.loc 1 44 1 view .LVU271
 958 0040 08BD     		pop	{r3, pc}
 959              	.L42:
 960 0042 00BF     		.align	2
 961              	.L41:
 962 0044 00000000 		.word	adc_get_val
 963              		.cfi_endproc
 964              	.LFE270:
 965              		.cantunwind
 966              		.fnend
 968              		.global	adc_get_val
 969              		.section	.bss.adc_get_val,"aw",%nobits
 970              		.align	2
 973              	adc_get_val:
 974 0000 00000000 		.space	28
 974      00000000 
 974      00000000 
 974      00000000 
 974      00000000 
 975              		.section	.rodata
 976              		.align	2
 977              		.set	.LANCHOR0,. + 0
 978              	.LC0:
 979 0000 000034C2 		.word	-1036779520
 980 0004 00000CC2 		.word	-1039400960
 981 0008 0000C8C1 		.word	-1043857408
 982 000c 000070C1 		.word	-1049624576
 983 0010 0000A0C0 		.word	-1063256064
 984 0014 0000A040 		.word	1084227584
 985 0018 00007041 		.word	1097859072
 986 001c 0000C841 		.word	1103626240
 987 0020 00000C42 		.word	1108082688
 988 0024 00003442 		.word	1110704128
 989              		.text
 990              	.Letext0:
 991              		.file 5 "/opt/ST/STM32CubeCLT_1.16.0/GNU-tools-for-STM32/arm-none-eabi/include/machine/_default_ty
 992              		.file 6 "/opt/ST/STM32CubeCLT_1.16.0/GNU-tools-for-STM32/arm-none-eabi/include/sys/_stdint.h"
 993              		.file 7 "Drivers/CMSIS/Device/ST/STM32F4xx/Include/stm32f446xx.h"
 994              		.file 8 "Drivers/CMSIS/Device/ST/STM32F4xx/Include/stm32f4xx.h"
 995              		.file 9 "/opt/ST/STM32CubeCLT_1.16.0/GNU-tools-for-STM32/lib/gcc/arm-none-eabi/12.3.1/include/stdd
 996              		.file 10 "Drivers/STM32F4xx_HAL_Driver/Inc/stm32f4xx_hal_def.h"
 997              		.file 11 "Drivers/STM32F4xx_HAL_Driver/Inc/stm32f4xx_hal_gpio.h"
 998              		.file 12 "Drivers/STM32F4xx_HAL_Driver/Inc/stm32f4xx_hal_dma.h"
 999              		.file 13 "Drivers/STM32F4xx_HAL_Driver/Inc/stm32f4xx_hal_adc.h"
 1000              		.file 14 "Drivers/STM32F4xx_HAL_Driver/Inc/stm32f4xx_hal_tim.h"
 1001              		.file 15 "Drivers/STM32F4xx_HAL_Driver/Inc/stm32f4xx_hal.h"
 1002              		.file 16 "Lib/Timer/Timer.hpp"
 1003              		.file 17 "Lib/Button/Button.hpp"
 1004              		.file 18 "Drivers/CMSIS/Device/ST/STM32F4xx/Include/system_stm32f4xx.h"
ARM GAS  /var/folders/5c/srt4fy4j1pd641bjfx75k5000000gn/T//ccjRrrWd.s 			page 23


 1005              		.file 19 "Core/Inc/tim.h"
 1006              		.file 20 "/opt/ST/STM32CubeCLT_1.16.0/GNU-tools-for-STM32/arm-none-eabi/include/c++/12.3.1/cstdio"
 1007              		.file 21 "/opt/ST/STM32CubeCLT_1.16.0/GNU-tools-for-STM32/arm-none-eabi/include/c++/12.3.1/arm-non
 1008              		.file 22 "/opt/ST/STM32CubeCLT_1.16.0/GNU-tools-for-STM32/arm-none-eabi/include/sys/_types.h"
 1009              		.file 23 "/opt/ST/STM32CubeCLT_1.16.0/GNU-tools-for-STM32/arm-none-eabi/include/sys/reent.h"
 1010              		.file 24 "/opt/ST/STM32CubeCLT_1.16.0/GNU-tools-for-STM32/arm-none-eabi/include/sys/lock.h"
 1011              		.file 25 "/opt/ST/STM32CubeCLT_1.16.0/GNU-tools-for-STM32/arm-none-eabi/include/stdio.h"
 1012              		.file 26 "Core/Inc/adc.h"
 1013              		.file 27 "src/unit/motorDrive.hpp"
 1014              		.file 28 "src/unit/robot.hpp"
ARM GAS  /var/folders/5c/srt4fy4j1pd641bjfx75k5000000gn/T//ccjRrrWd.s 			page 24

