ARM GAS  /var/folders/5c/srt4fy4j1pd641bjfx75k5000000gn/T//cc4cHcMS.s 			page 1


   1              		.cpu cortex-m4
   2              		.arch armv7e-m
   3              		.fpu fpv4-sp-d16
   4              		.eabi_attribute 27, 1
   5              		.eabi_attribute 28, 1
   6              		.eabi_attribute 20, 1
   7              		.eabi_attribute 21, 1
   8              		.eabi_attribute 23, 3
   9              		.eabi_attribute 24, 1
  10              		.eabi_attribute 25, 1
  11              		.eabi_attribute 26, 1
  12              		.eabi_attribute 30, 1
  13              		.eabi_attribute 34, 1
  14              		.eabi_attribute 18, 4
  15              		.file	"robot.cpp"
  16              		.text
  17              	.Ltext0:
  18              		.cfi_sections	.debug_frame
  19              		.file 1 "src/unit/robot.cpp"
  20              		.section	.rodata._ZN14BufferedSerial4initEb.str1.4,"aMS",%progbits,1
  21              		.align	2
  22              	.LC1:
  23 0000 2D205365 		.ascii	"- Serial init\000"
  23      7269616C 
  23      20696E69 
  23      7400
  24              		.section	.text._ZN14BufferedSerial4initEb,"axG",%progbits,_ZN14BufferedSerial4initEb,comdat
  25              		.align	1
  26              		.weak	_ZN14BufferedSerial4initEb
  27              		.syntax unified
  28              		.thumb
  29              		.thumb_func
  31              	_ZN14BufferedSerial4initEb:
  32              		.fnstart
  33              	.LVL0:
  34              	.LFB243:
  35              		.file 2 "Lib/BufferedSerial/BufferedSerial.hpp"
   1:Lib/BufferedSerial/BufferedSerial.hpp **** #ifndef __BUFFERED_SERIAL__
   2:Lib/BufferedSerial/BufferedSerial.hpp **** #define __BUFFERED_SERIAL__
   3:Lib/BufferedSerial/BufferedSerial.hpp **** 
   4:Lib/BufferedSerial/BufferedSerial.hpp **** #include <stdio.h>
   5:Lib/BufferedSerial/BufferedSerial.hpp **** 
   6:Lib/BufferedSerial/BufferedSerial.hpp **** #include "usart.h"
   7:Lib/BufferedSerial/BufferedSerial.hpp **** 
   8:Lib/BufferedSerial/BufferedSerial.hpp **** #ifdef __cplusplus
   9:Lib/BufferedSerial/BufferedSerial.hpp **** 
  10:Lib/BufferedSerial/BufferedSerial.hpp **** /*
  11:Lib/BufferedSerial/BufferedSerial.hpp ****  Initã®é †ç•ªã‚’DMAãŒå…ˆã«ãªã‚‹ã‚ˆã†ã«ã™ã‚‹
  12:Lib/BufferedSerial/BufferedSerial.hpp ****  - MX_DMA_Init();
  13:Lib/BufferedSerial/BufferedSerial.hpp ****  - MX_USART2_UART_Init();
  14:Lib/BufferedSerial/BufferedSerial.hpp ****  - DMAã¯Circularãƒ¢ãƒ¼ãƒ‰ã«ã™ã‚‹
  15:Lib/BufferedSerial/BufferedSerial.hpp **** */
  16:Lib/BufferedSerial/BufferedSerial.hpp **** 
  17:Lib/BufferedSerial/BufferedSerial.hpp **** class BufferedSerial {
  18:Lib/BufferedSerial/BufferedSerial.hpp ****      public:
  19:Lib/BufferedSerial/BufferedSerial.hpp ****       BufferedSerial(UART_HandleTypeDef *huart, uint16_t rxBufSize)
  20:Lib/BufferedSerial/BufferedSerial.hpp ****           : _huart(huart),
ARM GAS  /var/folders/5c/srt4fy4j1pd641bjfx75k5000000gn/T//cc4cHcMS.s 			page 2


  21:Lib/BufferedSerial/BufferedSerial.hpp ****             _rxBuf(new uint8_t[rxBufSize]),
  22:Lib/BufferedSerial/BufferedSerial.hpp ****             rxTop(0),
  23:Lib/BufferedSerial/BufferedSerial.hpp ****             rxBtm(0),
  24:Lib/BufferedSerial/BufferedSerial.hpp ****             _rxBufSize(rxBufSize),
  25:Lib/BufferedSerial/BufferedSerial.hpp ****             _useDMA(false) {
  26:Lib/BufferedSerial/BufferedSerial.hpp ****       }
  27:Lib/BufferedSerial/BufferedSerial.hpp ****       void init(bool dma = false) {
  36              		.loc 2 27 12 view -0
  37              		.cfi_startproc
  38              		@ args = 0, pretend = 0, frame = 0
  39              		@ frame_needed = 0, uses_anonymous_args = 0
  40              		.loc 2 27 12 is_stmt 0 view .LVU1
  41 0000 08B5     		push	{r3, lr}
  42              		.save {r3, lr}
  43              	.LCFI0:
  44              		.cfi_def_cfa_offset 8
  45              		.cfi_offset 3, -8
  46              		.cfi_offset 14, -4
  28:Lib/BufferedSerial/BufferedSerial.hpp ****             _useDMA = dma;
  47              		.loc 2 28 13 is_stmt 1 view .LVU2
  48              		.loc 2 28 21 is_stmt 0 view .LVU3
  49 0002 8173     		strb	r1, [r0, #14]
  29:Lib/BufferedSerial/BufferedSerial.hpp ****             HAL_UART_Receive_DMA(_huart, _rxBuf, _rxBufSize);
  50              		.loc 2 29 13 is_stmt 1 view .LVU4
  51              		.loc 2 29 33 is_stmt 0 view .LVU5
  52 0004 8289     		ldrh	r2, [r0, #12]
  53 0006 4168     		ldr	r1, [r0, #4]
  54              	.LVL1:
  55              		.loc 2 29 33 view .LVU6
  56 0008 0068     		ldr	r0, [r0]
  57              	.LVL2:
  58              		.loc 2 29 33 view .LVU7
  59 000a FFF7FEFF 		bl	HAL_UART_Receive_DMA
  60              	.LVL3:
  30:Lib/BufferedSerial/BufferedSerial.hpp ****             printf("- Serial init\n");
  61              		.loc 2 30 13 is_stmt 1 view .LVU8
  62              		.loc 2 30 19 is_stmt 0 view .LVU9
  63 000e 0248     		ldr	r0, .L3
  64 0010 FFF7FEFF 		bl	puts
  65              	.LVL4:
  31:Lib/BufferedSerial/BufferedSerial.hpp ****       }
  66              		.loc 2 31 7 view .LVU10
  67 0014 08BD     		pop	{r3, pc}
  68              	.L4:
  69 0016 00BF     		.align	2
  70              	.L3:
  71 0018 00000000 		.word	.LC1
  72              		.cfi_endproc
  73              	.LFE243:
  74              		.fnend
  76              		.section	.text._ZN14BufferedSerial4readEv,"axG",%progbits,_ZN14BufferedSerial4readEv,comdat
  77              		.align	1
  78              		.weak	_ZN14BufferedSerial4readEv
  79              		.syntax unified
  80              		.thumb
  81              		.thumb_func
  83              	_ZN14BufferedSerial4readEv:
ARM GAS  /var/folders/5c/srt4fy4j1pd641bjfx75k5000000gn/T//cc4cHcMS.s 			page 3


  84              		.fnstart
  85              	.LVL5:
  86              	.LFB245:
  32:Lib/BufferedSerial/BufferedSerial.hpp **** 
  33:Lib/BufferedSerial/BufferedSerial.hpp ****       bool available() {
  34:Lib/BufferedSerial/BufferedSerial.hpp ****             uint16_t rxTop = _rxBufSize - _huart->hdmarx->Instance->NDTR;
  35:Lib/BufferedSerial/BufferedSerial.hpp ****             return rxTop != rxBtm;
  36:Lib/BufferedSerial/BufferedSerial.hpp ****       }
  37:Lib/BufferedSerial/BufferedSerial.hpp **** 
  38:Lib/BufferedSerial/BufferedSerial.hpp ****       uint8_t read() {
  87              		.loc 2 38 15 is_stmt 1 view -0
  88              		.cfi_startproc
  89              		@ args = 0, pretend = 0, frame = 0
  90              		@ frame_needed = 0, uses_anonymous_args = 0
  91              		@ link register save eliminated.
  92              		.loc 2 38 15 is_stmt 0 view .LVU12
  93 0000 0246     		mov	r2, r0
  39:Lib/BufferedSerial/BufferedSerial.hpp ****             uint16_t rxTop = _rxBufSize - _huart->hdmarx->Instance->NDTR;
  94              		.loc 2 39 13 is_stmt 1 view .LVU13
  95              		.loc 2 39 30 is_stmt 0 view .LVU14
  96 0002 B0F80CC0 		ldrh	ip, [r0, #12]
  97              		.loc 2 39 43 view .LVU15
  98 0006 0368     		ldr	r3, [r0]
  99              		.loc 2 39 51 view .LVU16
 100 0008 DB6B     		ldr	r3, [r3, #60]
 101              		.loc 2 39 59 view .LVU17
 102 000a 1B68     		ldr	r3, [r3]
 103              		.loc 2 39 69 view .LVU18
 104 000c 5B68     		ldr	r3, [r3, #4]
 105              		.loc 2 39 41 view .LVU19
 106 000e 9BB2     		uxth	r3, r3
 107              		.loc 2 39 69 view .LVU20
 108 0010 ACEB0303 		sub	r3, ip, r3
 109 0014 9BB2     		uxth	r3, r3
 110              	.LVL6:
  40:Lib/BufferedSerial/BufferedSerial.hpp ****             if (rxTop == rxBtm) {
 111              		.loc 2 40 13 is_stmt 1 view .LVU21
 112              		.loc 2 40 26 is_stmt 0 view .LVU22
 113 0016 4189     		ldrh	r1, [r0, #10]
 114              		.loc 2 40 13 view .LVU23
 115 0018 9942     		cmp	r1, r3
 116 001a 08D0     		beq	.L7
  41:Lib/BufferedSerial/BufferedSerial.hpp ****                   return 0;
  42:Lib/BufferedSerial/BufferedSerial.hpp ****             }
  43:Lib/BufferedSerial/BufferedSerial.hpp ****             uint8_t data = _rxBuf[rxBtm];
 117              		.loc 2 43 13 is_stmt 1 view .LVU24
 118              		.loc 2 43 28 is_stmt 0 view .LVU25
 119 001c 4368     		ldr	r3, [r0, #4]
 120              	.LVL7:
 121              		.loc 2 43 21 view .LVU26
 122 001e 585C     		ldrb	r0, [r3, r1]	@ zero_extendqisi2
 123              	.LVL8:
  44:Lib/BufferedSerial/BufferedSerial.hpp ****             rxBtm = (rxBtm + 1) % _rxBufSize;
 124              		.loc 2 44 13 is_stmt 1 view .LVU27
 125              		.loc 2 44 28 is_stmt 0 view .LVU28
 126 0020 0131     		adds	r1, r1, #1
 127              		.loc 2 44 33 view .LVU29
ARM GAS  /var/folders/5c/srt4fy4j1pd641bjfx75k5000000gn/T//cc4cHcMS.s 			page 4


 128 0022 91FBFCF3 		sdiv	r3, r1, ip
 129 0026 0CFB1311 		mls	r1, ip, r3, r1
 130              		.loc 2 44 19 view .LVU30
 131 002a 5181     		strh	r1, [r2, #10]	@ movhi
  45:Lib/BufferedSerial/BufferedSerial.hpp ****             // printf("top:%d btm:%d NDTR:%d data:%d\n", rxTop, rxBtm, _huart->hdmarx->Instance->ND
  46:Lib/BufferedSerial/BufferedSerial.hpp ****             return data;
 132              		.loc 2 46 13 is_stmt 1 view .LVU31
 133              		.loc 2 46 20 is_stmt 0 view .LVU32
 134 002c 7047     		bx	lr
 135              	.LVL9:
 136              	.L7:
  41:Lib/BufferedSerial/BufferedSerial.hpp ****             }
 137              		.loc 2 41 26 view .LVU33
 138 002e 0020     		movs	r0, #0
 139              	.LVL10:
  47:Lib/BufferedSerial/BufferedSerial.hpp ****       }
 140              		.loc 2 47 7 view .LVU34
 141 0030 7047     		bx	lr
 142              		.cfi_endproc
 143              	.LFE245:
 144              		.cantunwind
 145              		.fnend
 147              		.section	.text._ZN6Buzzer4initEv,"axG",%progbits,_ZN6Buzzer4initEv,comdat
 148              		.align	1
 149              		.weak	_ZN6Buzzer4initEv
 150              		.syntax unified
 151              		.thumb
 152              		.thumb_func
 154              	_ZN6Buzzer4initEv:
 155              		.fnstart
 156              	.LVL11:
 157              	.LFB264:
 158              		.file 3 "Lib/Buzzer/Buzzer.hpp"
   1:Lib/Buzzer/Buzzer.hpp **** #ifndef __BUZZER__
   2:Lib/Buzzer/Buzzer.hpp **** #define __BUZZER__
   3:Lib/Buzzer/Buzzer.hpp **** 
   4:Lib/Buzzer/Buzzer.hpp **** #include "tim.h"
   5:Lib/Buzzer/Buzzer.hpp **** 
   6:Lib/Buzzer/Buzzer.hpp **** #ifdef __cplusplus
   7:Lib/Buzzer/Buzzer.hpp **** extern "C" {
   8:Lib/Buzzer/Buzzer.hpp **** 
   9:Lib/Buzzer/Buzzer.hpp **** class Buzzer {
  10:Lib/Buzzer/Buzzer.hpp ****      public:
  11:Lib/Buzzer/Buzzer.hpp ****       Buzzer(TIM_HandleTypeDef *htim, uint32_t channel)
  12:Lib/Buzzer/Buzzer.hpp ****           : _htim(htim), _channel(channel), _maxValue(_htim->Init.Period) {
  13:Lib/Buzzer/Buzzer.hpp ****       }
  14:Lib/Buzzer/Buzzer.hpp **** 
  15:Lib/Buzzer/Buzzer.hpp ****       void init() {
 159              		.loc 3 15 12 is_stmt 1 view -0
 160              		.cfi_startproc
 161              		@ args = 0, pretend = 0, frame = 0
 162              		@ frame_needed = 0, uses_anonymous_args = 0
 163              		.loc 3 15 12 is_stmt 0 view .LVU36
 164 0000 10B5     		push	{r4, lr}
 165              		.save {r4, lr}
 166              	.LCFI1:
 167              		.cfi_def_cfa_offset 8
ARM GAS  /var/folders/5c/srt4fy4j1pd641bjfx75k5000000gn/T//cc4cHcMS.s 			page 5


 168              		.cfi_offset 4, -8
 169              		.cfi_offset 14, -4
 170 0002 0446     		mov	r4, r0
  16:Lib/Buzzer/Buzzer.hpp ****             HAL_TIM_PWM_Start(_htim, _channel);
 171              		.loc 3 16 13 is_stmt 1 view .LVU37
 172              		.loc 3 16 30 is_stmt 0 view .LVU38
 173 0004 4168     		ldr	r1, [r0, #4]
 174 0006 0068     		ldr	r0, [r0]
 175              	.LVL12:
 176              		.loc 3 16 30 view .LVU39
 177 0008 FFF7FEFF 		bl	HAL_TIM_PWM_Start
 178              	.LVL13:
  17:Lib/Buzzer/Buzzer.hpp ****             _maxValue = _htim->Init.Period;
 179              		.loc 3 17 13 is_stmt 1 view .LVU40
 180              		.loc 3 17 25 is_stmt 0 view .LVU41
 181 000c 2368     		ldr	r3, [r4]
 182              		.loc 3 17 37 view .LVU42
 183 000e DB68     		ldr	r3, [r3, #12]
 184              		.loc 3 17 23 view .LVU43
 185 0010 A360     		str	r3, [r4, #8]
  18:Lib/Buzzer/Buzzer.hpp ****       }
 186              		.loc 3 18 7 view .LVU44
 187 0012 10BD     		pop	{r4, pc}
 188              		.loc 3 18 7 view .LVU45
 189              		.cfi_endproc
 190              	.LFE264:
 191              		.fnend
 193              		.section	.text._ZN12PwmSingleOut4initEv,"axG",%progbits,_ZN12PwmSingleOut4initEv,comdat
 194              		.align	1
 195              		.weak	_ZN12PwmSingleOut4initEv
 196              		.syntax unified
 197              		.thumb
 198              		.thumb_func
 200              	_ZN12PwmSingleOut4initEv:
 201              		.fnstart
 202              	.LVL14:
 203              	.LFB271:
 204              		.file 4 "Lib/PWMSingle/PWMSingle.hpp"
   1:Lib/PWMSingle/PWMSingle.hpp **** #ifndef __PWMSINGLE__
   2:Lib/PWMSingle/PWMSingle.hpp **** #define __PWMSINGLE__
   3:Lib/PWMSingle/PWMSingle.hpp **** 
   4:Lib/PWMSingle/PWMSingle.hpp **** #include "MyMath.hpp"
   5:Lib/PWMSingle/PWMSingle.hpp **** #include "tim.h"
   6:Lib/PWMSingle/PWMSingle.hpp **** 
   7:Lib/PWMSingle/PWMSingle.hpp **** #ifdef __cplusplus
   8:Lib/PWMSingle/PWMSingle.hpp **** extern "C" {
   9:Lib/PWMSingle/PWMSingle.hpp **** 
  10:Lib/PWMSingle/PWMSingle.hpp **** class PwmSingleOut {
  11:Lib/PWMSingle/PWMSingle.hpp ****      public:
  12:Lib/PWMSingle/PWMSingle.hpp ****       PwmSingleOut(TIM_HandleTypeDef *htim, uint32_t channel)
  13:Lib/PWMSingle/PWMSingle.hpp ****           : _htim(htim), _channel(channel), _maxValue(_htim->Init.Period) {
  14:Lib/PWMSingle/PWMSingle.hpp ****       }
  15:Lib/PWMSingle/PWMSingle.hpp **** 
  16:Lib/PWMSingle/PWMSingle.hpp ****       void init() {
 205              		.loc 4 16 12 is_stmt 1 view -0
 206              		.cfi_startproc
 207              		@ args = 0, pretend = 0, frame = 0
ARM GAS  /var/folders/5c/srt4fy4j1pd641bjfx75k5000000gn/T//cc4cHcMS.s 			page 6


 208              		@ frame_needed = 0, uses_anonymous_args = 0
 209              		.loc 4 16 12 is_stmt 0 view .LVU47
 210 0000 10B5     		push	{r4, lr}
 211              		.save {r4, lr}
 212              	.LCFI2:
 213              		.cfi_def_cfa_offset 8
 214              		.cfi_offset 4, -8
 215              		.cfi_offset 14, -4
 216 0002 0446     		mov	r4, r0
  17:Lib/PWMSingle/PWMSingle.hpp ****             HAL_TIM_PWM_Start(_htim, _channel);
 217              		.loc 4 17 13 is_stmt 1 view .LVU48
 218              		.loc 4 17 30 is_stmt 0 view .LVU49
 219 0004 4168     		ldr	r1, [r0, #4]
 220 0006 0068     		ldr	r0, [r0]
 221              	.LVL15:
 222              		.loc 4 17 30 view .LVU50
 223 0008 FFF7FEFF 		bl	HAL_TIM_PWM_Start
 224              	.LVL16:
  18:Lib/PWMSingle/PWMSingle.hpp ****             _maxValue = _htim->Init.Period;
 225              		.loc 4 18 13 is_stmt 1 view .LVU51
 226              		.loc 4 18 25 is_stmt 0 view .LVU52
 227 000c 2368     		ldr	r3, [r4]
 228              		.loc 4 18 37 view .LVU53
 229 000e DB68     		ldr	r3, [r3, #12]
 230              		.loc 4 18 23 view .LVU54
 231 0010 A360     		str	r3, [r4, #8]
  19:Lib/PWMSingle/PWMSingle.hpp ****       }
 232              		.loc 4 19 7 view .LVU55
 233 0012 10BD     		pop	{r4, pc}
 234              		.loc 4 19 7 view .LVU56
 235              		.cfi_endproc
 236              	.LFE271:
 237              		.fnend
 239              		.section	.text._ZN5RobotC2Ev,"ax",%progbits
 240              		.align	1
 241              		.global	_ZN5RobotC2Ev
 242              		.syntax unified
 243              		.thumb
 244              		.thumb_func
 246              	_ZN5RobotC2Ev:
 247              		.fnstart
 248              	.LVL17:
 249              	.LFB279:
   1:src/unit/robot.cpp **** #include "robot.hpp"
   2:src/unit/robot.cpp **** 
   3:src/unit/robot.cpp **** uint16_t adc_get_val[14];
   4:src/unit/robot.cpp **** 
   5:src/unit/robot.cpp **** Robot::Robot() {
 250              		.loc 1 5 1 is_stmt 1 view -0
 251              		.cfi_startproc
 252              		@ args = 0, pretend = 0, frame = 0
 253              		@ frame_needed = 0, uses_anonymous_args = 0
 254              		.loc 1 5 1 is_stmt 0 view .LVU58
 255 0000 F0B5     		push	{r4, r5, r6, r7, lr}
 256              		.save {r4, r5, r6, r7, lr}
 257              	.LCFI3:
 258              		.cfi_def_cfa_offset 20
ARM GAS  /var/folders/5c/srt4fy4j1pd641bjfx75k5000000gn/T//cc4cHcMS.s 			page 7


 259              		.cfi_offset 4, -20
 260              		.cfi_offset 5, -16
 261              		.cfi_offset 6, -12
 262              		.cfi_offset 7, -8
 263              		.cfi_offset 14, -4
 264              		.pad #20
 265 0002 85B0     		sub	sp, sp, #20
 266              	.LCFI4:
 267              		.cfi_def_cfa_offset 40
 268 0004 0446     		mov	r4, r0
 269              	.LVL18:
 270              	.LBB57:
 271              	.LBB58:
 272              	.LBI58:
 273              		.file 5 "Lib/DigitalInOut/DigitalInOut.hpp"
   1:Lib/DigitalInOut/DigitalInOut.hpp **** #ifndef __DigitalInOut__
   2:Lib/DigitalInOut/DigitalInOut.hpp **** #define __DigitalInOut__
   3:Lib/DigitalInOut/DigitalInOut.hpp **** 
   4:Lib/DigitalInOut/DigitalInOut.hpp **** #include "main.h"
   5:Lib/DigitalInOut/DigitalInOut.hpp **** 
   6:Lib/DigitalInOut/DigitalInOut.hpp **** #ifdef __cplusplus
   7:Lib/DigitalInOut/DigitalInOut.hpp **** 
   8:Lib/DigitalInOut/DigitalInOut.hpp **** extern "C" {
   9:Lib/DigitalInOut/DigitalInOut.hpp **** 
  10:Lib/DigitalInOut/DigitalInOut.hpp **** class DigitalOut {
  11:Lib/DigitalInOut/DigitalInOut.hpp ****   public:
  12:Lib/DigitalInOut/DigitalInOut.hpp ****     DigitalOut(GPIO_TypeDef *port, uint16_t pin) : port(port), pin(pin) {
 274              		.loc 5 12 5 is_stmt 1 view .LVU59
 275              	.LBB59:
 276              		.loc 5 12 52 is_stmt 0 view .LVU60
 277 0006 5148     		ldr	r0, .L14
 278              	.LVL19:
 279              		.loc 5 12 52 view .LVU61
 280 0008 A063     		str	r0, [r4, #56]
 281              		.loc 5 12 64 view .LVU62
 282 000a 0427     		movs	r7, #4
 283 000c A787     		strh	r7, [r4, #60]	@ movhi
  13:Lib/DigitalInOut/DigitalInOut.hpp ****         HAL_GPIO_WritePin(port, pin, GPIO_PIN_RESET);
 284              		.loc 5 13 9 is_stmt 1 view .LVU63
 285              		.loc 5 13 26 is_stmt 0 view .LVU64
 286 000e 0022     		movs	r2, #0
 287 0010 3946     		mov	r1, r7
 288 0012 FFF7FEFF 		bl	HAL_GPIO_WritePin
 289              	.LVL20:
 290              		.loc 5 13 26 view .LVU65
 291              	.LBE59:
 292              	.LBE58:
 293              	.LBB60:
 294              	.LBI60:
  12:Lib/DigitalInOut/DigitalInOut.hpp ****         HAL_GPIO_WritePin(port, pin, GPIO_PIN_RESET);
 295              		.loc 5 12 5 is_stmt 1 view .LVU66
 296              	.LBB61:
  12:Lib/DigitalInOut/DigitalInOut.hpp ****         HAL_GPIO_WritePin(port, pin, GPIO_PIN_RESET);
 297              		.loc 5 12 52 is_stmt 0 view .LVU67
 298 0016 4E4D     		ldr	r5, .L14+4
 299 0018 2564     		str	r5, [r4, #64]
  12:Lib/DigitalInOut/DigitalInOut.hpp ****         HAL_GPIO_WritePin(port, pin, GPIO_PIN_RESET);
ARM GAS  /var/folders/5c/srt4fy4j1pd641bjfx75k5000000gn/T//cc4cHcMS.s 			page 8


 300              		.loc 5 12 64 view .LVU68
 301 001a 1021     		movs	r1, #16
 302 001c A4F84410 		strh	r1, [r4, #68]	@ movhi
 303              		.loc 5 13 9 is_stmt 1 view .LVU69
 304              		.loc 5 13 26 is_stmt 0 view .LVU70
 305 0020 0022     		movs	r2, #0
 306 0022 2846     		mov	r0, r5
 307 0024 FFF7FEFF 		bl	HAL_GPIO_WritePin
 308              	.LVL21:
 309              		.loc 5 13 26 view .LVU71
 310              	.LBE61:
 311              	.LBE60:
 312              	.LBB62:
 313              	.LBI62:
  12:Lib/DigitalInOut/DigitalInOut.hpp ****         HAL_GPIO_WritePin(port, pin, GPIO_PIN_RESET);
 314              		.loc 5 12 5 is_stmt 1 view .LVU72
 315              	.LBB63:
  12:Lib/DigitalInOut/DigitalInOut.hpp ****         HAL_GPIO_WritePin(port, pin, GPIO_PIN_RESET);
 316              		.loc 5 12 52 is_stmt 0 view .LVU73
 317 0028 A564     		str	r5, [r4, #72]
  12:Lib/DigitalInOut/DigitalInOut.hpp ****         HAL_GPIO_WritePin(port, pin, GPIO_PIN_RESET);
 318              		.loc 5 12 64 view .LVU74
 319 002a 4021     		movs	r1, #64
 320 002c A4F84C10 		strh	r1, [r4, #76]	@ movhi
 321              		.loc 5 13 9 is_stmt 1 view .LVU75
 322              		.loc 5 13 26 is_stmt 0 view .LVU76
 323 0030 0022     		movs	r2, #0
 324 0032 2846     		mov	r0, r5
 325 0034 FFF7FEFF 		bl	HAL_GPIO_WritePin
 326              	.LVL22:
 327              		.loc 5 13 26 view .LVU77
 328              	.LBE63:
 329              	.LBE62:
 330              	.LBB64:
 331              	.LBI64:
  12:Lib/DigitalInOut/DigitalInOut.hpp ****         HAL_GPIO_WritePin(port, pin, GPIO_PIN_RESET);
 332              		.loc 5 12 5 is_stmt 1 view .LVU78
 333              	.LBB65:
  12:Lib/DigitalInOut/DigitalInOut.hpp ****         HAL_GPIO_WritePin(port, pin, GPIO_PIN_RESET);
 334              		.loc 5 12 52 is_stmt 0 view .LVU79
 335 0038 2565     		str	r5, [r4, #80]
  12:Lib/DigitalInOut/DigitalInOut.hpp ****         HAL_GPIO_WritePin(port, pin, GPIO_PIN_RESET);
 336              		.loc 5 12 64 view .LVU80
 337 003a 8026     		movs	r6, #128
 338 003c A4F85460 		strh	r6, [r4, #84]	@ movhi
 339              		.loc 5 13 9 is_stmt 1 view .LVU81
 340              		.loc 5 13 26 is_stmt 0 view .LVU82
 341 0040 0022     		movs	r2, #0
 342 0042 3146     		mov	r1, r6
 343 0044 2846     		mov	r0, r5
 344 0046 FFF7FEFF 		bl	HAL_GPIO_WritePin
 345              	.LVL23:
 346              		.loc 5 13 26 view .LVU83
 347              	.LBE65:
 348              	.LBE64:
 349              	.LBB66:
 350              	.LBI66:
ARM GAS  /var/folders/5c/srt4fy4j1pd641bjfx75k5000000gn/T//cc4cHcMS.s 			page 9


  12:Lib/DigitalInOut/DigitalInOut.hpp ****         HAL_GPIO_WritePin(port, pin, GPIO_PIN_RESET);
 351              		.loc 5 12 5 is_stmt 1 view .LVU84
 352              	.LBB67:
  12:Lib/DigitalInOut/DigitalInOut.hpp ****         HAL_GPIO_WritePin(port, pin, GPIO_PIN_RESET);
 353              		.loc 5 12 52 is_stmt 0 view .LVU85
 354 004a A565     		str	r5, [r4, #88]
  12:Lib/DigitalInOut/DigitalInOut.hpp ****         HAL_GPIO_WritePin(port, pin, GPIO_PIN_RESET);
 355              		.loc 5 12 64 view .LVU86
 356 004c 4FF48071 		mov	r1, #256
 357 0050 A4F85C10 		strh	r1, [r4, #92]	@ movhi
 358              		.loc 5 13 9 is_stmt 1 view .LVU87
 359              		.loc 5 13 26 is_stmt 0 view .LVU88
 360 0054 0022     		movs	r2, #0
 361 0056 2846     		mov	r0, r5
 362 0058 FFF7FEFF 		bl	HAL_GPIO_WritePin
 363              	.LVL24:
 364              		.loc 5 13 26 view .LVU89
 365              	.LBE67:
 366              	.LBE66:
 367              		.loc 1 5 14 view .LVU90
 368 005c 4FF48052 		mov	r2, #4096
 369 0060 3C49     		ldr	r1, .L14+8
 370 0062 04F16000 		add	r0, r4, #96
 371 0066 FFF7FEFF 		bl	_ZN6ButtonC1EP12GPIO_TypeDeft
 372              	.LVL25:
 373 006a 0822     		movs	r2, #8
 374 006c 2946     		mov	r1, r5
 375 006e 04F17400 		add	r0, r4, #116
 376 0072 FFF7FEFF 		bl	_ZN6ButtonC1EP12GPIO_TypeDeft
 377              	.LVL26:
 378 0076 2022     		movs	r2, #32
 379 0078 2946     		mov	r1, r5
 380 007a 04F18800 		add	r0, r4, #136
 381 007e FFF7FEFF 		bl	_ZN6ButtonC1EP12GPIO_TypeDeft
 382              	.LVL27:
 383              	.LBB68:
 384              	.LBI68:
  12:Lib/PWMSingle/PWMSingle.hpp ****           : _htim(htim), _channel(channel), _maxValue(_htim->Init.Period) {
 385              		.loc 4 12 7 is_stmt 1 view .LVU91
 386              	.LBB69:
  13:Lib/PWMSingle/PWMSingle.hpp ****       }
 387              		.loc 4 13 13 is_stmt 0 view .LVU92
 388 0082 354B     		ldr	r3, .L14+12
 389 0084 C4F89C30 		str	r3, [r4, #156]
  13:Lib/PWMSingle/PWMSingle.hpp ****       }
 390              		.loc 4 13 26 view .LVU93
 391 0088 4FF00C0E 		mov	lr, #12
 392 008c C4F8A0E0 		str	lr, [r4, #160]
  13:Lib/PWMSingle/PWMSingle.hpp ****       }
 393              		.loc 4 13 67 view .LVU94
 394 0090 DA68     		ldr	r2, [r3, #12]
  13:Lib/PWMSingle/PWMSingle.hpp ****       }
 395              		.loc 4 13 45 view .LVU95
 396 0092 C4F8A420 		str	r2, [r4, #164]
 397              	.LVL28:
  13:Lib/PWMSingle/PWMSingle.hpp ****       }
 398              		.loc 4 13 45 view .LVU96
ARM GAS  /var/folders/5c/srt4fy4j1pd641bjfx75k5000000gn/T//cc4cHcMS.s 			page 10


 399              	.LBE69:
 400              	.LBE68:
 401              	.LBB70:
 402              	.LBI70:
  12:Lib/PWMSingle/PWMSingle.hpp ****           : _htim(htim), _channel(channel), _maxValue(_htim->Init.Period) {
 403              		.loc 4 12 7 is_stmt 1 view .LVU97
 404              	.LBB71:
  13:Lib/PWMSingle/PWMSingle.hpp ****       }
 405              		.loc 4 13 13 is_stmt 0 view .LVU98
 406 0096 3148     		ldr	r0, .L14+16
 407 0098 C4F8AC00 		str	r0, [r4, #172]
  13:Lib/PWMSingle/PWMSingle.hpp ****       }
 408              		.loc 4 13 26 view .LVU99
 409 009c C4F8B070 		str	r7, [r4, #176]
  13:Lib/PWMSingle/PWMSingle.hpp ****       }
 410              		.loc 4 13 67 view .LVU100
 411 00a0 D0F80CC0 		ldr	ip, [r0, #12]
  13:Lib/PWMSingle/PWMSingle.hpp ****       }
 412              		.loc 4 13 45 view .LVU101
 413 00a4 C4F8B4C0 		str	ip, [r4, #180]
 414              	.LVL29:
  13:Lib/PWMSingle/PWMSingle.hpp ****       }
 415              		.loc 4 13 45 view .LVU102
 416              	.LBE71:
 417              	.LBE70:
 418              	.LBB72:
 419              	.LBI72:
  12:Lib/PWMSingle/PWMSingle.hpp ****           : _htim(htim), _channel(channel), _maxValue(_htim->Init.Period) {
 420              		.loc 4 12 7 is_stmt 1 view .LVU103
 421              	.LBB73:
  13:Lib/PWMSingle/PWMSingle.hpp ****       }
 422              		.loc 4 13 13 is_stmt 0 view .LVU104
 423 00a8 C4F8BC30 		str	r3, [r4, #188]
  13:Lib/PWMSingle/PWMSingle.hpp ****       }
 424              		.loc 4 13 26 view .LVU105
 425 00ac 0821     		movs	r1, #8
 426 00ae C4F8C010 		str	r1, [r4, #192]
  13:Lib/PWMSingle/PWMSingle.hpp ****       }
 427              		.loc 4 13 45 view .LVU106
 428 00b2 C4F8C420 		str	r2, [r4, #196]
 429              	.LVL30:
  13:Lib/PWMSingle/PWMSingle.hpp ****       }
 430              		.loc 4 13 45 view .LVU107
 431              	.LBE73:
 432              	.LBE72:
 433              	.LBB74:
 434              	.LBI74:
  12:Lib/PWMSingle/PWMSingle.hpp ****           : _htim(htim), _channel(channel), _maxValue(_htim->Init.Period) {
 435              		.loc 4 12 7 is_stmt 1 view .LVU108
 436              	.LBB75:
  13:Lib/PWMSingle/PWMSingle.hpp ****       }
 437              		.loc 4 13 13 is_stmt 0 view .LVU109
 438 00b6 2A4B     		ldr	r3, .L14+20
 439 00b8 C4F8CC30 		str	r3, [r4, #204]
  13:Lib/PWMSingle/PWMSingle.hpp ****       }
 440              		.loc 4 13 26 view .LVU110
 441 00bc 0025     		movs	r5, #0
ARM GAS  /var/folders/5c/srt4fy4j1pd641bjfx75k5000000gn/T//cc4cHcMS.s 			page 11


 442 00be C4F8D050 		str	r5, [r4, #208]
  13:Lib/PWMSingle/PWMSingle.hpp ****       }
 443              		.loc 4 13 67 view .LVU111
 444 00c2 DA68     		ldr	r2, [r3, #12]
  13:Lib/PWMSingle/PWMSingle.hpp ****       }
 445              		.loc 4 13 45 view .LVU112
 446 00c4 C4F8D420 		str	r2, [r4, #212]
 447              	.LVL31:
  13:Lib/PWMSingle/PWMSingle.hpp ****       }
 448              		.loc 4 13 45 view .LVU113
 449              	.LBE75:
 450              	.LBE74:
 451              	.LBB76:
 452              	.LBI76:
  12:Lib/PWMSingle/PWMSingle.hpp ****           : _htim(htim), _channel(channel), _maxValue(_htim->Init.Period) {
 453              		.loc 4 12 7 is_stmt 1 view .LVU114
 454              	.LBB77:
  13:Lib/PWMSingle/PWMSingle.hpp ****       }
 455              		.loc 4 13 13 is_stmt 0 view .LVU115
 456 00c8 C4F8DC30 		str	r3, [r4, #220]
  13:Lib/PWMSingle/PWMSingle.hpp ****       }
 457              		.loc 4 13 26 view .LVU116
 458 00cc C4F8E070 		str	r7, [r4, #224]
  13:Lib/PWMSingle/PWMSingle.hpp ****       }
 459              		.loc 4 13 45 view .LVU117
 460 00d0 C4F8E420 		str	r2, [r4, #228]
 461              	.LVL32:
  13:Lib/PWMSingle/PWMSingle.hpp ****       }
 462              		.loc 4 13 45 view .LVU118
 463              	.LBE77:
 464              	.LBE76:
 465              	.LBB78:
 466              	.LBI78:
  12:Lib/PWMSingle/PWMSingle.hpp ****           : _htim(htim), _channel(channel), _maxValue(_htim->Init.Period) {
 467              		.loc 4 12 7 is_stmt 1 view .LVU119
 468              	.LBB79:
  13:Lib/PWMSingle/PWMSingle.hpp ****       }
 469              		.loc 4 13 13 is_stmt 0 view .LVU120
 470 00d4 C4F8EC30 		str	r3, [r4, #236]
  13:Lib/PWMSingle/PWMSingle.hpp ****       }
 471              		.loc 4 13 26 view .LVU121
 472 00d8 C4F8F010 		str	r1, [r4, #240]
  13:Lib/PWMSingle/PWMSingle.hpp ****       }
 473              		.loc 4 13 45 view .LVU122
 474 00dc C4F8F420 		str	r2, [r4, #244]
 475              	.LVL33:
  13:Lib/PWMSingle/PWMSingle.hpp ****       }
 476              		.loc 4 13 45 view .LVU123
 477              	.LBE79:
 478              	.LBE78:
 479              	.LBB80:
 480              	.LBI80:
  12:Lib/PWMSingle/PWMSingle.hpp ****           : _htim(htim), _channel(channel), _maxValue(_htim->Init.Period) {
 481              		.loc 4 12 7 is_stmt 1 view .LVU124
 482              	.LBB81:
  13:Lib/PWMSingle/PWMSingle.hpp ****       }
 483              		.loc 4 13 13 is_stmt 0 view .LVU125
ARM GAS  /var/folders/5c/srt4fy4j1pd641bjfx75k5000000gn/T//cc4cHcMS.s 			page 12


 484 00e0 C4F8FC30 		str	r3, [r4, #252]
  13:Lib/PWMSingle/PWMSingle.hpp ****       }
 485              		.loc 4 13 26 view .LVU126
 486 00e4 C4F800E1 		str	lr, [r4, #256]
  13:Lib/PWMSingle/PWMSingle.hpp ****       }
 487              		.loc 4 13 45 view .LVU127
 488 00e8 C4F80421 		str	r2, [r4, #260]
 489              	.LVL34:
  13:Lib/PWMSingle/PWMSingle.hpp ****       }
 490              		.loc 4 13 45 view .LVU128
 491              	.LBE81:
 492              	.LBE80:
 493              	.LBB82:
 494              	.LBI82:
  11:Lib/Buzzer/Buzzer.hpp ****           : _htim(htim), _channel(channel), _maxValue(_htim->Init.Period) {
 495              		.loc 3 11 7 is_stmt 1 view .LVU129
 496              	.LBB83:
  12:Lib/Buzzer/Buzzer.hpp ****       }
 497              		.loc 3 12 13 is_stmt 0 view .LVU130
 498 00ec C4F80C01 		str	r0, [r4, #268]
  12:Lib/Buzzer/Buzzer.hpp ****       }
 499              		.loc 3 12 26 view .LVU131
 500 00f0 C4F81011 		str	r1, [r4, #272]
  12:Lib/Buzzer/Buzzer.hpp ****       }
 501              		.loc 3 12 45 view .LVU132
 502 00f4 C4F814C1 		str	ip, [r4, #276]
 503              	.LVL35:
  12:Lib/Buzzer/Buzzer.hpp ****       }
 504              		.loc 3 12 45 view .LVU133
 505              	.LBE83:
 506              	.LBE82:
 507              	.LBB84:
 508              	.LBI84:
  19:Lib/BufferedSerial/BufferedSerial.hpp ****           : _huart(huart),
 509              		.loc 2 19 7 is_stmt 1 view .LVU134
 510              	.LBB85:
  20:Lib/BufferedSerial/BufferedSerial.hpp ****             _rxBuf(new uint8_t[rxBufSize]),
 511              		.loc 2 20 13 is_stmt 0 view .LVU135
 512 00f8 1A4B     		ldr	r3, .L14+24
 513 00fa C4F81C31 		str	r3, [r4, #284]
  21:Lib/BufferedSerial/BufferedSerial.hpp ****             rxTop(0),
 514              		.loc 2 21 41 view .LVU136
 515 00fe 3046     		mov	r0, r6
 516 0100 FFF7FEFF 		bl	_Znaj
 517              	.LVL36:
  21:Lib/BufferedSerial/BufferedSerial.hpp ****             rxTop(0),
 518              		.loc 2 21 13 view .LVU137
 519 0104 C4F82001 		str	r0, [r4, #288]
  22:Lib/BufferedSerial/BufferedSerial.hpp ****             rxBtm(0),
 520              		.loc 2 22 13 view .LVU138
 521 0108 A4F82451 		strh	r5, [r4, #292]	@ movhi
  23:Lib/BufferedSerial/BufferedSerial.hpp ****             _rxBufSize(rxBufSize),
 522              		.loc 2 23 13 view .LVU139
 523 010c A4F82651 		strh	r5, [r4, #294]	@ movhi
  24:Lib/BufferedSerial/BufferedSerial.hpp ****             _useDMA(false) {
 524              		.loc 2 24 13 view .LVU140
 525 0110 A4F82861 		strh	r6, [r4, #296]	@ movhi
ARM GAS  /var/folders/5c/srt4fy4j1pd641bjfx75k5000000gn/T//cc4cHcMS.s 			page 13


  25:Lib/BufferedSerial/BufferedSerial.hpp ****       }
 526              		.loc 2 25 13 view .LVU141
 527 0114 84F82A51 		strb	r5, [r4, #298]
 528              	.LVL37:
  25:Lib/BufferedSerial/BufferedSerial.hpp ****       }
 529              		.loc 2 25 13 view .LVU142
 530              	.LBE85:
 531              	.LBE84:
 532              	.LBB86:
 533              	.LBI86:
 534              		.file 6 "Lib/MovingAve/MovingAve.hpp"
   1:Lib/MovingAve/MovingAve.hpp **** #ifndef __MOVING_AVE__
   2:Lib/MovingAve/MovingAve.hpp **** #define __MOVING_AVE__
   3:Lib/MovingAve/MovingAve.hpp **** 
   4:Lib/MovingAve/MovingAve.hpp **** #include "main.h"
   5:Lib/MovingAve/MovingAve.hpp **** 
   6:Lib/MovingAve/MovingAve.hpp **** class MovingAve {
 535              		.loc 6 6 7 is_stmt 1 view .LVU143
 536              	.LBB87:
 537 0118 0A23     		movs	r3, #10
 538 011a 84F85134 		strb	r3, [r4, #1105]
 539              	.LVL38:
 540              		.loc 6 6 7 is_stmt 0 view .LVU144
 541              	.LBE87:
 542              	.LBE86:
 543              		.loc 1 5 14 view .LVU145
 544 011e 04F13203 		add	r3, r4, #50
 545 0122 0293     		str	r3, [sp, #8]
 546 0124 04F13003 		add	r3, r4, #48
 547 0128 0193     		str	r3, [sp, #4]
 548 012a 04F1FC03 		add	r3, r4, #252
 549 012e 0093     		str	r3, [sp]
 550 0130 04F1EC03 		add	r3, r4, #236
 551 0134 04F1DC02 		add	r2, r4, #220
 552 0138 04F1CC01 		add	r1, r4, #204
 553 013c 04F58B60 		add	r0, r4, #1112
 554 0140 FFF7FEFF 		bl	_ZN10MotorDriveC1EP12PwmSingleOutS1_S1_S1_PtS2_
 555              	.LVL39:
 556              	.LBE57:
   6:src/unit/robot.cpp **** }
 557              		.loc 1 6 1 view .LVU146
 558 0144 2046     		mov	r0, r4
 559 0146 05B0     		add	sp, sp, #20
 560              	.LCFI5:
 561              		.cfi_def_cfa_offset 20
 562              		@ sp needed
 563 0148 F0BD     		pop	{r4, r5, r6, r7, pc}
 564              	.LVL40:
 565              	.L15:
 566              		.loc 1 6 1 view .LVU147
 567 014a 00BF     		.align	2
 568              	.L14:
 569 014c 000C0240 		.word	1073875968
 570 0150 00040240 		.word	1073873920
 571 0154 00080240 		.word	1073874944
 572 0158 00000000 		.word	htim3
 573 015c 00000000 		.word	htim2
ARM GAS  /var/folders/5c/srt4fy4j1pd641bjfx75k5000000gn/T//cc4cHcMS.s 			page 14


 574 0160 00000000 		.word	htim1
 575 0164 00000000 		.word	huart6
 576              		.cfi_endproc
 577              	.LFE279:
 578              		.fnend
 580              		.global	_ZN5RobotC1Ev
 581              		.thumb_set _ZN5RobotC1Ev,_ZN5RobotC2Ev
 582              		.section	.rodata._ZN5Robot12hardwareInitEv.str1.4,"aMS",%progbits,1
 583              		.align	2
 584              	.LC2:
 585 0000 48656C6C 		.ascii	"Hello World\000"
 585      6F20576F 
 585      726C6400 
 586              		.align	2
 587              	.LC3:
 588 000c 53797374 		.ascii	"SystemCoreClock = %ld\012\000"
 588      656D436F 
 588      7265436C 
 588      6F636B20 
 588      3D20256C 
 589 0023 00       		.align	2
 590              	.LC4:
 591 0024 4144435F 		.ascii	"ADC_DMA start\000"
 591      444D4120 
 591      73746172 
 591      7400
 592              		.section	.text._ZN5Robot12hardwareInitEv,"ax",%progbits
 593              		.align	1
 594              		.global	_ZN5Robot12hardwareInitEv
 595              		.syntax unified
 596              		.thumb
 597              		.thumb_func
 599              	_ZN5Robot12hardwareInitEv:
 600              		.fnstart
 601              	.LVL41:
 602              	.LFB281:
   7:src/unit/robot.cpp **** 
   8:src/unit/robot.cpp **** void Robot::hardwareInit() {
 603              		.loc 1 8 28 is_stmt 1 view -0
 604              		.cfi_startproc
 605              		@ args = 0, pretend = 0, frame = 0
 606              		@ frame_needed = 0, uses_anonymous_args = 0
 607              		.loc 1 8 28 is_stmt 0 view .LVU149
 608 0000 38B5     		push	{r3, r4, r5, lr}
 609              		.save {r3, r4, r5, lr}
 610              	.LCFI6:
 611              		.cfi_def_cfa_offset 16
 612              		.cfi_offset 3, -16
 613              		.cfi_offset 4, -12
 614              		.cfi_offset 5, -8
 615              		.cfi_offset 14, -4
 616 0002 0446     		mov	r4, r0
   9:src/unit/robot.cpp ****       printf("Hello World\n");
 617              		.loc 1 9 7 is_stmt 1 view .LVU150
 618              		.loc 1 9 13 is_stmt 0 view .LVU151
 619 0004 2448     		ldr	r0, .L20
 620              	.LVL42:
ARM GAS  /var/folders/5c/srt4fy4j1pd641bjfx75k5000000gn/T//cc4cHcMS.s 			page 15


 621              		.loc 1 9 13 view .LVU152
 622 0006 FFF7FEFF 		bl	puts
 623              	.LVL43:
  10:src/unit/robot.cpp ****       printf("SystemCoreClock = %ld\n", SystemCoreClock);
 624              		.loc 1 10 7 is_stmt 1 view .LVU153
 625              		.loc 1 10 13 is_stmt 0 view .LVU154
 626 000a 244B     		ldr	r3, .L20+4
 627 000c 1968     		ldr	r1, [r3]
 628 000e 2448     		ldr	r0, .L20+8
 629 0010 FFF7FEFF 		bl	printf
 630              	.LVL44:
  11:src/unit/robot.cpp **** 
  12:src/unit/robot.cpp ****       HAL_ADC_Start(&hadc1);
 631              		.loc 1 12 7 is_stmt 1 view .LVU155
 632              		.loc 1 12 20 is_stmt 0 view .LVU156
 633 0014 234D     		ldr	r5, .L20+12
 634 0016 2846     		mov	r0, r5
 635 0018 FFF7FEFF 		bl	HAL_ADC_Start
 636              	.LVL45:
  13:src/unit/robot.cpp ****       HAL_ADC_Start_DMA(&hadc1, (uint32_t *)&adc_get_val, 14);
 637              		.loc 1 13 7 is_stmt 1 view .LVU157
 638              		.loc 1 13 24 is_stmt 0 view .LVU158
 639 001c 0E22     		movs	r2, #14
 640 001e 2249     		ldr	r1, .L20+16
 641 0020 2846     		mov	r0, r5
 642 0022 FFF7FEFF 		bl	HAL_ADC_Start_DMA
 643              	.LVL46:
  14:src/unit/robot.cpp ****       for (uint8_t i = 0; i < LINE_QTY; i++) {
 644              		.loc 1 14 7 is_stmt 1 view .LVU159
 645              	.LBB88:
 646              		.loc 1 14 20 is_stmt 0 view .LVU160
 647 0026 0022     		movs	r2, #0
 648              		.loc 1 14 7 view .LVU161
 649 0028 06E0     		b	.L17
 650              	.LVL47:
 651              	.L18:
  15:src/unit/robot.cpp ****             while (!(adc_get_val[i] > 0));
 652              		.loc 1 15 20 is_stmt 1 discriminator 1 view .LVU162
 653              		.loc 1 15 35 is_stmt 0 discriminator 1 view .LVU163
 654 002a 1F4B     		ldr	r3, .L20+16
 655 002c 33F81230 		ldrh	r3, [r3, r2, lsl #1]
 656              		.loc 1 15 20 discriminator 1 view .LVU164
 657 0030 002B     		cmp	r3, #0
 658 0032 FAD0     		beq	.L18
  14:src/unit/robot.cpp ****       for (uint8_t i = 0; i < LINE_QTY; i++) {
 659              		.loc 1 14 7 is_stmt 1 discriminator 2 view .LVU165
 660 0034 0132     		adds	r2, r2, #1
 661              	.LVL48:
  14:src/unit/robot.cpp ****       for (uint8_t i = 0; i < LINE_QTY; i++) {
 662              		.loc 1 14 7 is_stmt 0 discriminator 2 view .LVU166
 663 0036 D2B2     		uxtb	r2, r2
 664              	.LVL49:
 665              	.L17:
  14:src/unit/robot.cpp ****       for (uint8_t i = 0; i < LINE_QTY; i++) {
 666              		.loc 1 14 29 is_stmt 1 discriminator 1 view .LVU167
 667 0038 092A     		cmp	r2, #9
 668 003a F6D9     		bls	.L18
ARM GAS  /var/folders/5c/srt4fy4j1pd641bjfx75k5000000gn/T//cc4cHcMS.s 			page 16


 669              	.LBE88:
  16:src/unit/robot.cpp ****       }
  17:src/unit/robot.cpp ****       printf("ADC_DMA start\n");
 670              		.loc 1 17 7 view .LVU168
 671              		.loc 1 17 13 is_stmt 0 view .LVU169
 672 003c 1B48     		ldr	r0, .L20+20
 673 003e FFF7FEFF 		bl	puts
 674              	.LVL50:
  18:src/unit/robot.cpp ****       aveLinePosition.SetLength(10);
 675              		.loc 1 18 7 is_stmt 1 view .LVU170
 676              		.loc 1 18 32 is_stmt 0 view .LVU171
 677 0042 0A21     		movs	r1, #10
 678 0044 04F59870 		add	r0, r4, #304
 679 0048 FFF7FEFF 		bl	_ZN9MovingAve9SetLengthEh
 680              	.LVL51:
  19:src/unit/robot.cpp **** 
  20:src/unit/robot.cpp ****       // è«¸ã€…ã®åˆæœŸåŒ–
  21:src/unit/robot.cpp ****       fan.init();
 681              		.loc 1 21 7 is_stmt 1 view .LVU172
 682              		.loc 1 21 15 is_stmt 0 view .LVU173
 683 004c 04F19C00 		add	r0, r4, #156
 684 0050 FFF7FEFF 		bl	_ZN12PwmSingleOut4initEv
 685              	.LVL52:
  22:src/unit/robot.cpp ****       ledH.init();
 686              		.loc 1 22 7 is_stmt 1 view .LVU174
 687              		.loc 1 22 16 is_stmt 0 view .LVU175
 688 0054 04F1AC00 		add	r0, r4, #172
 689 0058 FFF7FEFF 		bl	_ZN12PwmSingleOut4initEv
 690              	.LVL53:
  23:src/unit/robot.cpp ****       lineLed.init();
 691              		.loc 1 23 7 is_stmt 1 view .LVU176
 692              		.loc 1 23 19 is_stmt 0 view .LVU177
 693 005c 04F1BC00 		add	r0, r4, #188
 694 0060 FFF7FEFF 		bl	_ZN12PwmSingleOut4initEv
 695              	.LVL54:
  24:src/unit/robot.cpp ****       motor1a.init();
 696              		.loc 1 24 7 is_stmt 1 view .LVU178
 697              		.loc 1 24 19 is_stmt 0 view .LVU179
 698 0064 04F1CC00 		add	r0, r4, #204
 699 0068 FFF7FEFF 		bl	_ZN12PwmSingleOut4initEv
 700              	.LVL55:
  25:src/unit/robot.cpp ****       motor1b.init();
 701              		.loc 1 25 7 is_stmt 1 view .LVU180
 702              		.loc 1 25 19 is_stmt 0 view .LVU181
 703 006c 04F1DC00 		add	r0, r4, #220
 704 0070 FFF7FEFF 		bl	_ZN12PwmSingleOut4initEv
 705              	.LVL56:
  26:src/unit/robot.cpp ****       motor2a.init();
 706              		.loc 1 26 7 is_stmt 1 view .LVU182
 707              		.loc 1 26 19 is_stmt 0 view .LVU183
 708 0074 04F1EC00 		add	r0, r4, #236
 709 0078 FFF7FEFF 		bl	_ZN12PwmSingleOut4initEv
 710              	.LVL57:
  27:src/unit/robot.cpp ****       motor2b.init();
 711              		.loc 1 27 7 is_stmt 1 view .LVU184
 712              		.loc 1 27 19 is_stmt 0 view .LVU185
 713 007c 04F1FC00 		add	r0, r4, #252
ARM GAS  /var/folders/5c/srt4fy4j1pd641bjfx75k5000000gn/T//cc4cHcMS.s 			page 17


 714 0080 FFF7FEFF 		bl	_ZN12PwmSingleOut4initEv
 715              	.LVL58:
  28:src/unit/robot.cpp ****       buzzer.init();
 716              		.loc 1 28 7 is_stmt 1 view .LVU186
 717              		.loc 1 28 18 is_stmt 0 view .LVU187
 718 0084 04F58670 		add	r0, r4, #268
 719 0088 FFF7FEFF 		bl	_ZN6Buzzer4initEv
 720              	.LVL59:
  29:src/unit/robot.cpp ****       serial6.init();
 721              		.loc 1 29 7 is_stmt 1 view .LVU188
 722              		.loc 1 29 19 is_stmt 0 view .LVU189
 723 008c 0021     		movs	r1, #0
 724 008e 04F58E70 		add	r0, r4, #284
 725 0092 FFF7FEFF 		bl	_ZN14BufferedSerial4initEb
 726              	.LVL60:
  30:src/unit/robot.cpp **** }
 727              		.loc 1 30 1 view .LVU190
 728 0096 38BD     		pop	{r3, r4, r5, pc}
 729              	.LVL61:
 730              	.L21:
 731              		.loc 1 30 1 view .LVU191
 732              		.align	2
 733              	.L20:
 734 0098 00000000 		.word	.LC2
 735 009c 00000000 		.word	SystemCoreClock
 736 00a0 0C000000 		.word	.LC3
 737 00a4 00000000 		.word	hadc1
 738 00a8 00000000 		.word	adc_get_val
 739 00ac 24000000 		.word	.LC4
 740              		.cfi_endproc
 741              	.LFE281:
 742              		.fnend
 744              		.global	__aeabi_f2d
 745              		.global	__aeabi_dadd
 746              		.section	.text._ZN5Robot11LineComputeEv,"ax",%progbits
 747              		.align	1
 748              		.global	_ZN5Robot11LineComputeEv
 749              		.syntax unified
 750              		.thumb
 751              		.thumb_func
 753              	_ZN5Robot11LineComputeEv:
 754              		.fnstart
 755              	.LVL62:
 756              	.LFB283:
  31:src/unit/robot.cpp **** 
  32:src/unit/robot.cpp **** void Robot::getSensors() {
  33:src/unit/robot.cpp ****       line.val[0] = adc_get_val[13];
  34:src/unit/robot.cpp ****       line.val[1] = adc_get_val[12];
  35:src/unit/robot.cpp ****       line.val[2] = adc_get_val[11];
  36:src/unit/robot.cpp ****       line.val[3] = adc_get_val[10];
  37:src/unit/robot.cpp ****       line.val[4] = adc_get_val[9];
  38:src/unit/robot.cpp ****       line.val[5] = adc_get_val[8];
  39:src/unit/robot.cpp ****       line.val[6] = adc_get_val[7];
  40:src/unit/robot.cpp ****       line.val[7] = adc_get_val[6];
  41:src/unit/robot.cpp ****       line.val[8] = adc_get_val[5];
  42:src/unit/robot.cpp ****       line.val[9] = adc_get_val[4];
  43:src/unit/robot.cpp **** 
ARM GAS  /var/folders/5c/srt4fy4j1pd641bjfx75k5000000gn/T//cc4cHcMS.s 			page 18


  44:src/unit/robot.cpp ****       encoder_val_left = adc_get_val[0];
  45:src/unit/robot.cpp ****       encoder_val_right = adc_get_val[1];
  46:src/unit/robot.cpp ****       line.left_val = adc_get_val[3];
  47:src/unit/robot.cpp ****       line.right_val = adc_get_val[2];
  48:src/unit/robot.cpp ****       LineCompute();
  49:src/unit/robot.cpp **** 
  50:src/unit/robot.cpp ****       static const uint8_t HEADER = 0xFF;   // ãƒ˜ãƒƒãƒ€
  51:src/unit/robot.cpp ****       static const uint8_t dataSize = 2;    // ãƒ‡ãƒ¼ã‚¿ã®ã‚µã‚¤ã‚º
  52:src/unit/robot.cpp ****       static bool headerReceived = false;   // ãƒ˜ãƒƒãƒ€ã‚’å—ä¿¡ã—ãŸã‹ã©ã†ã‹
  53:src/unit/robot.cpp ****       static uint8_t index = 0;             // å—ä¿¡ã—ãŸãƒ‡ãƒ¼ã‚¿ã®ã‚¤ãƒ³ãƒ‡ãƒƒã‚¯ã‚¹ã‚«ã‚¦ãƒ³ã
  54:src/unit/robot.cpp ****       static uint8_t data[dataSize] = {0};  // å—ä¿¡ã—ãŸãƒ‡ãƒ¼ã‚¿
  55:src/unit/robot.cpp **** 
  56:src/unit/robot.cpp ****       if (serial6.available()) {
  57:src/unit/robot.cpp ****             // 1ãƒã‚¤ãƒˆèª­ã¿è¾¼ã¿
  58:src/unit/robot.cpp ****             uint8_t receivedByte = serial6.read();
  59:src/unit/robot.cpp ****             // printf("received %d\n ", receivedByte);
  60:src/unit/robot.cpp **** 
  61:src/unit/robot.cpp ****             if (!headerReceived) {
  62:src/unit/robot.cpp ****                   index = 0;
  63:src/unit/robot.cpp ****                   if (receivedByte == HEADER) {
  64:src/unit/robot.cpp ****                         // ãƒ˜ãƒƒãƒ€ã‚’å—ä¿¡ã—ãŸã‚‰ãƒ‡ãƒ¼ã‚¿ã®å—ä¿¡ã‚’é–‹å§‹
  65:src/unit/robot.cpp ****                         headerReceived = true;  // ãƒ˜ãƒƒãƒ€ã‚’å—ä¿¡ã—ãŸãƒ•ãƒ©ã‚°ã‚’ç«‹ã¦ã‚‹
  66:src/unit/robot.cpp ****                                                 // printf("header received %d\n ", receivedByte);
  67:src/unit/robot.cpp ****                   } else {
  68:src/unit/robot.cpp ****                         headerReceived = false;  // ãƒ˜ãƒƒãƒ€ã§ã¯ãªã„ã®ã§ãƒ•ãƒ©ã‚°ã‚’ãƒªã‚»ãƒ
  69:src/unit/robot.cpp ****                                                  // printf("error: Header is not received %d\n", re
  70:src/unit/robot.cpp ****                   }
  71:src/unit/robot.cpp ****             } else {  // ãƒ˜ãƒƒãƒ€ã‚’å—ä¿¡ã—ãŸå¾Œã®å‡¦ç†
  72:src/unit/robot.cpp ****                   if (index < dataSize) {
  73:src/unit/robot.cpp ****                         // ãƒ‡ãƒ¼ã‚¿å—ä¿¡
  74:src/unit/robot.cpp ****                         data[index] = receivedByte;
  75:src/unit/robot.cpp ****                         // printf("data[%d]: %d\n", index, data[index]);
  76:src/unit/robot.cpp ****                         index++;
  77:src/unit/robot.cpp **** 
  78:src/unit/robot.cpp ****                         if (index == dataSize) {
  79:src/unit/robot.cpp ****                               // ãƒ‡ãƒ¼ã‚¿å—ä¿¡å®Œäº†
  80:src/unit/robot.cpp ****                               yaw = data[0] * 2 - 180;
  81:src/unit/robot.cpp ****                               int a = data[1];
  82:src/unit/robot.cpp **** 
  83:src/unit/robot.cpp ****                               headerReceived = false;  // æ¬¡ã®ãƒ˜ãƒƒãƒ€ã‚’å¾…ã¤æº–å‚™ã‚’ã™ã‚‹
  84:src/unit/robot.cpp ****                               index = 0;               // ã‚¤ãƒ³ãƒ‡ãƒƒã‚¯ã‚¹ã‚’ãƒªã‚»ãƒƒãƒˆ
  85:src/unit/robot.cpp ****                         }
  86:src/unit/robot.cpp ****                   }
  87:src/unit/robot.cpp ****             }
  88:src/unit/robot.cpp ****             printf("yaw = %d\n", yaw);
  89:src/unit/robot.cpp ****       }
  90:src/unit/robot.cpp **** }
  91:src/unit/robot.cpp **** 
  92:src/unit/robot.cpp **** void Robot::LineCompute() {
 757              		.loc 1 92 27 is_stmt 1 view -0
 758              		.cfi_startproc
 759              		@ args = 0, pretend = 0, frame = 80
 760              		@ frame_needed = 0, uses_anonymous_args = 0
 761              		.loc 1 92 27 is_stmt 0 view .LVU193
 762 0000 F0B5     		push	{r4, r5, r6, r7, lr}
 763              		.save {r4, r5, r6, r7, lr}
 764              	.LCFI7:
ARM GAS  /var/folders/5c/srt4fy4j1pd641bjfx75k5000000gn/T//cc4cHcMS.s 			page 19


 765              		.cfi_def_cfa_offset 20
 766              		.cfi_offset 4, -20
 767              		.cfi_offset 5, -16
 768              		.cfi_offset 6, -12
 769              		.cfi_offset 7, -8
 770              		.cfi_offset 14, -4
 771              		.pad #84
 772 0002 95B0     		sub	sp, sp, #84
 773              	.LCFI8:
 774              		.cfi_def_cfa_offset 104
 775 0004 0546     		mov	r5, r0
 776 0006 0024     		movs	r4, #0
  93:src/unit/robot.cpp ****       float lineVectorX[LINE_QTY] = {-45, -35, -25, -15, -5, 5, 15, 25, 35, 45};
 777              		.loc 1 93 7 is_stmt 1 view .LVU194
 778              		.loc 1 93 13 is_stmt 0 view .LVU195
 779 0008 0AAE     		add	r6, sp, #40
 780 000a 5E4F     		ldr	r7, .L47
 781 000c 0FCF     		ldmia	r7!, {r0, r1, r2, r3}
 782              	.LVL63:
 783              		.loc 1 93 13 view .LVU196
 784 000e 0FC6     		stmia	r6!, {r0, r1, r2, r3}
 785 0010 0FCF     		ldmia	r7!, {r0, r1, r2, r3}
 786 0012 0FC6     		stmia	r6!, {r0, r1, r2, r3}
 787 0014 97E80300 		ldm	r7, {r0, r1}
 788 0018 86E80300 		stm	r6, {r0, r1}
  94:src/unit/robot.cpp **** #ifdef WHITE_LINE
  95:src/unit/robot.cpp ****       uint16_t min_val = 65535;
  96:src/unit/robot.cpp ****       uint8_t min_val_num;
  97:src/unit/robot.cpp ****       for (uint8_t i = 0; i < 10; i++) {
  98:src/unit/robot.cpp ****             if (min_val > line.val[i]) {
  99:src/unit/robot.cpp ****                   min_val = line.val[i];
 100:src/unit/robot.cpp ****                   min_val_num = i;
 101:src/unit/robot.cpp ****             }
 102:src/unit/robot.cpp ****       }
 103:src/unit/robot.cpp ****       uint32_t sum = 0;
 104:src/unit/robot.cpp ****       float val[10];
 105:src/unit/robot.cpp ****       for (uint8_t i = 0; i < LINE_QTY; i++) {
 106:src/unit/robot.cpp ****             val[i] = line.val[i];
 107:src/unit/robot.cpp ****             if (abs(min_val_num - i) > 2) val[i] = 0;
 108:src/unit/robot.cpp ****       }
 109:src/unit/robot.cpp ****       uint16_t max_val = 0;
 110:src/unit/robot.cpp ****       for (uint8_t i = 0; i < LINE_QTY; i++) {
 111:src/unit/robot.cpp ****             if (max_val < val[i] && val[i] != 0) {
 112:src/unit/robot.cpp ****                   max_val = val[i];
 113:src/unit/robot.cpp ****             }
 114:src/unit/robot.cpp ****       }
 115:src/unit/robot.cpp ****       for (int8_t i = 0; i < LINE_QTY; i++) {
 116:src/unit/robot.cpp ****             if (val[i] != 0) val[i] = max_val - val[i];
 117:src/unit/robot.cpp ****             sum += val[i];
 118:src/unit/robot.cpp ****       }
 119:src/unit/robot.cpp **** #endif
 120:src/unit/robot.cpp **** #ifdef BLACK_LINE
 121:src/unit/robot.cpp ****       uint16_t max_val = 0;
 789              		.loc 1 121 7 is_stmt 1 view .LVU197
 790              	.LVL64:
 122:src/unit/robot.cpp ****       uint8_t max_val_num;
 791              		.loc 1 122 7 view .LVU198
ARM GAS  /var/folders/5c/srt4fy4j1pd641bjfx75k5000000gn/T//cc4cHcMS.s 			page 20


 123:src/unit/robot.cpp ****       for (uint8_t i = 0; i < 10; i++) {
 792              		.loc 1 123 7 view .LVU199
 793              	.LBB89:
 794              		.loc 1 123 20 is_stmt 0 view .LVU200
 795 001c 2346     		mov	r3, r4
 796              	.LBE89:
 121:src/unit/robot.cpp ****       uint8_t max_val_num;
 797              		.loc 1 121 16 view .LVU201
 798 001e 2146     		mov	r1, r4
 799              	.LBB90:
 800              		.loc 1 123 7 view .LVU202
 801 0020 01E0     		b	.L23
 802              	.LVL65:
 803              	.L24:
 804              		.loc 1 123 7 is_stmt 1 discriminator 2 view .LVU203
 805 0022 0133     		adds	r3, r3, #1
 806              	.LVL66:
 807              		.loc 1 123 7 is_stmt 0 discriminator 2 view .LVU204
 808 0024 DBB2     		uxtb	r3, r3
 809              	.LVL67:
 810              	.L23:
 811              		.loc 1 123 29 is_stmt 1 discriminator 1 view .LVU205
 812 0026 092B     		cmp	r3, #9
 813 0028 06D8     		bhi	.L43
 124:src/unit/robot.cpp ****             if (max_val < line.val[i]) {
 814              		.loc 1 124 13 view .LVU206
 815              		.loc 1 124 37 is_stmt 0 view .LVU207
 816 002a 35F81320 		ldrh	r2, [r5, r3, lsl #1]
 817              		.loc 1 124 13 view .LVU208
 818 002e 8A42     		cmp	r2, r1
 819 0030 F7D9     		bls	.L24
 125:src/unit/robot.cpp ****                   max_val = line.val[i];
 126:src/unit/robot.cpp ****                   max_val_num = i;
 820              		.loc 1 126 31 view .LVU209
 821 0032 1C46     		mov	r4, r3
 822              	.LVL68:
 125:src/unit/robot.cpp ****                   max_val = line.val[i];
 823              		.loc 1 125 27 view .LVU210
 824 0034 1146     		mov	r1, r2
 825              	.LVL69:
 125:src/unit/robot.cpp ****                   max_val = line.val[i];
 826              		.loc 1 125 27 view .LVU211
 827 0036 F4E7     		b	.L24
 828              	.LVL70:
 829              	.L43:
 125:src/unit/robot.cpp ****                   max_val = line.val[i];
 830              		.loc 1 125 27 view .LVU212
 831              	.LBE90:
 832              	.LBB91:
 127:src/unit/robot.cpp ****             }
 128:src/unit/robot.cpp ****       }
 129:src/unit/robot.cpp ****       uint32_t sum = 0;
 130:src/unit/robot.cpp ****       float val[10];
 131:src/unit/robot.cpp ****       for (uint8_t i = 0; i < LINE_QTY; i++) {
 833              		.loc 1 131 20 view .LVU213
 834 0038 0023     		movs	r3, #0
 835              	.LVL71:
ARM GAS  /var/folders/5c/srt4fy4j1pd641bjfx75k5000000gn/T//cc4cHcMS.s 			page 21


 836              		.loc 1 131 20 view .LVU214
 837 003a 01E0     		b	.L26
 838              	.LVL72:
 839              	.L27:
 840              		.loc 1 131 7 is_stmt 1 discriminator 2 view .LVU215
 841 003c 0133     		adds	r3, r3, #1
 842              	.LVL73:
 843              		.loc 1 131 7 is_stmt 0 discriminator 2 view .LVU216
 844 003e DBB2     		uxtb	r3, r3
 845              	.LVL74:
 846              	.L26:
 847              		.loc 1 131 29 is_stmt 1 discriminator 1 view .LVU217
 848 0040 092B     		cmp	r3, #9
 849 0042 17D8     		bhi	.L44
 132:src/unit/robot.cpp ****             val[i] = line.val[i];
 850              		.loc 1 132 13 view .LVU218
 851              		.loc 1 132 32 is_stmt 0 view .LVU219
 852 0044 35F81320 		ldrh	r2, [r5, r3, lsl #1]
 853 0048 07EE902A 		vmov	s15, r2	@ int
 854              		.loc 1 132 20 view .LVU220
 855 004c 14AA     		add	r2, sp, #80
 856 004e 02EB8302 		add	r2, r2, r3, lsl #2
 857 0052 F8EE677A 		vcvt.f32.u32	s15, s15
 858 0056 42ED147A 		vstr.32	s15, [r2, #-80]
 133:src/unit/robot.cpp ****             if (abs(max_val_num - i) > 2) val[i] = 0;
 859              		.loc 1 133 13 is_stmt 1 view .LVU221
 860              		.loc 1 133 17 is_stmt 0 view .LVU222
 861 005a E21A     		subs	r2, r4, r3
 862 005c 002A     		cmp	r2, #0
 863 005e B8BF     		it	lt
 864 0060 5242     		rsblt	r2, r2, #0
 865              		.loc 1 133 13 view .LVU223
 866 0062 022A     		cmp	r2, #2
 867 0064 EADD     		ble	.L27
 868              		.loc 1 133 43 is_stmt 1 discriminator 1 view .LVU224
 869              		.loc 1 133 50 is_stmt 0 discriminator 1 view .LVU225
 870 0066 0021     		movs	r1, #0
 871 0068 14AA     		add	r2, sp, #80
 872 006a 02EB8302 		add	r2, r2, r3, lsl #2
 873 006e 42F8501C 		str	r1, [r2, #-80]	@ float
 874 0072 E3E7     		b	.L27
 875              	.L44:
 876              		.loc 1 133 50 discriminator 1 view .LVU226
 877              	.LBE91:
 878              	.LBB92:
 134:src/unit/robot.cpp ****       }
 135:src/unit/robot.cpp ****       uint16_t min_val = 65535;
 136:src/unit/robot.cpp ****       for (uint8_t i = 0; i < LINE_QTY; i++) {
 879              		.loc 1 136 20 view .LVU227
 880 0074 0023     		movs	r3, #0
 881              	.LVL75:
 882              		.loc 1 136 20 view .LVU228
 883              	.LBE92:
 135:src/unit/robot.cpp ****       for (uint8_t i = 0; i < LINE_QTY; i++) {
 884              		.loc 1 135 16 view .LVU229
 885 0076 DFED446A 		vldr.32	s13, .L47+4	@ int
 886 007a 01E0     		b	.L29
ARM GAS  /var/folders/5c/srt4fy4j1pd641bjfx75k5000000gn/T//cc4cHcMS.s 			page 22


 887              	.LVL76:
 888              	.L30:
 889              	.LBB93:
 890              		.loc 1 136 7 is_stmt 1 discriminator 2 view .LVU230
 891 007c 0133     		adds	r3, r3, #1
 892              	.LVL77:
 893              		.loc 1 136 7 is_stmt 0 discriminator 2 view .LVU231
 894 007e DBB2     		uxtb	r3, r3
 895              	.LVL78:
 896              	.L29:
 897              		.loc 1 136 29 is_stmt 1 discriminator 1 view .LVU232
 898 0080 092B     		cmp	r3, #9
 899 0082 18D8     		bhi	.L45
 137:src/unit/robot.cpp ****             if (min_val > val[i] && val[i] != 0) {
 900              		.loc 1 137 13 view .LVU233
 901              		.loc 1 137 25 is_stmt 0 view .LVU234
 902 0084 F8EEE67A 		vcvt.f32.s32	s15, s13
 903              		.loc 1 137 32 view .LVU235
 904 0088 14AA     		add	r2, sp, #80
 905 008a 02EB8302 		add	r2, r2, r3, lsl #2
 906 008e 12ED147A 		vldr.32	s14, [r2, #-80]
 907              		.loc 1 137 13 view .LVU236
 908 0092 F4EEC77A 		vcmpe.f32	s15, s14
 909 0096 F1EE10FA 		vmrs	APSR_nzcv, FPSCR
 910 009a EFDD     		ble	.L30
 911              		.loc 1 137 34 discriminator 1 view .LVU237
 912 009c B5EE407A 		vcmp.f32	s14, #0
 913 00a0 F1EE10FA 		vmrs	APSR_nzcv, FPSCR
 914 00a4 EAD0     		beq	.L30
 138:src/unit/robot.cpp ****                   min_val = val[i];
 915              		.loc 1 138 19 is_stmt 1 view .LVU238
 916              		.loc 1 138 27 is_stmt 0 view .LVU239
 917 00a6 BCEEC77A 		vcvt.u32.f32	s14, s14
 918 00aa 17EE102A 		vmov	r2, s14	@ int
 919 00ae 92B2     		uxth	r2, r2
 920 00b0 06EE902A 		vmov	s13, r2	@ int
 921              	.LVL79:
 922              		.loc 1 138 27 view .LVU240
 923 00b4 E2E7     		b	.L30
 924              	.L45:
 925              		.loc 1 138 27 view .LVU241
 926              	.LBE93:
 927              	.LBB94:
 139:src/unit/robot.cpp ****             }
 140:src/unit/robot.cpp ****       }
 141:src/unit/robot.cpp ****       for (int8_t i = 0; i < LINE_QTY; i++) {
 928              		.loc 1 141 19 view .LVU242
 929 00b6 0023     		movs	r3, #0
 930              	.LVL80:
 931              		.loc 1 141 19 view .LVU243
 932              	.LBE94:
 129:src/unit/robot.cpp ****       float val[10];
 933              		.loc 1 129 16 view .LVU244
 934 00b8 07EE903A 		vmov	s15, r3	@ int
 935 00bc 0CE0     		b	.L33
 936              	.LVL81:
 937              	.L34:
ARM GAS  /var/folders/5c/srt4fy4j1pd641bjfx75k5000000gn/T//cc4cHcMS.s 			page 23


 938              	.LBB95:
 142:src/unit/robot.cpp ****             if (val[i] != 0) val[i] -= min_val;
 143:src/unit/robot.cpp ****             sum += val[i];
 939              		.loc 1 143 13 is_stmt 1 discriminator 2 view .LVU245
 940              		.loc 1 143 25 is_stmt 0 discriminator 2 view .LVU246
 941 00be 14A9     		add	r1, sp, #80
 942 00c0 01EB8202 		add	r2, r1, r2, lsl #2
 943 00c4 12ED147A 		vldr.32	s14, [r2, #-80]
 944              		.loc 1 143 17 discriminator 2 view .LVU247
 945 00c8 F8EE677A 		vcvt.f32.u32	s15, s15
 946              	.LVL82:
 947              		.loc 1 143 17 discriminator 2 view .LVU248
 948 00cc 77EE877A 		vadd.f32	s15, s15, s14
 949 00d0 FCEEE77A 		vcvt.u32.f32	s15, s15
 950              	.LVL83:
 141:src/unit/robot.cpp ****             if (val[i] != 0) val[i] -= min_val;
 951              		.loc 1 141 7 is_stmt 1 discriminator 2 view .LVU249
 952 00d4 0133     		adds	r3, r3, #1
 953              	.LVL84:
 141:src/unit/robot.cpp ****             if (val[i] != 0) val[i] -= min_val;
 954              		.loc 1 141 7 is_stmt 0 discriminator 2 view .LVU250
 955 00d6 5BB2     		sxtb	r3, r3
 956              	.LVL85:
 957              	.L33:
 141:src/unit/robot.cpp ****             if (val[i] != 0) val[i] -= min_val;
 958              		.loc 1 141 28 is_stmt 1 discriminator 1 view .LVU251
 959 00d8 092B     		cmp	r3, #9
 960 00da 14DC     		bgt	.L46
 142:src/unit/robot.cpp ****             if (val[i] != 0) val[i] -= min_val;
 961              		.loc 1 142 13 view .LVU252
 142:src/unit/robot.cpp ****             if (val[i] != 0) val[i] -= min_val;
 962              		.loc 1 142 21 is_stmt 0 view .LVU253
 963 00dc 1A46     		mov	r2, r3
 142:src/unit/robot.cpp ****             if (val[i] != 0) val[i] -= min_val;
 964              		.loc 1 142 22 view .LVU254
 965 00de 14A9     		add	r1, sp, #80
 966 00e0 01EB8301 		add	r1, r1, r3, lsl #2
 967 00e4 11ED147A 		vldr.32	s14, [r1, #-80]
 142:src/unit/robot.cpp ****             if (val[i] != 0) val[i] -= min_val;
 968              		.loc 1 142 13 view .LVU255
 969 00e8 B5EE407A 		vcmp.f32	s14, #0
 970 00ec F1EE10FA 		vmrs	APSR_nzcv, FPSCR
 971 00f0 E5D0     		beq	.L34
 142:src/unit/robot.cpp ****             if (val[i] != 0) val[i] -= min_val;
 972              		.loc 1 142 30 is_stmt 1 discriminator 1 view .LVU256
 142:src/unit/robot.cpp ****             if (val[i] != 0) val[i] -= min_val;
 973              		.loc 1 142 37 is_stmt 0 discriminator 1 view .LVU257
 974 00f2 14A9     		add	r1, sp, #80
 975 00f4 01EB8301 		add	r1, r1, r3, lsl #2
 976 00f8 B8EEE66A 		vcvt.f32.s32	s12, s13
 977 00fc 37EE467A 		vsub.f32	s14, s14, s12
 978 0100 01ED147A 		vstr.32	s14, [r1, #-80]
 979 0104 DBE7     		b	.L34
 980              	.L46:
 981              	.LBE95:
 982              	.LBB96:
 144:src/unit/robot.cpp ****       }
ARM GAS  /var/folders/5c/srt4fy4j1pd641bjfx75k5000000gn/T//cc4cHcMS.s 			page 24


 145:src/unit/robot.cpp **** #endif
 146:src/unit/robot.cpp ****       for (uint8_t i = 0; i < LINE_QTY; i++) {
 983              		.loc 1 146 20 view .LVU258
 984 0106 0023     		movs	r3, #0
 985              	.LVL86:
 986              		.loc 1 146 20 view .LVU259
 987 0108 10E0     		b	.L36
 988              	.LVL87:
 989              	.L37:
 147:src/unit/robot.cpp ****             val[i] *= (1.0f / sum);
 990              		.loc 1 147 13 is_stmt 1 discriminator 3 view .LVU260
 991              		.loc 1 147 18 is_stmt 0 discriminator 3 view .LVU261
 992 010a 14AA     		add	r2, sp, #80
 993 010c 02EB8302 		add	r2, r2, r3, lsl #2
 994 0110 12ED147A 		vldr.32	s14, [r2, #-80]
 995              		.loc 1 147 29 discriminator 3 view .LVU262
 996 0114 B8EE676A 		vcvt.f32.u32	s12, s15
 997 0118 F7EE005A 		vmov.f32	s11, #1.0e+0
 998 011c C5EE866A 		vdiv.f32	s13, s11, s12
 999              		.loc 1 147 20 discriminator 3 view .LVU263
 1000 0120 27EE267A 		vmul.f32	s14, s14, s13
 1001 0124 02ED147A 		vstr.32	s14, [r2, #-80]
 146:src/unit/robot.cpp ****             val[i] *= (1.0f / sum);
 1002              		.loc 1 146 7 is_stmt 1 discriminator 3 view .LVU264
 1003 0128 0133     		adds	r3, r3, #1
 1004              	.LVL88:
 146:src/unit/robot.cpp ****             val[i] *= (1.0f / sum);
 1005              		.loc 1 146 7 is_stmt 0 discriminator 3 view .LVU265
 1006 012a DBB2     		uxtb	r3, r3
 1007              	.LVL89:
 1008              	.L36:
 146:src/unit/robot.cpp ****             val[i] *= (1.0f / sum);
 1009              		.loc 1 146 29 is_stmt 1 discriminator 1 view .LVU266
 1010 012c 092B     		cmp	r3, #9
 1011 012e ECD9     		bls	.L37
 1012              	.LBE96:
 148:src/unit/robot.cpp ****       }
 149:src/unit/robot.cpp ****       line.position = 0;
 1013              		.loc 1 149 7 view .LVU267
 1014              		.loc 1 149 21 is_stmt 0 view .LVU268
 1015 0130 0022     		movs	r2, #0
 1016 0132 0023     		movs	r3, #0
 1017              	.LVL90:
 1018              		.loc 1 149 21 view .LVU269
 1019 0134 C5E90623 		strd	r2, [r5, #24]
 150:src/unit/robot.cpp ****       for (uint8_t i = 0; i < LINE_QTY; i++) {
 1020              		.loc 1 150 7 is_stmt 1 view .LVU270
 1021              	.LVL91:
 1022              	.LBB97:
 1023              		.loc 1 150 20 is_stmt 0 view .LVU271
 1024 0138 0024     		movs	r4, #0
 1025              	.LVL92:
 1026              		.loc 1 150 7 view .LVU272
 1027 013a 18E0     		b	.L38
 1028              	.LVL93:
 1029              	.L39:
 151:src/unit/robot.cpp ****             line.position += val[i] * lineVectorX[i];
ARM GAS  /var/folders/5c/srt4fy4j1pd641bjfx75k5000000gn/T//cc4cHcMS.s 			page 25


 1030              		.loc 1 151 13 is_stmt 1 discriminator 3 view .LVU273
 1031              		.loc 1 151 18 is_stmt 0 discriminator 3 view .LVU274
 1032 013c D5E90667 		ldrd	r6, [r5, #24]
 1033              		.loc 1 151 35 discriminator 3 view .LVU275
 1034 0140 14AB     		add	r3, sp, #80
 1035 0142 03EB8403 		add	r3, r3, r4, lsl #2
 1036 0146 13ED147A 		vldr.32	s14, [r3, #-80]
 1037              		.loc 1 151 52 discriminator 3 view .LVU276
 1038 014a 53ED0A7A 		vldr.32	s15, [r3, #-40]
 1039              		.loc 1 151 37 discriminator 3 view .LVU277
 1040 014e 67EE277A 		vmul.f32	s15, s14, s15
 1041 0152 17EE900A 		vmov	r0, s15
 1042 0156 FFF7FEFF 		bl	__aeabi_f2d
 1043              	.LVL94:
 1044 015a 0246     		mov	r2, r0
 1045 015c 0B46     		mov	r3, r1
 1046              		.loc 1 151 27 discriminator 3 view .LVU278
 1047 015e 3046     		mov	r0, r6
 1048 0160 3946     		mov	r1, r7
 1049 0162 FFF7FEFF 		bl	__aeabi_dadd
 1050              	.LVL95:
 1051 0166 C5E90601 		strd	r0, [r5, #24]
 150:src/unit/robot.cpp ****       for (uint8_t i = 0; i < LINE_QTY; i++) {
 1052              		.loc 1 150 7 is_stmt 1 discriminator 3 view .LVU279
 1053 016a 0134     		adds	r4, r4, #1
 1054              	.LVL96:
 150:src/unit/robot.cpp ****       for (uint8_t i = 0; i < LINE_QTY; i++) {
 1055              		.loc 1 150 7 is_stmt 0 discriminator 3 view .LVU280
 1056 016c E4B2     		uxtb	r4, r4
 1057              	.LVL97:
 1058              	.L38:
 150:src/unit/robot.cpp ****       for (uint8_t i = 0; i < LINE_QTY; i++) {
 1059              		.loc 1 150 29 is_stmt 1 discriminator 1 view .LVU281
 1060 016e 092C     		cmp	r4, #9
 1061 0170 E4D9     		bls	.L39
 1062              	.LBE97:
 152:src/unit/robot.cpp ****       }
 153:src/unit/robot.cpp ****       aveLinePosition.Compute(&line.position);
 1063              		.loc 1 153 7 view .LVU282
 1064              		.loc 1 153 30 is_stmt 0 view .LVU283
 1065 0172 05F11801 		add	r1, r5, #24
 1066 0176 05F59870 		add	r0, r5, #304
 1067 017a FFF7FEFF 		bl	_ZN9MovingAve7ComputeEPd
 1068              	.LVL98:
 154:src/unit/robot.cpp **** }...
 1069              		.loc 1 154 1 view .LVU284
 1070 017e 15B0     		add	sp, sp, #84
 1071              	.LCFI9:
 1072              		.cfi_def_cfa_offset 20
 1073              		@ sp needed
 1074 0180 F0BD     		pop	{r4, r5, r6, r7, pc}
 1075              	.LVL99:
 1076              	.L48:
 1077              		.loc 1 154 1 view .LVU285
 1078 0182 00BF     		.align	2
 1079              	.L47:
 1080 0184 00000000 		.word	.LANCHOR0
ARM GAS  /var/folders/5c/srt4fy4j1pd641bjfx75k5000000gn/T//cc4cHcMS.s 			page 26


 1081 0188 FFFF0000 		.word	65535
 1082              		.cfi_endproc
 1083              	.LFE283:
 1084              		.fnend
 1086              		.section	.rodata._ZN5Robot10getSensorsEv.str1.4,"aMS",%progbits,1
 1087              		.align	2
 1088              	.LC5:
 1089 0000 79617720 		.ascii	"yaw = %d\012\000"
 1089      3D202564 
 1089      0A00
 1090              		.section	.text._ZN5Robot10getSensorsEv,"ax",%progbits
 1091              		.align	1
 1092              		.global	_ZN5Robot10getSensorsEv
 1093              		.syntax unified
 1094              		.thumb
 1095              		.thumb_func
 1097              	_ZN5Robot10getSensorsEv:
 1098              		.fnstart
 1099              	.LVL100:
 1100              	.LFB282:
  32:src/unit/robot.cpp **** void Robot::getSensors() {
 1101              		.loc 1 32 26 is_stmt 1 view -0
 1102              		.cfi_startproc
 1103              		@ args = 0, pretend = 0, frame = 0
 1104              		@ frame_needed = 0, uses_anonymous_args = 0
  32:src/unit/robot.cpp **** void Robot::getSensors() {
 1105              		.loc 1 32 26 is_stmt 0 view .LVU287
 1106 0000 10B5     		push	{r4, lr}
 1107              		.save {r4, lr}
 1108              	.LCFI10:
 1109              		.cfi_def_cfa_offset 8
 1110              		.cfi_offset 4, -8
 1111              		.cfi_offset 14, -4
 1112 0002 0446     		mov	r4, r0
  33:src/unit/robot.cpp ****       line.val[0] = adc_get_val[13];
 1113              		.loc 1 33 7 is_stmt 1 view .LVU288
  33:src/unit/robot.cpp ****       line.val[0] = adc_get_val[13];
 1114              		.loc 1 33 35 is_stmt 0 view .LVU289
 1115 0004 2E4B     		ldr	r3, .L57
 1116 0006 5A8B     		ldrh	r2, [r3, #26]
  33:src/unit/robot.cpp ****       line.val[0] = adc_get_val[13];
 1117              		.loc 1 33 19 view .LVU290
 1118 0008 0280     		strh	r2, [r0]	@ movhi
  34:src/unit/robot.cpp ****       line.val[1] = adc_get_val[12];
 1119              		.loc 1 34 7 is_stmt 1 view .LVU291
  34:src/unit/robot.cpp ****       line.val[1] = adc_get_val[12];
 1120              		.loc 1 34 35 is_stmt 0 view .LVU292
 1121 000a 1A8B     		ldrh	r2, [r3, #24]
  34:src/unit/robot.cpp ****       line.val[1] = adc_get_val[12];
 1122              		.loc 1 34 19 view .LVU293
 1123 000c 4280     		strh	r2, [r0, #2]	@ movhi
  35:src/unit/robot.cpp ****       line.val[2] = adc_get_val[11];
 1124              		.loc 1 35 7 is_stmt 1 view .LVU294
  35:src/unit/robot.cpp ****       line.val[2] = adc_get_val[11];
 1125              		.loc 1 35 35 is_stmt 0 view .LVU295
 1126 000e DA8A     		ldrh	r2, [r3, #22]
  35:src/unit/robot.cpp ****       line.val[2] = adc_get_val[11];
ARM GAS  /var/folders/5c/srt4fy4j1pd641bjfx75k5000000gn/T//cc4cHcMS.s 			page 27


 1127              		.loc 1 35 19 view .LVU296
 1128 0010 8280     		strh	r2, [r0, #4]	@ movhi
  36:src/unit/robot.cpp ****       line.val[3] = adc_get_val[10];
 1129              		.loc 1 36 7 is_stmt 1 view .LVU297
  36:src/unit/robot.cpp ****       line.val[3] = adc_get_val[10];
 1130              		.loc 1 36 35 is_stmt 0 view .LVU298
 1131 0012 9A8A     		ldrh	r2, [r3, #20]
  36:src/unit/robot.cpp ****       line.val[3] = adc_get_val[10];
 1132              		.loc 1 36 19 view .LVU299
 1133 0014 C280     		strh	r2, [r0, #6]	@ movhi
  37:src/unit/robot.cpp ****       line.val[4] = adc_get_val[9];
 1134              		.loc 1 37 7 is_stmt 1 view .LVU300
  37:src/unit/robot.cpp ****       line.val[4] = adc_get_val[9];
 1135              		.loc 1 37 34 is_stmt 0 view .LVU301
 1136 0016 5A8A     		ldrh	r2, [r3, #18]
  37:src/unit/robot.cpp ****       line.val[4] = adc_get_val[9];
 1137              		.loc 1 37 19 view .LVU302
 1138 0018 0281     		strh	r2, [r0, #8]	@ movhi
  38:src/unit/robot.cpp ****       line.val[5] = adc_get_val[8];
 1139              		.loc 1 38 7 is_stmt 1 view .LVU303
  38:src/unit/robot.cpp ****       line.val[5] = adc_get_val[8];
 1140              		.loc 1 38 34 is_stmt 0 view .LVU304
 1141 001a 1A8A     		ldrh	r2, [r3, #16]
  38:src/unit/robot.cpp ****       line.val[5] = adc_get_val[8];
 1142              		.loc 1 38 19 view .LVU305
 1143 001c 4281     		strh	r2, [r0, #10]	@ movhi
  39:src/unit/robot.cpp ****       line.val[6] = adc_get_val[7];
 1144              		.loc 1 39 7 is_stmt 1 view .LVU306
  39:src/unit/robot.cpp ****       line.val[6] = adc_get_val[7];
 1145              		.loc 1 39 34 is_stmt 0 view .LVU307
 1146 001e DA89     		ldrh	r2, [r3, #14]
  39:src/unit/robot.cpp ****       line.val[6] = adc_get_val[7];
 1147              		.loc 1 39 19 view .LVU308
 1148 0020 8281     		strh	r2, [r0, #12]	@ movhi
  40:src/unit/robot.cpp ****       line.val[7] = adc_get_val[6];
 1149              		.loc 1 40 7 is_stmt 1 view .LVU309
  40:src/unit/robot.cpp ****       line.val[7] = adc_get_val[6];
 1150              		.loc 1 40 34 is_stmt 0 view .LVU310
 1151 0022 9A89     		ldrh	r2, [r3, #12]
  40:src/unit/robot.cpp ****       line.val[7] = adc_get_val[6];
 1152              		.loc 1 40 19 view .LVU311
 1153 0024 C281     		strh	r2, [r0, #14]	@ movhi
  41:src/unit/robot.cpp ****       line.val[8] = adc_get_val[5];
 1154              		.loc 1 41 7 is_stmt 1 view .LVU312
  41:src/unit/robot.cpp ****       line.val[8] = adc_get_val[5];
 1155              		.loc 1 41 34 is_stmt 0 view .LVU313
 1156 0026 5A89     		ldrh	r2, [r3, #10]
  41:src/unit/robot.cpp ****       line.val[8] = adc_get_val[5];
 1157              		.loc 1 41 19 view .LVU314
 1158 0028 0282     		strh	r2, [r0, #16]	@ movhi
  42:src/unit/robot.cpp ****       line.val[9] = adc_get_val[4];
 1159              		.loc 1 42 7 is_stmt 1 view .LVU315
  42:src/unit/robot.cpp ****       line.val[9] = adc_get_val[4];
 1160              		.loc 1 42 34 is_stmt 0 view .LVU316
 1161 002a 1A89     		ldrh	r2, [r3, #8]
  42:src/unit/robot.cpp ****       line.val[9] = adc_get_val[4];
 1162              		.loc 1 42 19 view .LVU317
ARM GAS  /var/folders/5c/srt4fy4j1pd641bjfx75k5000000gn/T//cc4cHcMS.s 			page 28


 1163 002c 4282     		strh	r2, [r0, #18]	@ movhi
  44:src/unit/robot.cpp ****       encoder_val_left = adc_get_val[0];
 1164              		.loc 1 44 7 is_stmt 1 view .LVU318
  44:src/unit/robot.cpp ****       encoder_val_left = adc_get_val[0];
 1165              		.loc 1 44 39 is_stmt 0 view .LVU319
 1166 002e 1A88     		ldrh	r2, [r3]
  44:src/unit/robot.cpp ****       encoder_val_left = adc_get_val[0];
 1167              		.loc 1 44 24 view .LVU320
 1168 0030 0286     		strh	r2, [r0, #48]	@ movhi
  45:src/unit/robot.cpp ****       encoder_val_right = adc_get_val[1];
 1169              		.loc 1 45 7 is_stmt 1 view .LVU321
  45:src/unit/robot.cpp ****       encoder_val_right = adc_get_val[1];
 1170              		.loc 1 45 40 is_stmt 0 view .LVU322
 1171 0032 5A88     		ldrh	r2, [r3, #2]
  45:src/unit/robot.cpp ****       encoder_val_right = adc_get_val[1];
 1172              		.loc 1 45 25 view .LVU323
 1173 0034 4286     		strh	r2, [r0, #50]	@ movhi
  46:src/unit/robot.cpp ****       line.left_val = adc_get_val[3];
 1174              		.loc 1 46 7 is_stmt 1 view .LVU324
  46:src/unit/robot.cpp ****       line.left_val = adc_get_val[3];
 1175              		.loc 1 46 36 is_stmt 0 view .LVU325
 1176 0036 DA88     		ldrh	r2, [r3, #6]
  46:src/unit/robot.cpp ****       line.left_val = adc_get_val[3];
 1177              		.loc 1 46 21 view .LVU326
 1178 0038 0284     		strh	r2, [r0, #32]	@ movhi
  47:src/unit/robot.cpp ****       line.right_val = adc_get_val[2];
 1179              		.loc 1 47 7 is_stmt 1 view .LVU327
  47:src/unit/robot.cpp ****       line.right_val = adc_get_val[2];
 1180              		.loc 1 47 37 is_stmt 0 view .LVU328
 1181 003a 9B88     		ldrh	r3, [r3, #4]
  47:src/unit/robot.cpp ****       line.right_val = adc_get_val[2];
 1182              		.loc 1 47 22 view .LVU329
 1183 003c 4384     		strh	r3, [r0, #34]	@ movhi
  48:src/unit/robot.cpp ****       LineCompute();
 1184              		.loc 1 48 7 is_stmt 1 view .LVU330
  48:src/unit/robot.cpp ****       LineCompute();
 1185              		.loc 1 48 18 is_stmt 0 view .LVU331
 1186 003e FFF7FEFF 		bl	_ZN5Robot11LineComputeEv
 1187              	.LVL101:
  50:src/unit/robot.cpp ****       static const uint8_t HEADER = 0xFF;   // ãƒ˜ãƒƒãƒ€
 1188              		.loc 1 50 7 is_stmt 1 view .LVU332
  51:src/unit/robot.cpp ****       static const uint8_t dataSize = 2;    // ãƒ‡ãƒ¼ã‚¿ã®ã‚µã‚¤ã‚º
 1189              		.loc 1 51 7 view .LVU333
  52:src/unit/robot.cpp ****       static bool headerReceived = false;   // ãƒ˜ãƒƒãƒ€ã‚’å—ä¿¡ã—ãŸã‹ã©ã†ã‹
 1190              		.loc 1 52 7 view .LVU334
  53:src/unit/robot.cpp ****       static uint8_t index = 0;             // å—ä¿¡ã—ãŸãƒ‡ãƒ¼ã‚¿ã®ã‚¤ãƒ³ãƒ‡ãƒƒã‚¯ã‚¹ã‚«ã‚¦ãƒ³ã
 1191              		.loc 1 53 7 view .LVU335
  54:src/unit/robot.cpp ****       static uint8_t data[dataSize] = {0};  // å—ä¿¡ã—ãŸãƒ‡ãƒ¼ã‚¿
 1192              		.loc 1 54 7 view .LVU336
  56:src/unit/robot.cpp ****       if (serial6.available()) {
 1193              		.loc 1 56 7 view .LVU337
 1194              	.LBB98:
 1195              	.LBB99:
 1196              	.LBI99:
  33:Lib/BufferedSerial/BufferedSerial.hpp ****             uint16_t rxTop = _rxBufSize - _huart->hdmarx->Instance->NDTR;
 1197              		.loc 2 33 12 view .LVU338
 1198              	.LBB100:
ARM GAS  /var/folders/5c/srt4fy4j1pd641bjfx75k5000000gn/T//cc4cHcMS.s 			page 29


  34:Lib/BufferedSerial/BufferedSerial.hpp ****             return rxTop != rxBtm;
 1199              		.loc 2 34 13 view .LVU339
  34:Lib/BufferedSerial/BufferedSerial.hpp ****             return rxTop != rxBtm;
 1200              		.loc 2 34 30 is_stmt 0 view .LVU340
 1201 0042 B4F82831 		ldrh	r3, [r4, #296]
  34:Lib/BufferedSerial/BufferedSerial.hpp ****             return rxTop != rxBtm;
 1202              		.loc 2 34 43 view .LVU341
 1203 0046 D4F81C21 		ldr	r2, [r4, #284]
  34:Lib/BufferedSerial/BufferedSerial.hpp ****             return rxTop != rxBtm;
 1204              		.loc 2 34 51 view .LVU342
 1205 004a D26B     		ldr	r2, [r2, #60]
  34:Lib/BufferedSerial/BufferedSerial.hpp ****             return rxTop != rxBtm;
 1206              		.loc 2 34 59 view .LVU343
 1207 004c 1268     		ldr	r2, [r2]
  34:Lib/BufferedSerial/BufferedSerial.hpp ****             return rxTop != rxBtm;
 1208              		.loc 2 34 69 view .LVU344
 1209 004e 5268     		ldr	r2, [r2, #4]
  34:Lib/BufferedSerial/BufferedSerial.hpp ****             return rxTop != rxBtm;
 1210              		.loc 2 34 41 view .LVU345
 1211 0050 92B2     		uxth	r2, r2
  34:Lib/BufferedSerial/BufferedSerial.hpp ****             return rxTop != rxBtm;
 1212              		.loc 2 34 69 view .LVU346
 1213 0052 9B1A     		subs	r3, r3, r2
 1214 0054 9BB2     		uxth	r3, r3
 1215              	.LVL102:
  35:Lib/BufferedSerial/BufferedSerial.hpp ****       }
 1216              		.loc 2 35 13 is_stmt 1 view .LVU347
  35:Lib/BufferedSerial/BufferedSerial.hpp ****       }
 1217              		.loc 2 35 29 is_stmt 0 view .LVU348
 1218 0056 B4F82621 		ldrh	r2, [r4, #294]
 1219              	.LVL103:
  35:Lib/BufferedSerial/BufferedSerial.hpp ****       }
 1220              		.loc 2 35 29 view .LVU349
 1221              	.LBE100:
 1222              	.LBE99:
  56:src/unit/robot.cpp ****       if (serial6.available()) {
 1223              		.loc 1 56 7 view .LVU350
 1224 005a 9342     		cmp	r3, r2
 1225 005c 00D1     		bne	.L55
 1226              	.L49:
 1227              	.LBE98:
  90:src/unit/robot.cpp **** }
 1228              		.loc 1 90 1 view .LVU351
 1229 005e 10BD     		pop	{r4, pc}
 1230              	.LVL104:
 1231              	.L55:
 1232              	.LBB111:
 1233              	.LBB101:
  58:src/unit/robot.cpp ****             uint8_t receivedByte = serial6.read();
 1234              		.loc 1 58 13 is_stmt 1 view .LVU352
  58:src/unit/robot.cpp ****             uint8_t receivedByte = serial6.read();
 1235              		.loc 1 58 48 is_stmt 0 view .LVU353
 1236 0060 04F58E70 		add	r0, r4, #284
 1237 0064 FFF7FEFF 		bl	_ZN14BufferedSerial4readEv
 1238              	.LVL105:
  61:src/unit/robot.cpp ****             if (!headerReceived) {
 1239              		.loc 1 61 13 is_stmt 1 view .LVU354
ARM GAS  /var/folders/5c/srt4fy4j1pd641bjfx75k5000000gn/T//cc4cHcMS.s 			page 30


 1240              	.LBB102:
  61:src/unit/robot.cpp ****             if (!headerReceived) {
 1241              		.loc 1 61 17 is_stmt 0 view .LVU355
 1242 0068 164B     		ldr	r3, .L57+4
 1243 006a 1B78     		ldrb	r3, [r3]	@ zero_extendqisi2
  61:src/unit/robot.cpp ****             if (!headerReceived) {
 1244              		.loc 1 61 13 view .LVU356
 1245 006c 83B9     		cbnz	r3, .L51
  62:src/unit/robot.cpp ****                   index = 0;
 1246              		.loc 1 62 19 is_stmt 1 view .LVU357
  62:src/unit/robot.cpp ****                   index = 0;
 1247              		.loc 1 62 25 is_stmt 0 view .LVU358
 1248 006e 164B     		ldr	r3, .L57+8
 1249 0070 0022     		movs	r2, #0
 1250 0072 1A70     		strb	r2, [r3]
  63:src/unit/robot.cpp ****                   if (receivedByte == HEADER) {
 1251              		.loc 1 63 19 is_stmt 1 view .LVU359
 1252 0074 FF28     		cmp	r0, #255
 1253 0076 07D0     		beq	.L56
  68:src/unit/robot.cpp ****                         headerReceived = false;  // ãƒ˜ãƒƒãƒ€ã§ã¯ãªã„ã®ã§ãƒ•ãƒ©ã‚°ã‚’ãƒªã‚»ãƒ
 1254              		.loc 1 68 25 view .LVU360
  68:src/unit/robot.cpp ****                         headerReceived = false;  // ãƒ˜ãƒƒãƒ€ã§ã¯ãªã„ã®ã§ãƒ•ãƒ©ã‚°ã‚’ãƒªã‚»ãƒ
 1255              		.loc 1 68 40 is_stmt 0 view .LVU361
 1256 0078 124B     		ldr	r3, .L57+4
 1257 007a 0022     		movs	r2, #0
 1258 007c 1A70     		strb	r2, [r3]
 1259              	.L53:
 1260              	.LBE102:
  88:src/unit/robot.cpp ****             printf("yaw = %d\n", yaw);
 1261              		.loc 1 88 13 is_stmt 1 view .LVU362
  88:src/unit/robot.cpp ****             printf("yaw = %d\n", yaw);
 1262              		.loc 1 88 19 is_stmt 0 view .LVU363
 1263 007e 616B     		ldr	r1, [r4, #52]
 1264 0080 1248     		ldr	r0, .L57+12
 1265              	.LVL106:
  88:src/unit/robot.cpp ****             printf("yaw = %d\n", yaw);
 1266              		.loc 1 88 19 view .LVU364
 1267 0082 FFF7FEFF 		bl	printf
 1268              	.LVL107:
 1269              	.LBE101:
 1270              	.LBE111:
  90:src/unit/robot.cpp **** }
 1271              		.loc 1 90 1 view .LVU365
 1272 0086 EAE7     		b	.L49
 1273              	.LVL108:
 1274              	.L56:
 1275              	.LBB112:
 1276              	.LBB109:
 1277              	.LBB107:
  65:src/unit/robot.cpp ****                         headerReceived = true;  // ãƒ˜ãƒƒãƒ€ã‚’å—ä¿¡ã—ãŸãƒ•ãƒ©ã‚°ã‚’ç«‹ã¦ã‚‹
 1278              		.loc 1 65 25 is_stmt 1 view .LVU366
  65:src/unit/robot.cpp ****                         headerReceived = true;  // ãƒ˜ãƒƒãƒ€ã‚’å—ä¿¡ã—ãŸãƒ•ãƒ©ã‚°ã‚’ç«‹ã¦ã‚‹
 1279              		.loc 1 65 40 is_stmt 0 view .LVU367
 1280 0088 0E4B     		ldr	r3, .L57+4
 1281 008a 0122     		movs	r2, #1
 1282 008c 1A70     		strb	r2, [r3]
 1283 008e F6E7     		b	.L53
ARM GAS  /var/folders/5c/srt4fy4j1pd641bjfx75k5000000gn/T//cc4cHcMS.s 			page 31


 1284              	.L51:
 1285              	.LBE107:
 1286              	.LBE109:
 1287              	.LBE112:
  72:src/unit/robot.cpp ****                   if (index < dataSize) {
 1288              		.loc 1 72 19 is_stmt 1 view .LVU368
 1289              	.LBB113:
 1290              	.LBB110:
 1291              	.LBB108:
 1292              	.LBB103:
  72:src/unit/robot.cpp ****                   if (index < dataSize) {
 1293              		.loc 1 72 29 is_stmt 0 view .LVU369
 1294 0090 0D4B     		ldr	r3, .L57+8
 1295 0092 1B78     		ldrb	r3, [r3]	@ zero_extendqisi2
  72:src/unit/robot.cpp ****                   if (index < dataSize) {
 1296              		.loc 1 72 19 view .LVU370
 1297 0094 012B     		cmp	r3, #1
 1298 0096 F2D8     		bhi	.L53
 1299              	.LBB104:
  74:src/unit/robot.cpp ****                         data[index] = receivedByte;
 1300              		.loc 1 74 25 is_stmt 1 view .LVU371
  74:src/unit/robot.cpp ****                         data[index] = receivedByte;
 1301              		.loc 1 74 37 is_stmt 0 view .LVU372
 1302 0098 0D4A     		ldr	r2, .L57+16
 1303 009a D054     		strb	r0, [r2, r3]
  76:src/unit/robot.cpp ****                         index++;
 1304              		.loc 1 76 25 is_stmt 1 view .LVU373
  76:src/unit/robot.cpp ****                         index++;
 1305              		.loc 1 76 30 is_stmt 0 view .LVU374
 1306 009c 0133     		adds	r3, r3, #1
 1307 009e DBB2     		uxtb	r3, r3
 1308 00a0 094A     		ldr	r2, .L57+8
 1309 00a2 1370     		strb	r3, [r2]
  78:src/unit/robot.cpp ****                         if (index == dataSize) {
 1310              		.loc 1 78 25 is_stmt 1 view .LVU375
 1311              	.LBB105:
 1312 00a4 022B     		cmp	r3, #2
 1313 00a6 EAD1     		bne	.L53
 1314              	.LBB106:
  80:src/unit/robot.cpp ****                               yaw = data[0] * 2 - 180;
 1315              		.loc 1 80 31 view .LVU376
  80:src/unit/robot.cpp ****                               yaw = data[0] * 2 - 180;
 1316              		.loc 1 80 43 is_stmt 0 view .LVU377
 1317 00a8 094B     		ldr	r3, .L57+16
 1318 00aa 1B78     		ldrb	r3, [r3]	@ zero_extendqisi2
  80:src/unit/robot.cpp ****                               yaw = data[0] * 2 - 180;
 1319              		.loc 1 80 49 view .LVU378
 1320 00ac 5A3B     		subs	r3, r3, #90
 1321 00ae 5B00     		lsls	r3, r3, #1
  80:src/unit/robot.cpp ****                               yaw = data[0] * 2 - 180;
 1322              		.loc 1 80 35 view .LVU379
 1323 00b0 6363     		str	r3, [r4, #52]
  81:src/unit/robot.cpp ****                               int a = data[1];
 1324              		.loc 1 81 31 is_stmt 1 view .LVU380
 1325              	.LVL109:
  83:src/unit/robot.cpp ****                               headerReceived = false;  // æ¬¡ã®ãƒ˜ãƒƒãƒ€ã‚’å¾…ã¤æº–å‚™ã‚’ã™ã‚‹
 1326              		.loc 1 83 31 view .LVU381
ARM GAS  /var/folders/5c/srt4fy4j1pd641bjfx75k5000000gn/T//cc4cHcMS.s 			page 32


  83:src/unit/robot.cpp ****                               headerReceived = false;  // æ¬¡ã®ãƒ˜ãƒƒãƒ€ã‚’å¾…ã¤æº–å‚™ã‚’ã™ã‚‹
 1327              		.loc 1 83 46 is_stmt 0 view .LVU382
 1328 00b2 0023     		movs	r3, #0
 1329 00b4 034A     		ldr	r2, .L57+4
 1330 00b6 1370     		strb	r3, [r2]
  84:src/unit/robot.cpp ****                               index = 0;               // ã‚¤ãƒ³ãƒ‡ãƒƒã‚¯ã‚¹ã‚’ãƒªã‚»ãƒƒãƒˆ
 1331              		.loc 1 84 31 is_stmt 1 view .LVU383
  84:src/unit/robot.cpp ****                               index = 0;               // ã‚¤ãƒ³ãƒ‡ãƒƒã‚¯ã‚¹ã‚’ãƒªã‚»ãƒƒãƒˆ
 1332              		.loc 1 84 37 is_stmt 0 view .LVU384
 1333 00b8 034A     		ldr	r2, .L57+8
 1334 00ba 1370     		strb	r3, [r2]
 1335              	.LBE106:
 1336 00bc DFE7     		b	.L53
 1337              	.L58:
 1338 00be 00BF     		.align	2
 1339              	.L57:
 1340 00c0 00000000 		.word	adc_get_val
 1341 00c4 00000000 		.word	_ZZN5Robot10getSensorsEvE14headerReceived
 1342 00c8 00000000 		.word	_ZZN5Robot10getSensorsEvE5index
 1343 00cc 00000000 		.word	.LC5
 1344 00d0 00000000 		.word	_ZZN5Robot10getSensorsEvE4data
 1345              	.LBE105:
 1346              	.LBE104:
 1347              	.LBE103:
 1348              	.LBE108:
 1349              	.LBE110:
 1350              	.LBE113:
 1351              		.cfi_endproc
 1352              	.LFE282:
 1353              		.fnend
 1355              		.section	.bss._ZZN5Robot10getSensorsEvE4data,"aw",%nobits
 1356              		.align	2
 1359              	_ZZN5Robot10getSensorsEvE4data:
 1360 0000 0000     		.space	2
 1361              		.section	.bss._ZZN5Robot10getSensorsEvE5index,"aw",%nobits
 1364              	_ZZN5Robot10getSensorsEvE5index:
 1365 0000 00       		.space	1
 1366              		.section	.bss._ZZN5Robot10getSensorsEvE14headerReceived,"aw",%nobits
 1369              	_ZZN5Robot10getSensorsEvE14headerReceived:
 1370 0000 00       		.space	1
 1371              		.global	adc_get_val
 1372              		.section	.bss.adc_get_val,"aw",%nobits
 1373              		.align	2
 1376              	adc_get_val:
 1377 0000 00000000 		.space	28
 1377      00000000 
 1377      00000000 
 1377      00000000 
 1377      00000000 
 1378              		.section	.rodata
 1379              		.align	2
 1380              		.set	.LANCHOR0,. + 0
 1381              	.LC0:
 1382 0000 000034C2 		.word	-1036779520
 1383 0004 00000CC2 		.word	-1039400960
 1384 0008 0000C8C1 		.word	-1043857408
 1385 000c 000070C1 		.word	-1049624576
ARM GAS  /var/folders/5c/srt4fy4j1pd641bjfx75k5000000gn/T//cc4cHcMS.s 			page 33


 1386 0010 0000A0C0 		.word	-1063256064
 1387 0014 0000A040 		.word	1084227584
 1388 0018 00007041 		.word	1097859072
 1389 001c 0000C841 		.word	1103626240
 1390 0020 00000C42 		.word	1108082688
 1391 0024 00003442 		.word	1110704128
 1392              		.text
 1393              	.Letext0:
 1394              		.file 7 "/opt/ST/STM32CubeCLT_1.16.0/GNU-tools-for-STM32/arm-none-eabi/include/machine/_default_ty
 1395              		.file 8 "/opt/ST/STM32CubeCLT_1.16.0/GNU-tools-for-STM32/lib/gcc/arm-none-eabi/12.3.1/include/stdd
 1396              		.file 9 "/opt/ST/STM32CubeCLT_1.16.0/GNU-tools-for-STM32/arm-none-eabi/include/sys/_types.h"
 1397              		.file 10 "/opt/ST/STM32CubeCLT_1.16.0/GNU-tools-for-STM32/arm-none-eabi/include/sys/reent.h"
 1398              		.file 11 "/opt/ST/STM32CubeCLT_1.16.0/GNU-tools-for-STM32/arm-none-eabi/include/sys/lock.h"
 1399              		.file 12 "/opt/ST/STM32CubeCLT_1.16.0/GNU-tools-for-STM32/arm-none-eabi/include/stdio.h"
 1400              		.file 13 "/opt/ST/STM32CubeCLT_1.16.0/GNU-tools-for-STM32/arm-none-eabi/include/sys/_stdint.h"
 1401              		.file 14 "Drivers/CMSIS/Device/ST/STM32F4xx/Include/stm32f446xx.h"
 1402              		.file 15 "Drivers/CMSIS/Device/ST/STM32F4xx/Include/stm32f4xx.h"
 1403              		.file 16 "Drivers/STM32F4xx_HAL_Driver/Inc/stm32f4xx_hal_def.h"
 1404              		.file 17 "Drivers/STM32F4xx_HAL_Driver/Inc/stm32f4xx_hal_gpio.h"
 1405              		.file 18 "Drivers/STM32F4xx_HAL_Driver/Inc/stm32f4xx_hal_dma.h"
 1406              		.file 19 "Drivers/STM32F4xx_HAL_Driver/Inc/stm32f4xx_hal_adc.h"
 1407              		.file 20 "Drivers/STM32F4xx_HAL_Driver/Inc/stm32f4xx_hal_tim.h"
 1408              		.file 21 "Drivers/STM32F4xx_HAL_Driver/Inc/stm32f4xx_hal_uart.h"
 1409              		.file 22 "Drivers/STM32F4xx_HAL_Driver/Inc/stm32f4xx_hal.h"
 1410              		.file 23 "Drivers/CMSIS/Device/ST/STM32F4xx/Include/system_stm32f4xx.h"
 1411              		.file 24 "Core/Inc/usart.h"
 1412              		.file 25 "Lib/Timer/Timer.hpp"
 1413              		.file 26 "Lib/Button/Button.hpp"
 1414              		.file 27 "Core/Inc/tim.h"
 1415              		.file 28 "/opt/ST/STM32CubeCLT_1.16.0/GNU-tools-for-STM32/arm-none-eabi/include/c++/12.3.1/cstdio"
 1416              		.file 29 "/opt/ST/STM32CubeCLT_1.16.0/GNU-tools-for-STM32/arm-none-eabi/include/c++/12.3.1/arm-non
 1417              		.file 30 "Core/Inc/adc.h"
 1418              		.file 31 "src/unit/motor_drive.hpp"
 1419              		.file 32 "src/unit/robot.hpp"
ARM GAS  /var/folders/5c/srt4fy4j1pd641bjfx75k5000000gn/T//cc4cHcMS.s 			page 34


DEFINED SYMBOLS
                            *ABS*:00000000 robot.cpp
/var/folders/5c/srt4fy4j1pd641bjfx75k5000000gn/T//cc4cHcMS.s:21     .rodata._ZN14BufferedSerial4initEb.str1.4:00000000 $d
/var/folders/5c/srt4fy4j1pd641bjfx75k5000000gn/T//cc4cHcMS.s:25     .text._ZN14BufferedSerial4initEb:00000000 $t
/var/folders/5c/srt4fy4j1pd641bjfx75k5000000gn/T//cc4cHcMS.s:31     .text._ZN14BufferedSerial4initEb:00000000 _ZN14BufferedSerial4initEb
/var/folders/5c/srt4fy4j1pd641bjfx75k5000000gn/T//cc4cHcMS.s:71     .text._ZN14BufferedSerial4initEb:00000018 $d
.ARM.extab.text._ZN14BufferedSerial4initEb:00000000 $d
.ARM.exidx.text._ZN14BufferedSerial4initEb:00000000 $d
/var/folders/5c/srt4fy4j1pd641bjfx75k5000000gn/T//cc4cHcMS.s:77     .text._ZN14BufferedSerial4readEv:00000000 $t
/var/folders/5c/srt4fy4j1pd641bjfx75k5000000gn/T//cc4cHcMS.s:83     .text._ZN14BufferedSerial4readEv:00000000 _ZN14BufferedSerial4readEv
.ARM.exidx.text._ZN14BufferedSerial4readEv:00000000 $d
/var/folders/5c/srt4fy4j1pd641bjfx75k5000000gn/T//cc4cHcMS.s:148    .text._ZN6Buzzer4initEv:00000000 $t
/var/folders/5c/srt4fy4j1pd641bjfx75k5000000gn/T//cc4cHcMS.s:154    .text._ZN6Buzzer4initEv:00000000 _ZN6Buzzer4initEv
.ARM.exidx.text._ZN6Buzzer4initEv:00000000 $d
/var/folders/5c/srt4fy4j1pd641bjfx75k5000000gn/T//cc4cHcMS.s:194    .text._ZN12PwmSingleOut4initEv:00000000 $t
/var/folders/5c/srt4fy4j1pd641bjfx75k5000000gn/T//cc4cHcMS.s:200    .text._ZN12PwmSingleOut4initEv:00000000 _ZN12PwmSingleOut4initEv
.ARM.exidx.text._ZN12PwmSingleOut4initEv:00000000 $d
/var/folders/5c/srt4fy4j1pd641bjfx75k5000000gn/T//cc4cHcMS.s:240    .text._ZN5RobotC2Ev:00000000 $t
/var/folders/5c/srt4fy4j1pd641bjfx75k5000000gn/T//cc4cHcMS.s:246    .text._ZN5RobotC2Ev:00000000 _ZN5RobotC2Ev
/var/folders/5c/srt4fy4j1pd641bjfx75k5000000gn/T//cc4cHcMS.s:569    .text._ZN5RobotC2Ev:0000014c $d
    .ARM.exidx.text._ZN5RobotC2Ev:00000000 $d
/var/folders/5c/srt4fy4j1pd641bjfx75k5000000gn/T//cc4cHcMS.s:246    .text._ZN5RobotC2Ev:00000000 _ZN5RobotC1Ev
/var/folders/5c/srt4fy4j1pd641bjfx75k5000000gn/T//cc4cHcMS.s:583    .rodata._ZN5Robot12hardwareInitEv.str1.4:00000000 $d
/var/folders/5c/srt4fy4j1pd641bjfx75k5000000gn/T//cc4cHcMS.s:593    .text._ZN5Robot12hardwareInitEv:00000000 $t
/var/folders/5c/srt4fy4j1pd641bjfx75k5000000gn/T//cc4cHcMS.s:599    .text._ZN5Robot12hardwareInitEv:00000000 _ZN5Robot12hardwareInitEv
/var/folders/5c/srt4fy4j1pd641bjfx75k5000000gn/T//cc4cHcMS.s:734    .text._ZN5Robot12hardwareInitEv:00000098 $d
/var/folders/5c/srt4fy4j1pd641bjfx75k5000000gn/T//cc4cHcMS.s:1376   .bss.adc_get_val:00000000 adc_get_val
.ARM.exidx.text._ZN5Robot12hardwareInitEv:00000000 $d
/var/folders/5c/srt4fy4j1pd641bjfx75k5000000gn/T//cc4cHcMS.s:747    .text._ZN5Robot11LineComputeEv:00000000 $t
/var/folders/5c/srt4fy4j1pd641bjfx75k5000000gn/T//cc4cHcMS.s:753    .text._ZN5Robot11LineComputeEv:00000000 _ZN5Robot11LineComputeEv
/var/folders/5c/srt4fy4j1pd641bjfx75k5000000gn/T//cc4cHcMS.s:1080   .text._ZN5Robot11LineComputeEv:00000184 $d
.ARM.exidx.text._ZN5Robot11LineComputeEv:00000000 $d
/var/folders/5c/srt4fy4j1pd641bjfx75k5000000gn/T//cc4cHcMS.s:1087   .rodata._ZN5Robot10getSensorsEv.str1.4:00000000 $d
/var/folders/5c/srt4fy4j1pd641bjfx75k5000000gn/T//cc4cHcMS.s:1091   .text._ZN5Robot10getSensorsEv:00000000 $t
/var/folders/5c/srt4fy4j1pd641bjfx75k5000000gn/T//cc4cHcMS.s:1097   .text._ZN5Robot10getSensorsEv:00000000 _ZN5Robot10getSensorsEv
/var/folders/5c/srt4fy4j1pd641bjfx75k5000000gn/T//cc4cHcMS.s:1340   .text._ZN5Robot10getSensorsEv:000000c0 $d
/var/folders/5c/srt4fy4j1pd641bjfx75k5000000gn/T//cc4cHcMS.s:1369   .bss._ZZN5Robot10getSensorsEvE14headerReceived:00000000 _ZZN5Robot10getSensorsEvE14headerReceived
/var/folders/5c/srt4fy4j1pd641bjfx75k5000000gn/T//cc4cHcMS.s:1364   .bss._ZZN5Robot10getSensorsEvE5index:00000000 _ZZN5Robot10getSensorsEvE5index
/var/folders/5c/srt4fy4j1pd641bjfx75k5000000gn/T//cc4cHcMS.s:1359   .bss._ZZN5Robot10getSensorsEvE4data:00000000 _ZZN5Robot10getSensorsEvE4data
.ARM.exidx.text._ZN5Robot10getSensorsEv:00000000 $d
/var/folders/5c/srt4fy4j1pd641bjfx75k5000000gn/T//cc4cHcMS.s:1356   .bss._ZZN5Robot10getSensorsEvE4data:00000000 $d
/var/folders/5c/srt4fy4j1pd641bjfx75k5000000gn/T//cc4cHcMS.s:1365   .bss._ZZN5Robot10getSensorsEvE5index:00000000 $d
/var/folders/5c/srt4fy4j1pd641bjfx75k5000000gn/T//cc4cHcMS.s:1370   .bss._ZZN5Robot10getSensorsEvE14headerReceived:00000000 $d
/var/folders/5c/srt4fy4j1pd641bjfx75k5000000gn/T//cc4cHcMS.s:1373   .bss.adc_get_val:00000000 $d
/var/folders/5c/srt4fy4j1pd641bjfx75k5000000gn/T//cc4cHcMS.s:1379   .rodata:00000000 $d

UNDEFINED SYMBOLS
HAL_UART_Receive_DMA
puts
__aeabi_unwind_cpp_pr1
HAL_TIM_PWM_Start
__aeabi_unwind_cpp_pr0
HAL_GPIO_WritePin
_ZN6ButtonC1EP12GPIO_TypeDeft
_Znaj
_ZN10MotorDriveC1EP12PwmSingleOutS1_S1_S1_PtS2_
htim3
ARM GAS  /var/folders/5c/srt4fy4j1pd641bjfx75k5000000gn/T//cc4cHcMS.s 			page 35


htim2
htim1
huart6
printf
HAL_ADC_Start
HAL_ADC_Start_DMA
_ZN9MovingAve9SetLengthEh
SystemCoreClock
hadc1
__aeabi_f2d
__aeabi_dadd
_ZN9MovingAve7ComputeEPd
