ARM GAS  /var/folders/5c/srt4fy4j1pd641bjfx75k5000000gn/T//cclgP2lB.s 			page 1


   1              		.cpu cortex-m4
   2              		.arch armv7e-m
   3              		.fpu fpv4-sp-d16
   4              		.eabi_attribute 27, 1
   5              		.eabi_attribute 28, 1
   6              		.eabi_attribute 20, 1
   7              		.eabi_attribute 21, 1
   8              		.eabi_attribute 23, 3
   9              		.eabi_attribute 24, 1
  10              		.eabi_attribute 25, 1
  11              		.eabi_attribute 26, 1
  12              		.eabi_attribute 30, 1
  13              		.eabi_attribute 34, 1
  14              		.eabi_attribute 18, 4
  15              		.file	"usart.c"
  16              		.text
  17              	.Ltext0:
  18              		.cfi_sections	.debug_frame
  19              		.file 1 "Core/Src/usart.c"
  20              		.section	.text.MX_UART4_Init,"ax",%progbits
  21              		.align	1
  22              		.global	MX_UART4_Init
  23              		.syntax unified
  24              		.thumb
  25              		.thumb_func
  27              	MX_UART4_Init:
  28              	.LFB239:
   1:Core/Src/usart.c **** /* USER CODE BEGIN Header */
   2:Core/Src/usart.c **** /**
   3:Core/Src/usart.c ****   ******************************************************************************
   4:Core/Src/usart.c ****   * @file    usart.c
   5:Core/Src/usart.c ****   * @brief   This file provides code for the configuration
   6:Core/Src/usart.c ****   *          of the USART instances.
   7:Core/Src/usart.c ****   ******************************************************************************
   8:Core/Src/usart.c ****   * @attention
   9:Core/Src/usart.c ****   *
  10:Core/Src/usart.c ****   * Copyright (c) 2024 STMicroelectronics.
  11:Core/Src/usart.c ****   * All rights reserved.
  12:Core/Src/usart.c ****   *
  13:Core/Src/usart.c ****   * This software is licensed under terms that can be found in the LICENSE file
  14:Core/Src/usart.c ****   * in the root directory of this software component.
  15:Core/Src/usart.c ****   * If no LICENSE file comes with this software, it is provided AS-IS.
  16:Core/Src/usart.c ****   *
  17:Core/Src/usart.c ****   ******************************************************************************
  18:Core/Src/usart.c ****   */
  19:Core/Src/usart.c **** /* USER CODE END Header */
  20:Core/Src/usart.c **** /* Includes ------------------------------------------------------------------*/
  21:Core/Src/usart.c **** #include "usart.h"
  22:Core/Src/usart.c **** 
  23:Core/Src/usart.c **** /* USER CODE BEGIN 0 */
  24:Core/Src/usart.c **** 
  25:Core/Src/usart.c **** /* USER CODE END 0 */
  26:Core/Src/usart.c **** 
  27:Core/Src/usart.c **** UART_HandleTypeDef huart4;
  28:Core/Src/usart.c **** UART_HandleTypeDef huart6;
  29:Core/Src/usart.c **** DMA_HandleTypeDef hdma_usart6_rx;
  30:Core/Src/usart.c **** DMA_HandleTypeDef hdma_usart6_tx;
ARM GAS  /var/folders/5c/srt4fy4j1pd641bjfx75k5000000gn/T//cclgP2lB.s 			page 2


  31:Core/Src/usart.c **** 
  32:Core/Src/usart.c **** /* UART4 init function */
  33:Core/Src/usart.c **** void MX_UART4_Init(void)
  34:Core/Src/usart.c **** {
  29              		.loc 1 34 1 view -0
  30              		.cfi_startproc
  31              		@ args = 0, pretend = 0, frame = 0
  32              		@ frame_needed = 0, uses_anonymous_args = 0
  33 0000 08B5     		push	{r3, lr}
  34              	.LCFI0:
  35              		.cfi_def_cfa_offset 8
  36              		.cfi_offset 3, -8
  37              		.cfi_offset 14, -4
  35:Core/Src/usart.c **** 
  36:Core/Src/usart.c ****   /* USER CODE BEGIN UART4_Init 0 */
  37:Core/Src/usart.c **** 
  38:Core/Src/usart.c ****   /* USER CODE END UART4_Init 0 */
  39:Core/Src/usart.c **** 
  40:Core/Src/usart.c ****   /* USER CODE BEGIN UART4_Init 1 */
  41:Core/Src/usart.c **** 
  42:Core/Src/usart.c ****   /* USER CODE END UART4_Init 1 */
  43:Core/Src/usart.c ****   huart4.Instance = UART4;
  38              		.loc 1 43 3 view .LVU1
  39              		.loc 1 43 19 is_stmt 0 view .LVU2
  40 0002 0A48     		ldr	r0, .L5
  41 0004 0A4B     		ldr	r3, .L5+4
  42 0006 0360     		str	r3, [r0]
  44:Core/Src/usart.c ****   huart4.Init.BaudRate = 115200;
  43              		.loc 1 44 3 is_stmt 1 view .LVU3
  44              		.loc 1 44 24 is_stmt 0 view .LVU4
  45 0008 4FF4E133 		mov	r3, #115200
  46 000c 4360     		str	r3, [r0, #4]
  45:Core/Src/usart.c ****   huart4.Init.WordLength = UART_WORDLENGTH_8B;
  47              		.loc 1 45 3 is_stmt 1 view .LVU5
  48              		.loc 1 45 26 is_stmt 0 view .LVU6
  49 000e 0023     		movs	r3, #0
  50 0010 8360     		str	r3, [r0, #8]
  46:Core/Src/usart.c ****   huart4.Init.StopBits = UART_STOPBITS_1;
  51              		.loc 1 46 3 is_stmt 1 view .LVU7
  52              		.loc 1 46 24 is_stmt 0 view .LVU8
  53 0012 C360     		str	r3, [r0, #12]
  47:Core/Src/usart.c ****   huart4.Init.Parity = UART_PARITY_NONE;
  54              		.loc 1 47 3 is_stmt 1 view .LVU9
  55              		.loc 1 47 22 is_stmt 0 view .LVU10
  56 0014 0361     		str	r3, [r0, #16]
  48:Core/Src/usart.c ****   huart4.Init.Mode = UART_MODE_TX_RX;
  57              		.loc 1 48 3 is_stmt 1 view .LVU11
  58              		.loc 1 48 20 is_stmt 0 view .LVU12
  59 0016 0C22     		movs	r2, #12
  60 0018 4261     		str	r2, [r0, #20]
  49:Core/Src/usart.c ****   huart4.Init.HwFlowCtl = UART_HWCONTROL_NONE;
  61              		.loc 1 49 3 is_stmt 1 view .LVU13
  62              		.loc 1 49 25 is_stmt 0 view .LVU14
  63 001a 8361     		str	r3, [r0, #24]
  50:Core/Src/usart.c ****   huart4.Init.OverSampling = UART_OVERSAMPLING_16;
  64              		.loc 1 50 3 is_stmt 1 view .LVU15
  65              		.loc 1 50 28 is_stmt 0 view .LVU16
ARM GAS  /var/folders/5c/srt4fy4j1pd641bjfx75k5000000gn/T//cclgP2lB.s 			page 3


  66 001c C361     		str	r3, [r0, #28]
  51:Core/Src/usart.c ****   if (HAL_HalfDuplex_Init(&huart4) != HAL_OK)
  67              		.loc 1 51 3 is_stmt 1 view .LVU17
  68              		.loc 1 51 7 is_stmt 0 view .LVU18
  69 001e FFF7FEFF 		bl	HAL_HalfDuplex_Init
  70              	.LVL0:
  71              		.loc 1 51 6 view .LVU19
  72 0022 00B9     		cbnz	r0, .L4
  73              	.L1:
  52:Core/Src/usart.c ****   {
  53:Core/Src/usart.c ****     Error_Handler();
  54:Core/Src/usart.c ****   }
  55:Core/Src/usart.c ****   /* USER CODE BEGIN UART4_Init 2 */
  56:Core/Src/usart.c **** 
  57:Core/Src/usart.c ****   /* USER CODE END UART4_Init 2 */
  58:Core/Src/usart.c **** 
  59:Core/Src/usart.c **** }
  74              		.loc 1 59 1 view .LVU20
  75 0024 08BD     		pop	{r3, pc}
  76              	.L4:
  53:Core/Src/usart.c ****   }
  77              		.loc 1 53 5 is_stmt 1 view .LVU21
  78 0026 FFF7FEFF 		bl	Error_Handler
  79              	.LVL1:
  80              		.loc 1 59 1 is_stmt 0 view .LVU22
  81 002a FBE7     		b	.L1
  82              	.L6:
  83              		.align	2
  84              	.L5:
  85 002c 00000000 		.word	huart4
  86 0030 004C0040 		.word	1073761280
  87              		.cfi_endproc
  88              	.LFE239:
  90              		.section	.text.MX_USART6_UART_Init,"ax",%progbits
  91              		.align	1
  92              		.global	MX_USART6_UART_Init
  93              		.syntax unified
  94              		.thumb
  95              		.thumb_func
  97              	MX_USART6_UART_Init:
  98              	.LFB240:
  60:Core/Src/usart.c **** /* USART6 init function */
  61:Core/Src/usart.c **** 
  62:Core/Src/usart.c **** void MX_USART6_UART_Init(void)
  63:Core/Src/usart.c **** {
  99              		.loc 1 63 1 is_stmt 1 view -0
 100              		.cfi_startproc
 101              		@ args = 0, pretend = 0, frame = 0
 102              		@ frame_needed = 0, uses_anonymous_args = 0
 103 0000 08B5     		push	{r3, lr}
 104              	.LCFI1:
 105              		.cfi_def_cfa_offset 8
 106              		.cfi_offset 3, -8
 107              		.cfi_offset 14, -4
  64:Core/Src/usart.c **** 
  65:Core/Src/usart.c ****   /* USER CODE BEGIN USART6_Init 0 */
  66:Core/Src/usart.c **** 
ARM GAS  /var/folders/5c/srt4fy4j1pd641bjfx75k5000000gn/T//cclgP2lB.s 			page 4


  67:Core/Src/usart.c ****   /* USER CODE END USART6_Init 0 */
  68:Core/Src/usart.c **** 
  69:Core/Src/usart.c ****   /* USER CODE BEGIN USART6_Init 1 */
  70:Core/Src/usart.c **** 
  71:Core/Src/usart.c ****   /* USER CODE END USART6_Init 1 */
  72:Core/Src/usart.c ****   huart6.Instance = USART6;
 108              		.loc 1 72 3 view .LVU24
 109              		.loc 1 72 19 is_stmt 0 view .LVU25
 110 0002 0A48     		ldr	r0, .L11
 111 0004 0A4B     		ldr	r3, .L11+4
 112 0006 0360     		str	r3, [r0]
  73:Core/Src/usart.c ****   huart6.Init.BaudRate = 115200;
 113              		.loc 1 73 3 is_stmt 1 view .LVU26
 114              		.loc 1 73 24 is_stmt 0 view .LVU27
 115 0008 4FF4E133 		mov	r3, #115200
 116 000c 4360     		str	r3, [r0, #4]
  74:Core/Src/usart.c ****   huart6.Init.WordLength = UART_WORDLENGTH_8B;
 117              		.loc 1 74 3 is_stmt 1 view .LVU28
 118              		.loc 1 74 26 is_stmt 0 view .LVU29
 119 000e 0023     		movs	r3, #0
 120 0010 8360     		str	r3, [r0, #8]
  75:Core/Src/usart.c ****   huart6.Init.StopBits = UART_STOPBITS_1;
 121              		.loc 1 75 3 is_stmt 1 view .LVU30
 122              		.loc 1 75 24 is_stmt 0 view .LVU31
 123 0012 C360     		str	r3, [r0, #12]
  76:Core/Src/usart.c ****   huart6.Init.Parity = UART_PARITY_NONE;
 124              		.loc 1 76 3 is_stmt 1 view .LVU32
 125              		.loc 1 76 22 is_stmt 0 view .LVU33
 126 0014 0361     		str	r3, [r0, #16]
  77:Core/Src/usart.c ****   huart6.Init.Mode = UART_MODE_TX_RX;
 127              		.loc 1 77 3 is_stmt 1 view .LVU34
 128              		.loc 1 77 20 is_stmt 0 view .LVU35
 129 0016 0C22     		movs	r2, #12
 130 0018 4261     		str	r2, [r0, #20]
  78:Core/Src/usart.c ****   huart6.Init.HwFlowCtl = UART_HWCONTROL_NONE;
 131              		.loc 1 78 3 is_stmt 1 view .LVU36
 132              		.loc 1 78 25 is_stmt 0 view .LVU37
 133 001a 8361     		str	r3, [r0, #24]
  79:Core/Src/usart.c ****   huart6.Init.OverSampling = UART_OVERSAMPLING_16;
 134              		.loc 1 79 3 is_stmt 1 view .LVU38
 135              		.loc 1 79 28 is_stmt 0 view .LVU39
 136 001c C361     		str	r3, [r0, #28]
  80:Core/Src/usart.c ****   if (HAL_UART_Init(&huart6) != HAL_OK)
 137              		.loc 1 80 3 is_stmt 1 view .LVU40
 138              		.loc 1 80 7 is_stmt 0 view .LVU41
 139 001e FFF7FEFF 		bl	HAL_UART_Init
 140              	.LVL2:
 141              		.loc 1 80 6 view .LVU42
 142 0022 00B9     		cbnz	r0, .L10
 143              	.L7:
  81:Core/Src/usart.c ****   {
  82:Core/Src/usart.c ****     Error_Handler();
  83:Core/Src/usart.c ****   }
  84:Core/Src/usart.c ****   /* USER CODE BEGIN USART6_Init 2 */
  85:Core/Src/usart.c **** 
  86:Core/Src/usart.c ****   /* USER CODE END USART6_Init 2 */
  87:Core/Src/usart.c **** 
ARM GAS  /var/folders/5c/srt4fy4j1pd641bjfx75k5000000gn/T//cclgP2lB.s 			page 5


  88:Core/Src/usart.c **** }
 144              		.loc 1 88 1 view .LVU43
 145 0024 08BD     		pop	{r3, pc}
 146              	.L10:
  82:Core/Src/usart.c ****   }
 147              		.loc 1 82 5 is_stmt 1 view .LVU44
 148 0026 FFF7FEFF 		bl	Error_Handler
 149              	.LVL3:
 150              		.loc 1 88 1 is_stmt 0 view .LVU45
 151 002a FBE7     		b	.L7
 152              	.L12:
 153              		.align	2
 154              	.L11:
 155 002c 00000000 		.word	huart6
 156 0030 00140140 		.word	1073812480
 157              		.cfi_endproc
 158              	.LFE240:
 160              		.section	.text.HAL_UART_MspInit,"ax",%progbits
 161              		.align	1
 162              		.global	HAL_UART_MspInit
 163              		.syntax unified
 164              		.thumb
 165              		.thumb_func
 167              	HAL_UART_MspInit:
 168              	.LVL4:
 169              	.LFB241:
  89:Core/Src/usart.c **** 
  90:Core/Src/usart.c **** void HAL_UART_MspInit(UART_HandleTypeDef* uartHandle)
  91:Core/Src/usart.c **** {
 170              		.loc 1 91 1 is_stmt 1 view -0
 171              		.cfi_startproc
 172              		@ args = 0, pretend = 0, frame = 40
 173              		@ frame_needed = 0, uses_anonymous_args = 0
 174              		.loc 1 91 1 is_stmt 0 view .LVU47
 175 0000 30B5     		push	{r4, r5, lr}
 176              	.LCFI2:
 177              		.cfi_def_cfa_offset 12
 178              		.cfi_offset 4, -12
 179              		.cfi_offset 5, -8
 180              		.cfi_offset 14, -4
 181 0002 8BB0     		sub	sp, sp, #44
 182              	.LCFI3:
 183              		.cfi_def_cfa_offset 56
  92:Core/Src/usart.c **** 
  93:Core/Src/usart.c ****   GPIO_InitTypeDef GPIO_InitStruct = {0};
 184              		.loc 1 93 3 is_stmt 1 view .LVU48
 185              		.loc 1 93 20 is_stmt 0 view .LVU49
 186 0004 0023     		movs	r3, #0
 187 0006 0593     		str	r3, [sp, #20]
 188 0008 0693     		str	r3, [sp, #24]
 189 000a 0793     		str	r3, [sp, #28]
 190 000c 0893     		str	r3, [sp, #32]
 191 000e 0993     		str	r3, [sp, #36]
  94:Core/Src/usart.c ****   if(uartHandle->Instance==UART4)
 192              		.loc 1 94 3 is_stmt 1 view .LVU50
 193              		.loc 1 94 16 is_stmt 0 view .LVU51
 194 0010 0368     		ldr	r3, [r0]
ARM GAS  /var/folders/5c/srt4fy4j1pd641bjfx75k5000000gn/T//cclgP2lB.s 			page 6


 195              		.loc 1 94 5 view .LVU52
 196 0012 474A     		ldr	r2, .L23
 197 0014 9342     		cmp	r3, r2
 198 0016 05D0     		beq	.L19
 199 0018 0446     		mov	r4, r0
  95:Core/Src/usart.c ****   {
  96:Core/Src/usart.c ****   /* USER CODE BEGIN UART4_MspInit 0 */
  97:Core/Src/usart.c **** 
  98:Core/Src/usart.c ****   /* USER CODE END UART4_MspInit 0 */
  99:Core/Src/usart.c ****     /* UART4 clock enable */
 100:Core/Src/usart.c ****     __HAL_RCC_UART4_CLK_ENABLE();
 101:Core/Src/usart.c **** 
 102:Core/Src/usart.c ****     __HAL_RCC_GPIOC_CLK_ENABLE();
 103:Core/Src/usart.c ****     /**UART4 GPIO Configuration
 104:Core/Src/usart.c ****     PC10     ------> UART4_TX
 105:Core/Src/usart.c ****     */
 106:Core/Src/usart.c ****     GPIO_InitStruct.Pin = GPIO_PIN_10;
 107:Core/Src/usart.c ****     GPIO_InitStruct.Mode = GPIO_MODE_AF_OD;
 108:Core/Src/usart.c ****     GPIO_InitStruct.Pull = GPIO_NOPULL;
 109:Core/Src/usart.c ****     GPIO_InitStruct.Speed = GPIO_SPEED_FREQ_VERY_HIGH;
 110:Core/Src/usart.c ****     GPIO_InitStruct.Alternate = GPIO_AF8_UART4;
 111:Core/Src/usart.c ****     HAL_GPIO_Init(GPIOC, &GPIO_InitStruct);
 112:Core/Src/usart.c **** 
 113:Core/Src/usart.c ****   /* USER CODE BEGIN UART4_MspInit 1 */
 114:Core/Src/usart.c **** 
 115:Core/Src/usart.c ****   /* USER CODE END UART4_MspInit 1 */
 116:Core/Src/usart.c ****   }
 117:Core/Src/usart.c ****   else if(uartHandle->Instance==USART6)
 200              		.loc 1 117 8 is_stmt 1 view .LVU53
 201              		.loc 1 117 10 is_stmt 0 view .LVU54
 202 001a 464A     		ldr	r2, .L23+4
 203 001c 9342     		cmp	r3, r2
 204 001e 25D0     		beq	.L20
 205              	.LVL5:
 206              	.L13:
 118:Core/Src/usart.c ****   {
 119:Core/Src/usart.c ****   /* USER CODE BEGIN USART6_MspInit 0 */
 120:Core/Src/usart.c **** 
 121:Core/Src/usart.c ****   /* USER CODE END USART6_MspInit 0 */
 122:Core/Src/usart.c ****     /* USART6 clock enable */
 123:Core/Src/usart.c ****     __HAL_RCC_USART6_CLK_ENABLE();
 124:Core/Src/usart.c **** 
 125:Core/Src/usart.c ****     __HAL_RCC_GPIOC_CLK_ENABLE();
 126:Core/Src/usart.c ****     /**USART6 GPIO Configuration
 127:Core/Src/usart.c ****     PC6     ------> USART6_TX
 128:Core/Src/usart.c ****     PC7     ------> USART6_RX
 129:Core/Src/usart.c ****     */
 130:Core/Src/usart.c ****     GPIO_InitStruct.Pin = GPIO_PIN_6|GPIO_PIN_7;
 131:Core/Src/usart.c ****     GPIO_InitStruct.Mode = GPIO_MODE_AF_PP;
 132:Core/Src/usart.c ****     GPIO_InitStruct.Pull = GPIO_NOPULL;
 133:Core/Src/usart.c ****     GPIO_InitStruct.Speed = GPIO_SPEED_FREQ_VERY_HIGH;
 134:Core/Src/usart.c ****     GPIO_InitStruct.Alternate = GPIO_AF8_USART6;
 135:Core/Src/usart.c ****     HAL_GPIO_Init(GPIOC, &GPIO_InitStruct);
 136:Core/Src/usart.c **** 
 137:Core/Src/usart.c ****     /* USART6 DMA Init */
 138:Core/Src/usart.c ****     /* USART6_RX Init */
 139:Core/Src/usart.c ****     hdma_usart6_rx.Instance = DMA2_Stream1;
ARM GAS  /var/folders/5c/srt4fy4j1pd641bjfx75k5000000gn/T//cclgP2lB.s 			page 7


 140:Core/Src/usart.c ****     hdma_usart6_rx.Init.Channel = DMA_CHANNEL_5;
 141:Core/Src/usart.c ****     hdma_usart6_rx.Init.Direction = DMA_PERIPH_TO_MEMORY;
 142:Core/Src/usart.c ****     hdma_usart6_rx.Init.PeriphInc = DMA_PINC_DISABLE;
 143:Core/Src/usart.c ****     hdma_usart6_rx.Init.MemInc = DMA_MINC_ENABLE;
 144:Core/Src/usart.c ****     hdma_usart6_rx.Init.PeriphDataAlignment = DMA_PDATAALIGN_BYTE;
 145:Core/Src/usart.c ****     hdma_usart6_rx.Init.MemDataAlignment = DMA_MDATAALIGN_BYTE;
 146:Core/Src/usart.c ****     hdma_usart6_rx.Init.Mode = DMA_CIRCULAR;
 147:Core/Src/usart.c ****     hdma_usart6_rx.Init.Priority = DMA_PRIORITY_LOW;
 148:Core/Src/usart.c ****     hdma_usart6_rx.Init.FIFOMode = DMA_FIFOMODE_DISABLE;
 149:Core/Src/usart.c ****     if (HAL_DMA_Init(&hdma_usart6_rx) != HAL_OK)
 150:Core/Src/usart.c ****     {
 151:Core/Src/usart.c ****       Error_Handler();
 152:Core/Src/usart.c ****     }
 153:Core/Src/usart.c **** 
 154:Core/Src/usart.c ****     __HAL_LINKDMA(uartHandle,hdmarx,hdma_usart6_rx);
 155:Core/Src/usart.c **** 
 156:Core/Src/usart.c ****     /* USART6_TX Init */
 157:Core/Src/usart.c ****     hdma_usart6_tx.Instance = DMA2_Stream6;
 158:Core/Src/usart.c ****     hdma_usart6_tx.Init.Channel = DMA_CHANNEL_5;
 159:Core/Src/usart.c ****     hdma_usart6_tx.Init.Direction = DMA_MEMORY_TO_PERIPH;
 160:Core/Src/usart.c ****     hdma_usart6_tx.Init.PeriphInc = DMA_PINC_DISABLE;
 161:Core/Src/usart.c ****     hdma_usart6_tx.Init.MemInc = DMA_MINC_ENABLE;
 162:Core/Src/usart.c ****     hdma_usart6_tx.Init.PeriphDataAlignment = DMA_PDATAALIGN_BYTE;
 163:Core/Src/usart.c ****     hdma_usart6_tx.Init.MemDataAlignment = DMA_MDATAALIGN_BYTE;
 164:Core/Src/usart.c ****     hdma_usart6_tx.Init.Mode = DMA_NORMAL;
 165:Core/Src/usart.c ****     hdma_usart6_tx.Init.Priority = DMA_PRIORITY_LOW;
 166:Core/Src/usart.c ****     hdma_usart6_tx.Init.FIFOMode = DMA_FIFOMODE_DISABLE;
 167:Core/Src/usart.c ****     if (HAL_DMA_Init(&hdma_usart6_tx) != HAL_OK)
 168:Core/Src/usart.c ****     {
 169:Core/Src/usart.c ****       Error_Handler();
 170:Core/Src/usart.c ****     }
 171:Core/Src/usart.c **** 
 172:Core/Src/usart.c ****     __HAL_LINKDMA(uartHandle,hdmatx,hdma_usart6_tx);
 173:Core/Src/usart.c **** 
 174:Core/Src/usart.c ****     /* USART6 interrupt Init */
 175:Core/Src/usart.c ****     HAL_NVIC_SetPriority(USART6_IRQn, 0, 0);
 176:Core/Src/usart.c ****     HAL_NVIC_EnableIRQ(USART6_IRQn);
 177:Core/Src/usart.c ****   /* USER CODE BEGIN USART6_MspInit 1 */
 178:Core/Src/usart.c **** 
 179:Core/Src/usart.c ****   /* USER CODE END USART6_MspInit 1 */
 180:Core/Src/usart.c ****   }
 181:Core/Src/usart.c **** }
 207              		.loc 1 181 1 view .LVU55
 208 0020 0BB0     		add	sp, sp, #44
 209              	.LCFI4:
 210              		.cfi_remember_state
 211              		.cfi_def_cfa_offset 12
 212              		@ sp needed
 213 0022 30BD     		pop	{r4, r5, pc}
 214              	.LVL6:
 215              	.L19:
 216              	.LCFI5:
 217              		.cfi_restore_state
 100:Core/Src/usart.c **** 
 218              		.loc 1 100 5 is_stmt 1 view .LVU56
 219              	.LBB2:
 100:Core/Src/usart.c **** 
ARM GAS  /var/folders/5c/srt4fy4j1pd641bjfx75k5000000gn/T//cclgP2lB.s 			page 8


 220              		.loc 1 100 5 view .LVU57
 221 0024 0021     		movs	r1, #0
 222 0026 0191     		str	r1, [sp, #4]
 100:Core/Src/usart.c **** 
 223              		.loc 1 100 5 view .LVU58
 224 0028 434B     		ldr	r3, .L23+8
 225 002a 1A6C     		ldr	r2, [r3, #64]
 226 002c 42F40022 		orr	r2, r2, #524288
 227 0030 1A64     		str	r2, [r3, #64]
 100:Core/Src/usart.c **** 
 228              		.loc 1 100 5 view .LVU59
 229 0032 1A6C     		ldr	r2, [r3, #64]
 230 0034 02F40022 		and	r2, r2, #524288
 231 0038 0192     		str	r2, [sp, #4]
 100:Core/Src/usart.c **** 
 232              		.loc 1 100 5 view .LVU60
 233 003a 019A     		ldr	r2, [sp, #4]
 234              	.LBE2:
 100:Core/Src/usart.c **** 
 235              		.loc 1 100 5 view .LVU61
 102:Core/Src/usart.c ****     /**UART4 GPIO Configuration
 236              		.loc 1 102 5 view .LVU62
 237              	.LBB3:
 102:Core/Src/usart.c ****     /**UART4 GPIO Configuration
 238              		.loc 1 102 5 view .LVU63
 239 003c 0291     		str	r1, [sp, #8]
 102:Core/Src/usart.c ****     /**UART4 GPIO Configuration
 240              		.loc 1 102 5 view .LVU64
 241 003e 1A6B     		ldr	r2, [r3, #48]
 242 0040 42F00402 		orr	r2, r2, #4
 243 0044 1A63     		str	r2, [r3, #48]
 102:Core/Src/usart.c ****     /**UART4 GPIO Configuration
 244              		.loc 1 102 5 view .LVU65
 245 0046 1B6B     		ldr	r3, [r3, #48]
 246 0048 03F00403 		and	r3, r3, #4
 247 004c 0293     		str	r3, [sp, #8]
 102:Core/Src/usart.c ****     /**UART4 GPIO Configuration
 248              		.loc 1 102 5 view .LVU66
 249 004e 029B     		ldr	r3, [sp, #8]
 250              	.LBE3:
 102:Core/Src/usart.c ****     /**UART4 GPIO Configuration
 251              		.loc 1 102 5 view .LVU67
 106:Core/Src/usart.c ****     GPIO_InitStruct.Mode = GPIO_MODE_AF_OD;
 252              		.loc 1 106 5 view .LVU68
 106:Core/Src/usart.c ****     GPIO_InitStruct.Mode = GPIO_MODE_AF_OD;
 253              		.loc 1 106 25 is_stmt 0 view .LVU69
 254 0050 4FF48063 		mov	r3, #1024
 255 0054 0593     		str	r3, [sp, #20]
 107:Core/Src/usart.c ****     GPIO_InitStruct.Pull = GPIO_NOPULL;
 256              		.loc 1 107 5 is_stmt 1 view .LVU70
 107:Core/Src/usart.c ****     GPIO_InitStruct.Pull = GPIO_NOPULL;
 257              		.loc 1 107 26 is_stmt 0 view .LVU71
 258 0056 1223     		movs	r3, #18
 259 0058 0693     		str	r3, [sp, #24]
 108:Core/Src/usart.c ****     GPIO_InitStruct.Speed = GPIO_SPEED_FREQ_VERY_HIGH;
 260              		.loc 1 108 5 is_stmt 1 view .LVU72
 109:Core/Src/usart.c ****     GPIO_InitStruct.Alternate = GPIO_AF8_UART4;
ARM GAS  /var/folders/5c/srt4fy4j1pd641bjfx75k5000000gn/T//cclgP2lB.s 			page 9


 261              		.loc 1 109 5 view .LVU73
 109:Core/Src/usart.c ****     GPIO_InitStruct.Alternate = GPIO_AF8_UART4;
 262              		.loc 1 109 27 is_stmt 0 view .LVU74
 263 005a 0323     		movs	r3, #3
 264 005c 0893     		str	r3, [sp, #32]
 110:Core/Src/usart.c ****     HAL_GPIO_Init(GPIOC, &GPIO_InitStruct);
 265              		.loc 1 110 5 is_stmt 1 view .LVU75
 110:Core/Src/usart.c ****     HAL_GPIO_Init(GPIOC, &GPIO_InitStruct);
 266              		.loc 1 110 31 is_stmt 0 view .LVU76
 267 005e 0823     		movs	r3, #8
 268 0060 0993     		str	r3, [sp, #36]
 111:Core/Src/usart.c **** 
 269              		.loc 1 111 5 is_stmt 1 view .LVU77
 270 0062 05A9     		add	r1, sp, #20
 271 0064 3548     		ldr	r0, .L23+12
 272              	.LVL7:
 111:Core/Src/usart.c **** 
 273              		.loc 1 111 5 is_stmt 0 view .LVU78
 274 0066 FFF7FEFF 		bl	HAL_GPIO_Init
 275              	.LVL8:
 276 006a D9E7     		b	.L13
 277              	.LVL9:
 278              	.L20:
 123:Core/Src/usart.c **** 
 279              		.loc 1 123 5 is_stmt 1 view .LVU79
 280              	.LBB4:
 123:Core/Src/usart.c **** 
 281              		.loc 1 123 5 view .LVU80
 282 006c 0025     		movs	r5, #0
 283 006e 0395     		str	r5, [sp, #12]
 123:Core/Src/usart.c **** 
 284              		.loc 1 123 5 view .LVU81
 285 0070 314B     		ldr	r3, .L23+8
 286 0072 5A6C     		ldr	r2, [r3, #68]
 287 0074 42F02002 		orr	r2, r2, #32
 288 0078 5A64     		str	r2, [r3, #68]
 123:Core/Src/usart.c **** 
 289              		.loc 1 123 5 view .LVU82
 290 007a 5A6C     		ldr	r2, [r3, #68]
 291 007c 02F02002 		and	r2, r2, #32
 292 0080 0392     		str	r2, [sp, #12]
 123:Core/Src/usart.c **** 
 293              		.loc 1 123 5 view .LVU83
 294 0082 039A     		ldr	r2, [sp, #12]
 295              	.LBE4:
 123:Core/Src/usart.c **** 
 296              		.loc 1 123 5 view .LVU84
 125:Core/Src/usart.c ****     /**USART6 GPIO Configuration
 297              		.loc 1 125 5 view .LVU85
 298              	.LBB5:
 125:Core/Src/usart.c ****     /**USART6 GPIO Configuration
 299              		.loc 1 125 5 view .LVU86
 300 0084 0495     		str	r5, [sp, #16]
 125:Core/Src/usart.c ****     /**USART6 GPIO Configuration
 301              		.loc 1 125 5 view .LVU87
 302 0086 1A6B     		ldr	r2, [r3, #48]
 303 0088 42F00402 		orr	r2, r2, #4
ARM GAS  /var/folders/5c/srt4fy4j1pd641bjfx75k5000000gn/T//cclgP2lB.s 			page 10


 304 008c 1A63     		str	r2, [r3, #48]
 125:Core/Src/usart.c ****     /**USART6 GPIO Configuration
 305              		.loc 1 125 5 view .LVU88
 306 008e 1B6B     		ldr	r3, [r3, #48]
 307 0090 03F00403 		and	r3, r3, #4
 308 0094 0493     		str	r3, [sp, #16]
 125:Core/Src/usart.c ****     /**USART6 GPIO Configuration
 309              		.loc 1 125 5 view .LVU89
 310 0096 049B     		ldr	r3, [sp, #16]
 311              	.LBE5:
 125:Core/Src/usart.c ****     /**USART6 GPIO Configuration
 312              		.loc 1 125 5 view .LVU90
 130:Core/Src/usart.c ****     GPIO_InitStruct.Mode = GPIO_MODE_AF_PP;
 313              		.loc 1 130 5 view .LVU91
 130:Core/Src/usart.c ****     GPIO_InitStruct.Mode = GPIO_MODE_AF_PP;
 314              		.loc 1 130 25 is_stmt 0 view .LVU92
 315 0098 C023     		movs	r3, #192
 316 009a 0593     		str	r3, [sp, #20]
 131:Core/Src/usart.c ****     GPIO_InitStruct.Pull = GPIO_NOPULL;
 317              		.loc 1 131 5 is_stmt 1 view .LVU93
 131:Core/Src/usart.c ****     GPIO_InitStruct.Pull = GPIO_NOPULL;
 318              		.loc 1 131 26 is_stmt 0 view .LVU94
 319 009c 0223     		movs	r3, #2
 320 009e 0693     		str	r3, [sp, #24]
 132:Core/Src/usart.c ****     GPIO_InitStruct.Speed = GPIO_SPEED_FREQ_VERY_HIGH;
 321              		.loc 1 132 5 is_stmt 1 view .LVU95
 133:Core/Src/usart.c ****     GPIO_InitStruct.Alternate = GPIO_AF8_USART6;
 322              		.loc 1 133 5 view .LVU96
 133:Core/Src/usart.c ****     GPIO_InitStruct.Alternate = GPIO_AF8_USART6;
 323              		.loc 1 133 27 is_stmt 0 view .LVU97
 324 00a0 0323     		movs	r3, #3
 325 00a2 0893     		str	r3, [sp, #32]
 134:Core/Src/usart.c ****     HAL_GPIO_Init(GPIOC, &GPIO_InitStruct);
 326              		.loc 1 134 5 is_stmt 1 view .LVU98
 134:Core/Src/usart.c ****     HAL_GPIO_Init(GPIOC, &GPIO_InitStruct);
 327              		.loc 1 134 31 is_stmt 0 view .LVU99
 328 00a4 0823     		movs	r3, #8
 329 00a6 0993     		str	r3, [sp, #36]
 135:Core/Src/usart.c **** 
 330              		.loc 1 135 5 is_stmt 1 view .LVU100
 331 00a8 05A9     		add	r1, sp, #20
 332 00aa 2448     		ldr	r0, .L23+12
 333              	.LVL10:
 135:Core/Src/usart.c **** 
 334              		.loc 1 135 5 is_stmt 0 view .LVU101
 335 00ac FFF7FEFF 		bl	HAL_GPIO_Init
 336              	.LVL11:
 139:Core/Src/usart.c ****     hdma_usart6_rx.Init.Channel = DMA_CHANNEL_5;
 337              		.loc 1 139 5 is_stmt 1 view .LVU102
 139:Core/Src/usart.c ****     hdma_usart6_rx.Init.Channel = DMA_CHANNEL_5;
 338              		.loc 1 139 29 is_stmt 0 view .LVU103
 339 00b0 2348     		ldr	r0, .L23+16
 340 00b2 244B     		ldr	r3, .L23+20
 341 00b4 0360     		str	r3, [r0]
 140:Core/Src/usart.c ****     hdma_usart6_rx.Init.Direction = DMA_PERIPH_TO_MEMORY;
 342              		.loc 1 140 5 is_stmt 1 view .LVU104
 140:Core/Src/usart.c ****     hdma_usart6_rx.Init.Direction = DMA_PERIPH_TO_MEMORY;
ARM GAS  /var/folders/5c/srt4fy4j1pd641bjfx75k5000000gn/T//cclgP2lB.s 			page 11


 343              		.loc 1 140 33 is_stmt 0 view .LVU105
 344 00b6 4FF02063 		mov	r3, #167772160
 345 00ba 4360     		str	r3, [r0, #4]
 141:Core/Src/usart.c ****     hdma_usart6_rx.Init.PeriphInc = DMA_PINC_DISABLE;
 346              		.loc 1 141 5 is_stmt 1 view .LVU106
 141:Core/Src/usart.c ****     hdma_usart6_rx.Init.PeriphInc = DMA_PINC_DISABLE;
 347              		.loc 1 141 35 is_stmt 0 view .LVU107
 348 00bc 8560     		str	r5, [r0, #8]
 142:Core/Src/usart.c ****     hdma_usart6_rx.Init.MemInc = DMA_MINC_ENABLE;
 349              		.loc 1 142 5 is_stmt 1 view .LVU108
 142:Core/Src/usart.c ****     hdma_usart6_rx.Init.MemInc = DMA_MINC_ENABLE;
 350              		.loc 1 142 35 is_stmt 0 view .LVU109
 351 00be C560     		str	r5, [r0, #12]
 143:Core/Src/usart.c ****     hdma_usart6_rx.Init.PeriphDataAlignment = DMA_PDATAALIGN_BYTE;
 352              		.loc 1 143 5 is_stmt 1 view .LVU110
 143:Core/Src/usart.c ****     hdma_usart6_rx.Init.PeriphDataAlignment = DMA_PDATAALIGN_BYTE;
 353              		.loc 1 143 32 is_stmt 0 view .LVU111
 354 00c0 4FF48063 		mov	r3, #1024
 355 00c4 0361     		str	r3, [r0, #16]
 144:Core/Src/usart.c ****     hdma_usart6_rx.Init.MemDataAlignment = DMA_MDATAALIGN_BYTE;
 356              		.loc 1 144 5 is_stmt 1 view .LVU112
 144:Core/Src/usart.c ****     hdma_usart6_rx.Init.MemDataAlignment = DMA_MDATAALIGN_BYTE;
 357              		.loc 1 144 45 is_stmt 0 view .LVU113
 358 00c6 4561     		str	r5, [r0, #20]
 145:Core/Src/usart.c ****     hdma_usart6_rx.Init.Mode = DMA_CIRCULAR;
 359              		.loc 1 145 5 is_stmt 1 view .LVU114
 145:Core/Src/usart.c ****     hdma_usart6_rx.Init.Mode = DMA_CIRCULAR;
 360              		.loc 1 145 42 is_stmt 0 view .LVU115
 361 00c8 8561     		str	r5, [r0, #24]
 146:Core/Src/usart.c ****     hdma_usart6_rx.Init.Priority = DMA_PRIORITY_LOW;
 362              		.loc 1 146 5 is_stmt 1 view .LVU116
 146:Core/Src/usart.c ****     hdma_usart6_rx.Init.Priority = DMA_PRIORITY_LOW;
 363              		.loc 1 146 30 is_stmt 0 view .LVU117
 364 00ca 4FF48073 		mov	r3, #256
 365 00ce C361     		str	r3, [r0, #28]
 147:Core/Src/usart.c ****     hdma_usart6_rx.Init.FIFOMode = DMA_FIFOMODE_DISABLE;
 366              		.loc 1 147 5 is_stmt 1 view .LVU118
 147:Core/Src/usart.c ****     hdma_usart6_rx.Init.FIFOMode = DMA_FIFOMODE_DISABLE;
 367              		.loc 1 147 34 is_stmt 0 view .LVU119
 368 00d0 0562     		str	r5, [r0, #32]
 148:Core/Src/usart.c ****     if (HAL_DMA_Init(&hdma_usart6_rx) != HAL_OK)
 369              		.loc 1 148 5 is_stmt 1 view .LVU120
 148:Core/Src/usart.c ****     if (HAL_DMA_Init(&hdma_usart6_rx) != HAL_OK)
 370              		.loc 1 148 34 is_stmt 0 view .LVU121
 371 00d2 4562     		str	r5, [r0, #36]
 149:Core/Src/usart.c ****     {
 372              		.loc 1 149 5 is_stmt 1 view .LVU122
 149:Core/Src/usart.c ****     {
 373              		.loc 1 149 9 is_stmt 0 view .LVU123
 374 00d4 FFF7FEFF 		bl	HAL_DMA_Init
 375              	.LVL12:
 149:Core/Src/usart.c ****     {
 376              		.loc 1 149 8 view .LVU124
 377 00d8 18BB     		cbnz	r0, .L21
 378              	.L16:
 154:Core/Src/usart.c **** 
 379              		.loc 1 154 5 is_stmt 1 view .LVU125
ARM GAS  /var/folders/5c/srt4fy4j1pd641bjfx75k5000000gn/T//cclgP2lB.s 			page 12


 154:Core/Src/usart.c **** 
 380              		.loc 1 154 5 view .LVU126
 381 00da 194B     		ldr	r3, .L23+16
 382 00dc E363     		str	r3, [r4, #60]
 154:Core/Src/usart.c **** 
 383              		.loc 1 154 5 view .LVU127
 384 00de 9C63     		str	r4, [r3, #56]
 154:Core/Src/usart.c **** 
 385              		.loc 1 154 5 view .LVU128
 157:Core/Src/usart.c ****     hdma_usart6_tx.Init.Channel = DMA_CHANNEL_5;
 386              		.loc 1 157 5 view .LVU129
 157:Core/Src/usart.c ****     hdma_usart6_tx.Init.Channel = DMA_CHANNEL_5;
 387              		.loc 1 157 29 is_stmt 0 view .LVU130
 388 00e0 1948     		ldr	r0, .L23+24
 389 00e2 1A4B     		ldr	r3, .L23+28
 390 00e4 0360     		str	r3, [r0]
 158:Core/Src/usart.c ****     hdma_usart6_tx.Init.Direction = DMA_MEMORY_TO_PERIPH;
 391              		.loc 1 158 5 is_stmt 1 view .LVU131
 158:Core/Src/usart.c ****     hdma_usart6_tx.Init.Direction = DMA_MEMORY_TO_PERIPH;
 392              		.loc 1 158 33 is_stmt 0 view .LVU132
 393 00e6 4FF02063 		mov	r3, #167772160
 394 00ea 4360     		str	r3, [r0, #4]
 159:Core/Src/usart.c ****     hdma_usart6_tx.Init.PeriphInc = DMA_PINC_DISABLE;
 395              		.loc 1 159 5 is_stmt 1 view .LVU133
 159:Core/Src/usart.c ****     hdma_usart6_tx.Init.PeriphInc = DMA_PINC_DISABLE;
 396              		.loc 1 159 35 is_stmt 0 view .LVU134
 397 00ec 4023     		movs	r3, #64
 398 00ee 8360     		str	r3, [r0, #8]
 160:Core/Src/usart.c ****     hdma_usart6_tx.Init.MemInc = DMA_MINC_ENABLE;
 399              		.loc 1 160 5 is_stmt 1 view .LVU135
 160:Core/Src/usart.c ****     hdma_usart6_tx.Init.MemInc = DMA_MINC_ENABLE;
 400              		.loc 1 160 35 is_stmt 0 view .LVU136
 401 00f0 0023     		movs	r3, #0
 402 00f2 C360     		str	r3, [r0, #12]
 161:Core/Src/usart.c ****     hdma_usart6_tx.Init.PeriphDataAlignment = DMA_PDATAALIGN_BYTE;
 403              		.loc 1 161 5 is_stmt 1 view .LVU137
 161:Core/Src/usart.c ****     hdma_usart6_tx.Init.PeriphDataAlignment = DMA_PDATAALIGN_BYTE;
 404              		.loc 1 161 32 is_stmt 0 view .LVU138
 405 00f4 4FF48062 		mov	r2, #1024
 406 00f8 0261     		str	r2, [r0, #16]
 162:Core/Src/usart.c ****     hdma_usart6_tx.Init.MemDataAlignment = DMA_MDATAALIGN_BYTE;
 407              		.loc 1 162 5 is_stmt 1 view .LVU139
 162:Core/Src/usart.c ****     hdma_usart6_tx.Init.MemDataAlignment = DMA_MDATAALIGN_BYTE;
 408              		.loc 1 162 45 is_stmt 0 view .LVU140
 409 00fa 4361     		str	r3, [r0, #20]
 163:Core/Src/usart.c ****     hdma_usart6_tx.Init.Mode = DMA_NORMAL;
 410              		.loc 1 163 5 is_stmt 1 view .LVU141
 163:Core/Src/usart.c ****     hdma_usart6_tx.Init.Mode = DMA_NORMAL;
 411              		.loc 1 163 42 is_stmt 0 view .LVU142
 412 00fc 8361     		str	r3, [r0, #24]
 164:Core/Src/usart.c ****     hdma_usart6_tx.Init.Priority = DMA_PRIORITY_LOW;
 413              		.loc 1 164 5 is_stmt 1 view .LVU143
 164:Core/Src/usart.c ****     hdma_usart6_tx.Init.Priority = DMA_PRIORITY_LOW;
 414              		.loc 1 164 30 is_stmt 0 view .LVU144
 415 00fe C361     		str	r3, [r0, #28]
 165:Core/Src/usart.c ****     hdma_usart6_tx.Init.FIFOMode = DMA_FIFOMODE_DISABLE;
 416              		.loc 1 165 5 is_stmt 1 view .LVU145
ARM GAS  /var/folders/5c/srt4fy4j1pd641bjfx75k5000000gn/T//cclgP2lB.s 			page 13


 165:Core/Src/usart.c ****     hdma_usart6_tx.Init.FIFOMode = DMA_FIFOMODE_DISABLE;
 417              		.loc 1 165 34 is_stmt 0 view .LVU146
 418 0100 0362     		str	r3, [r0, #32]
 166:Core/Src/usart.c ****     if (HAL_DMA_Init(&hdma_usart6_tx) != HAL_OK)
 419              		.loc 1 166 5 is_stmt 1 view .LVU147
 166:Core/Src/usart.c ****     if (HAL_DMA_Init(&hdma_usart6_tx) != HAL_OK)
 420              		.loc 1 166 34 is_stmt 0 view .LVU148
 421 0102 4362     		str	r3, [r0, #36]
 167:Core/Src/usart.c ****     {
 422              		.loc 1 167 5 is_stmt 1 view .LVU149
 167:Core/Src/usart.c ****     {
 423              		.loc 1 167 9 is_stmt 0 view .LVU150
 424 0104 FFF7FEFF 		bl	HAL_DMA_Init
 425              	.LVL13:
 167:Core/Src/usart.c ****     {
 426              		.loc 1 167 8 view .LVU151
 427 0108 70B9     		cbnz	r0, .L22
 428              	.L17:
 172:Core/Src/usart.c **** 
 429              		.loc 1 172 5 is_stmt 1 view .LVU152
 172:Core/Src/usart.c **** 
 430              		.loc 1 172 5 view .LVU153
 431 010a 0F4B     		ldr	r3, .L23+24
 432 010c A363     		str	r3, [r4, #56]
 172:Core/Src/usart.c **** 
 433              		.loc 1 172 5 view .LVU154
 434 010e 9C63     		str	r4, [r3, #56]
 172:Core/Src/usart.c **** 
 435              		.loc 1 172 5 view .LVU155
 175:Core/Src/usart.c ****     HAL_NVIC_EnableIRQ(USART6_IRQn);
 436              		.loc 1 175 5 view .LVU156
 437 0110 0022     		movs	r2, #0
 438 0112 1146     		mov	r1, r2
 439 0114 4720     		movs	r0, #71
 440 0116 FFF7FEFF 		bl	HAL_NVIC_SetPriority
 441              	.LVL14:
 176:Core/Src/usart.c ****   /* USER CODE BEGIN USART6_MspInit 1 */
 442              		.loc 1 176 5 view .LVU157
 443 011a 4720     		movs	r0, #71
 444 011c FFF7FEFF 		bl	HAL_NVIC_EnableIRQ
 445              	.LVL15:
 446              		.loc 1 181 1 is_stmt 0 view .LVU158
 447 0120 7EE7     		b	.L13
 448              	.L21:
 151:Core/Src/usart.c ****     }
 449              		.loc 1 151 7 is_stmt 1 view .LVU159
 450 0122 FFF7FEFF 		bl	Error_Handler
 451              	.LVL16:
 452 0126 D8E7     		b	.L16
 453              	.L22:
 169:Core/Src/usart.c ****     }
 454              		.loc 1 169 7 view .LVU160
 455 0128 FFF7FEFF 		bl	Error_Handler
 456              	.LVL17:
 457 012c EDE7     		b	.L17
 458              	.L24:
 459 012e 00BF     		.align	2
ARM GAS  /var/folders/5c/srt4fy4j1pd641bjfx75k5000000gn/T//cclgP2lB.s 			page 14


 460              	.L23:
 461 0130 004C0040 		.word	1073761280
 462 0134 00140140 		.word	1073812480
 463 0138 00380240 		.word	1073887232
 464 013c 00080240 		.word	1073874944
 465 0140 00000000 		.word	hdma_usart6_rx
 466 0144 28640240 		.word	1073898536
 467 0148 00000000 		.word	hdma_usart6_tx
 468 014c A0640240 		.word	1073898656
 469              		.cfi_endproc
 470              	.LFE241:
 472              		.section	.text.HAL_UART_MspDeInit,"ax",%progbits
 473              		.align	1
 474              		.global	HAL_UART_MspDeInit
 475              		.syntax unified
 476              		.thumb
 477              		.thumb_func
 479              	HAL_UART_MspDeInit:
 480              	.LVL18:
 481              	.LFB242:
 182:Core/Src/usart.c **** 
 183:Core/Src/usart.c **** void HAL_UART_MspDeInit(UART_HandleTypeDef* uartHandle)
 184:Core/Src/usart.c **** {
 482              		.loc 1 184 1 view -0
 483              		.cfi_startproc
 484              		@ args = 0, pretend = 0, frame = 0
 485              		@ frame_needed = 0, uses_anonymous_args = 0
 486              		.loc 1 184 1 is_stmt 0 view .LVU162
 487 0000 10B5     		push	{r4, lr}
 488              	.LCFI6:
 489              		.cfi_def_cfa_offset 8
 490              		.cfi_offset 4, -8
 491              		.cfi_offset 14, -4
 185:Core/Src/usart.c **** 
 186:Core/Src/usart.c ****   if(uartHandle->Instance==UART4)
 492              		.loc 1 186 3 is_stmt 1 view .LVU163
 493              		.loc 1 186 16 is_stmt 0 view .LVU164
 494 0002 0368     		ldr	r3, [r0]
 495              		.loc 1 186 5 view .LVU165
 496 0004 134A     		ldr	r2, .L31
 497 0006 9342     		cmp	r3, r2
 498 0008 04D0     		beq	.L29
 499 000a 0446     		mov	r4, r0
 187:Core/Src/usart.c ****   {
 188:Core/Src/usart.c ****   /* USER CODE BEGIN UART4_MspDeInit 0 */
 189:Core/Src/usart.c **** 
 190:Core/Src/usart.c ****   /* USER CODE END UART4_MspDeInit 0 */
 191:Core/Src/usart.c ****     /* Peripheral clock disable */
 192:Core/Src/usart.c ****     __HAL_RCC_UART4_CLK_DISABLE();
 193:Core/Src/usart.c **** 
 194:Core/Src/usart.c ****     /**UART4 GPIO Configuration
 195:Core/Src/usart.c ****     PC10     ------> UART4_TX
 196:Core/Src/usart.c ****     */
 197:Core/Src/usart.c ****     HAL_GPIO_DeInit(GPIOC, GPIO_PIN_10);
 198:Core/Src/usart.c **** 
 199:Core/Src/usart.c ****   /* USER CODE BEGIN UART4_MspDeInit 1 */
 200:Core/Src/usart.c **** 
ARM GAS  /var/folders/5c/srt4fy4j1pd641bjfx75k5000000gn/T//cclgP2lB.s 			page 15


 201:Core/Src/usart.c ****   /* USER CODE END UART4_MspDeInit 1 */
 202:Core/Src/usart.c ****   }
 203:Core/Src/usart.c ****   else if(uartHandle->Instance==USART6)
 500              		.loc 1 203 8 is_stmt 1 view .LVU166
 501              		.loc 1 203 10 is_stmt 0 view .LVU167
 502 000c 124A     		ldr	r2, .L31+4
 503 000e 9342     		cmp	r3, r2
 504 0010 0CD0     		beq	.L30
 505              	.LVL19:
 506              	.L25:
 204:Core/Src/usart.c ****   {
 205:Core/Src/usart.c ****   /* USER CODE BEGIN USART6_MspDeInit 0 */
 206:Core/Src/usart.c **** 
 207:Core/Src/usart.c ****   /* USER CODE END USART6_MspDeInit 0 */
 208:Core/Src/usart.c ****     /* Peripheral clock disable */
 209:Core/Src/usart.c ****     __HAL_RCC_USART6_CLK_DISABLE();
 210:Core/Src/usart.c **** 
 211:Core/Src/usart.c ****     /**USART6 GPIO Configuration
 212:Core/Src/usart.c ****     PC6     ------> USART6_TX
 213:Core/Src/usart.c ****     PC7     ------> USART6_RX
 214:Core/Src/usart.c ****     */
 215:Core/Src/usart.c ****     HAL_GPIO_DeInit(GPIOC, GPIO_PIN_6|GPIO_PIN_7);
 216:Core/Src/usart.c **** 
 217:Core/Src/usart.c ****     /* USART6 DMA DeInit */
 218:Core/Src/usart.c ****     HAL_DMA_DeInit(uartHandle->hdmarx);
 219:Core/Src/usart.c ****     HAL_DMA_DeInit(uartHandle->hdmatx);
 220:Core/Src/usart.c **** 
 221:Core/Src/usart.c ****     /* USART6 interrupt Deinit */
 222:Core/Src/usart.c ****     HAL_NVIC_DisableIRQ(USART6_IRQn);
 223:Core/Src/usart.c ****   /* USER CODE BEGIN USART6_MspDeInit 1 */
 224:Core/Src/usart.c **** 
 225:Core/Src/usart.c ****   /* USER CODE END USART6_MspDeInit 1 */
 226:Core/Src/usart.c ****   }
 227:Core/Src/usart.c **** }
 507              		.loc 1 227 1 view .LVU168
 508 0012 10BD     		pop	{r4, pc}
 509              	.LVL20:
 510              	.L29:
 192:Core/Src/usart.c **** 
 511              		.loc 1 192 5 is_stmt 1 view .LVU169
 512 0014 02F5F632 		add	r2, r2, #125952
 513 0018 136C     		ldr	r3, [r2, #64]
 514 001a 23F40023 		bic	r3, r3, #524288
 515 001e 1364     		str	r3, [r2, #64]
 197:Core/Src/usart.c **** 
 516              		.loc 1 197 5 view .LVU170
 517 0020 4FF48061 		mov	r1, #1024
 518 0024 0D48     		ldr	r0, .L31+8
 519              	.LVL21:
 197:Core/Src/usart.c **** 
 520              		.loc 1 197 5 is_stmt 0 view .LVU171
 521 0026 FFF7FEFF 		bl	HAL_GPIO_DeInit
 522              	.LVL22:
 523 002a F2E7     		b	.L25
 524              	.LVL23:
 525              	.L30:
 209:Core/Src/usart.c **** 
ARM GAS  /var/folders/5c/srt4fy4j1pd641bjfx75k5000000gn/T//cclgP2lB.s 			page 16


 526              		.loc 1 209 5 is_stmt 1 view .LVU172
 527 002c 02F59232 		add	r2, r2, #74752
 528 0030 536C     		ldr	r3, [r2, #68]
 529 0032 23F02003 		bic	r3, r3, #32
 530 0036 5364     		str	r3, [r2, #68]
 215:Core/Src/usart.c **** 
 531              		.loc 1 215 5 view .LVU173
 532 0038 C021     		movs	r1, #192
 533 003a 0848     		ldr	r0, .L31+8
 534              	.LVL24:
 215:Core/Src/usart.c **** 
 535              		.loc 1 215 5 is_stmt 0 view .LVU174
 536 003c FFF7FEFF 		bl	HAL_GPIO_DeInit
 537              	.LVL25:
 218:Core/Src/usart.c ****     HAL_DMA_DeInit(uartHandle->hdmatx);
 538              		.loc 1 218 5 is_stmt 1 view .LVU175
 539 0040 E06B     		ldr	r0, [r4, #60]
 540 0042 FFF7FEFF 		bl	HAL_DMA_DeInit
 541              	.LVL26:
 219:Core/Src/usart.c **** 
 542              		.loc 1 219 5 view .LVU176
 543 0046 A06B     		ldr	r0, [r4, #56]
 544 0048 FFF7FEFF 		bl	HAL_DMA_DeInit
 545              	.LVL27:
 222:Core/Src/usart.c ****   /* USER CODE BEGIN USART6_MspDeInit 1 */
 546              		.loc 1 222 5 view .LVU177
 547 004c 4720     		movs	r0, #71
 548 004e FFF7FEFF 		bl	HAL_NVIC_DisableIRQ
 549              	.LVL28:
 550              		.loc 1 227 1 is_stmt 0 view .LVU178
 551 0052 DEE7     		b	.L25
 552              	.L32:
 553              		.align	2
 554              	.L31:
 555 0054 004C0040 		.word	1073761280
 556 0058 00140140 		.word	1073812480
 557 005c 00080240 		.word	1073874944
 558              		.cfi_endproc
 559              	.LFE242:
 561              		.global	hdma_usart6_tx
 562              		.section	.bss.hdma_usart6_tx,"aw",%nobits
 563              		.align	2
 566              	hdma_usart6_tx:
 567 0000 00000000 		.space	96
 567      00000000 
 567      00000000 
 567      00000000 
 567      00000000 
 568              		.global	hdma_usart6_rx
 569              		.section	.bss.hdma_usart6_rx,"aw",%nobits
 570              		.align	2
 573              	hdma_usart6_rx:
 574 0000 00000000 		.space	96
 574      00000000 
 574      00000000 
 574      00000000 
 574      00000000 
ARM GAS  /var/folders/5c/srt4fy4j1pd641bjfx75k5000000gn/T//cclgP2lB.s 			page 17


 575              		.global	huart6
 576              		.section	.bss.huart6,"aw",%nobits
 577              		.align	2
 580              	huart6:
 581 0000 00000000 		.space	72
 581      00000000 
 581      00000000 
 581      00000000 
 581      00000000 
 582              		.global	huart4
 583              		.section	.bss.huart4,"aw",%nobits
 584              		.align	2
 587              	huart4:
 588 0000 00000000 		.space	72
 588      00000000 
 588      00000000 
 588      00000000 
 588      00000000 
 589              		.text
 590              	.Letext0:
 591              		.file 2 "Drivers/CMSIS/Device/ST/STM32F4xx/Include/stm32f446xx.h"
 592              		.file 3 "/opt/ST/STM32CubeCLT_1.16.0/GNU-tools-for-STM32/arm-none-eabi/include/machine/_default_ty
 593              		.file 4 "/opt/ST/STM32CubeCLT_1.16.0/GNU-tools-for-STM32/arm-none-eabi/include/sys/_stdint.h"
 594              		.file 5 "Drivers/STM32F4xx_HAL_Driver/Inc/stm32f4xx_hal_def.h"
 595              		.file 6 "Drivers/STM32F4xx_HAL_Driver/Inc/stm32f4xx_hal_gpio.h"
 596              		.file 7 "Drivers/STM32F4xx_HAL_Driver/Inc/stm32f4xx_hal_dma.h"
 597              		.file 8 "Drivers/STM32F4xx_HAL_Driver/Inc/stm32f4xx_hal_uart.h"
 598              		.file 9 "Core/Inc/usart.h"
 599              		.file 10 "Drivers/STM32F4xx_HAL_Driver/Inc/stm32f4xx_hal_cortex.h"
 600              		.file 11 "Core/Inc/main.h"
ARM GAS  /var/folders/5c/srt4fy4j1pd641bjfx75k5000000gn/T//cclgP2lB.s 			page 18

